0600 20 06 06  JSR $0606     |00 00 00 FD|000110|6
0606 20 0D 06  JSR $060D     |00 00 00 FB|000110|6
060D A9 02     LDA #$02      |02 00 00 FB|000100|2
060F 85 02     STA $02       |02 00 00 FB|000100|3
0611 A9 04     LDA #$04      |04 00 00 FB|000100|2
0613 85 03     STA $03       |04 00 00 FB|000100|3
0615 A9 11     LDA #$11      |11 00 00 FB|000100|2
0617 85 10     STA $10       |11 00 00 FB|000100|3
0619 A9 10     LDA #$10      |10 00 00 FB|000100|2
061B 85 12     STA $12       |10 00 00 FB|000100|3
061D A9 0F     LDA #$0F      |0F 00 00 FB|000100|2
061F 85 14     STA $14       |0F 00 00 FB|000100|3
0621 A9 04     LDA #$04      |04 00 00 FB|000100|2
0623 85 11     STA $11       |04 00 00 FB|000100|3
0625 85 13     STA $13       |04 00 00 FB|000100|3
0627 85 15     STA $15       |04 00 00 FB|000100|3
0629 60        RTS           |04 00 00 FD|000100|6
0609 20 2A 06  JSR $062A     |04 00 00 FB|000100|6
062A A5 FE     LDA $FE       |00 00 00 FB|000110|3
062C 85 00     STA $00       |00 00 00 FB|000110|3
062E A5 FE     LDA $FE       |00 00 00 FB|000110|3
0630 29 03     AND #$03      |00 00 00 FB|000110|2
0632 18        CLC           |00 00 00 FB|000110|2
0633 69 02     ADC #$02      |02 00 00 FB|000100|2
0635 85 01     STA $01       |02 00 00 FB|000100|3
0637 60        RTS           |02 00 00 FD|000100|6
060C 60        RTS           |02 00 00 FF|000100|6
0603 20 38 06  JSR $0638     |02 00 00 FD|000100|6
0638 20 4D 06  JSR $064D     |02 00 00 FB|000100|6
064D A5 FF     LDA $FF       |00 00 00 FB|000110|3
064F C9 77     CMP #$77      |00 00 00 FB|100100|2
0651 F0 0D     BEQ $0660     |00 00 00 FB|100100|2
0653 C9 64     CMP #$64      |00 00 00 FB|100100|2
0655 F0 14     BEQ $066B     |00 00 00 FB|100100|2
0657 C9 73     CMP #$73      |00 00 00 FB|100100|2
0659 F0 1B     BEQ $0676     |00 00 00 FB|100100|2
065B C9 61     CMP #$61      |00 00 00 FB|100100|2
065D F0 22     BEQ $0681     |00 00 00 FB|100100|2
065F 60        RTS           |00 00 00 FD|100100|6
063B 20 8D 06  JSR $068D     |00 00 00 FB|100100|6
068D 20 94 06  JSR $0694     |00 00 00 F9|100100|6
0694 A5 00     LDA $00       |00 00 00 F9|000110|3
0696 C5 10     CMP $10       |00 00 00 F9|100100|3
0698 D0 0D     BNE $06A7     |00 00 00 F9|100100|3
06A7 60        RTS           |00 00 00 FB|100100|6
0690 20 A8 06  JSR $06A8     |00 00 00 F9|100100|6
06A8 A2 02     LDX #$02      |00 02 00 F9|000100|2
06AA B5 10     LDA $10,X     |10 02 00 F9|000100|4
06AC C5 10     CMP $10       |10 02 00 F9|100100|3
06AE D0 06     BNE $06B6     |10 02 00 F9|100100|3
06B6 E8        INX           |10 03 00 F9|000100|2
06B7 E8        INX           |10 04 00 F9|000100|2
06B8 E4 03     CPX $03       |10 04 00 F9|000111|3
06BA F0 06     BEQ $06C2     |10 04 00 F9|000111|3
06C2 60        RTS           |10 04 00 FB|000111|6
0693 60        RTS           |10 04 00 FD|000111|6
063E 20 C3 06  JSR $06C3     |10 04 00 FB|000111|6
06C3 A6 03     LDX $03       |10 04 00 FB|000101|3
06C5 CA        DEX           |10 03 00 FB|000101|2
06C6 8A        TXA           |03 03 00 FB|000101|2
06C7 B5 10     LDA $10,X     |04 03 00 FB|000101|4
06C9 95 12     STA $12,X     |04 03 00 FB|000101|4
06CB CA        DEX           |04 02 00 FB|000101|2
06CC 10 F9     BPL $06C7     |04 02 00 FB|000101|3
06C7 B5 10     LDA $10,X     |10 02 00 FB|000101|4
06C9 95 12     STA $12,X     |10 02 00 FB|000101|4
06CB CA        DEX           |10 01 00 FB|000101|2
06CC 10 F9     BPL $06C7     |10 01 00 FB|000101|3
06C7 B5 10     LDA $10,X     |04 01 00 FB|000101|4
06C9 95 12     STA $12,X     |04 01 00 FB|000101|4
06CB CA        DEX           |04 00 00 FB|000111|2
06CC 10 F9     BPL $06C7     |04 00 00 FB|000111|3
06C7 B5 10     LDA $10,X     |11 00 00 FB|000101|4
06C9 95 12     STA $12,X     |11 00 00 FB|000101|4
06CB CA        DEX           |11 FF 00 FB|100101|2
06CC 10 F9     BPL $06C7     |11 FF 00 FB|100101|2
06CE A5 02     LDA $02       |02 FF 00 FB|000101|3
06D0 4A        LSR A         |01 FF 00 FB|000100|2
06D1 B0 09     BCS $06DC     |01 FF 00 FB|000100|2
06D3 4A        LSR A         |00 FF 00 FB|000111|2
06D4 B0 19     BCS $06EF     |00 FF 00 FB|000111|3
06EF E6 10     INC $10       |00 FF 00 FB|000101|5
06F1 A9 1F     LDA #$1F      |1F FF 00 FB|000101|2
06F3 24 10     BIT $10       |1F FF 00 FB|000101|3
06F5 F0 1F     BEQ $0716     |1F FF 00 FB|000101|2
06F7 60        RTS           |1F FF 00 FD|000101|6
0641 20 19 07  JSR $0719     |1F FF 00 FB|000101|6
0719 A0 00     LDY #$00      |1F FF 00 FB|000111|2
071B A5 FE     LDA $FE       |00 FF 00 FB|000111|3
071D 91 00     STA ($00),Y   |00 FF 00 FB|000111|6
071F 60        RTS           |00 FF 00 FD|000111|6
0644 20 20 07  JSR $0720     |00 FF 00 FB|000111|6
0720 A6 03     LDX $03       |00 04 00 FB|000101|3
0722 A9 00     LDA #$00      |00 04 00 FB|000111|2
0724 81 10     STA ($10,X)   |00 04 00 FB|000111|6
0726 A2 00     LDX #$00      |00 00 00 FB|000111|2
0728 A9 01     LDA #$01      |01 00 00 FB|000101|2
072A 81 10     STA ($10,X)   |01 00 00 FB|000101|6
072C 60        RTS           |01 00 00 FD|000101|6
0647 20 2D 07  JSR $072D     |01 00 00 FB|000101|6
072D A2 00     LDX #$00      |01 00 00 FB|000111|2
072F EA        NOP           |01 00 00 FB|000111|2
0730 EA        NOP           |01 00 00 FB|000111|2
0731 CA        DEX           |01 FF 00 FB|100101|2
0732 D0 FB     BNE $072F     |01 FF 00 FB|100101|3
072F EA        NOP           |01 FF 00 FB|100101|2
0730 EA        NOP           |01 FF 00 FB|100101|2
0731 CA        DEX           |01 FE 00 FB|100101|2
0732 D0 FB     BNE $072F     |01 FE 00 FB|100101|3
072F EA        NOP           |01 FE 00 FB|100101|2
0730 EA        NOP           |01 FE 00 FB|100101|2
0731 CA        DEX           |01 FD 00 FB|100101|2
0732 D0 FB     BNE $072F     |01 FD 00 FB|100101|3
072F EA        NOP           |01 FD 00 FB|100101|2
0730 EA        NOP           |01 FD 00 FB|100101|2
0731 CA        DEX           |01 FC 00 FB|100101|2
0732 D0 FB     BNE $072F     |01 FC 00 FB|100101|3
072F EA        NOP           |01 FC 00 FB|100101|2
0730 EA        NOP           |01 FC 00 FB|100101|2
0731 CA        DEX           |01 FB 00 FB|100101|2
0732 D0 FB     BNE $072F     |01 FB 00 FB|100101|3
072F EA        NOP           |01 FB 00 FB|100101|2
0730 EA        NOP           |01 FB 00 FB|100101|2
0731 CA        DEX           |01 FA 00 FB|100101|2
0732 D0 FB     BNE $072F     |01 FA 00 FB|100101|3
072F EA        NOP           |01 FA 00 FB|100101|2
0730 EA        NOP           |01 FA 00 FB|100101|2
0731 CA        DEX           |01 F9 00 FB|100101|2
0732 D0 FB     BNE $072F     |01 F9 00 FB|100101|3
072F EA        NOP           |01 F9 00 FB|100101|2
0730 EA        NOP           |01 F9 00 FB|100101|2
0731 CA        DEX           |01 F8 00 FB|100101|2
0732 D0 FB     BNE $072F     |01 F8 00 FB|100101|3
072F EA        NOP           |01 F8 00 FB|100101|2
0730 EA        NOP           |01 F8 00 FB|100101|2
0731 CA        DEX           |01 F7 00 FB|100101|2
0732 D0 FB     BNE $072F     |01 F7 00 FB|100101|3
072F EA        NOP           |01 F7 00 FB|100101|2
0730 EA        NOP           |01 F7 00 FB|100101|2
0731 CA        DEX           |01 F6 00 FB|100101|2
0732 D0 FB     BNE $072F     |01 F6 00 FB|100101|3
072F EA        NOP           |01 F6 00 FB|100101|2
0730 EA        NOP           |01 F6 00 FB|100101|2
0731 CA        DEX           |01 F5 00 FB|100101|2
0732 D0 FB     BNE $072F     |01 F5 00 FB|100101|3
072F EA        NOP           |01 F5 00 FB|100101|2
0730 EA        NOP           |01 F5 00 FB|100101|2
0731 CA        DEX           |01 F4 00 FB|100101|2
0732 D0 FB     BNE $072F     |01 F4 00 FB|100101|3
072F EA        NOP           |01 F4 00 FB|100101|2
0730 EA        NOP           |01 F4 00 FB|100101|2
0731 CA        DEX           |01 F3 00 FB|100101|2
0732 D0 FB     BNE $072F     |01 F3 00 FB|100101|3
072F EA        NOP           |01 F3 00 FB|100101|2
0730 EA        NOP           |01 F3 00 FB|100101|2
0731 CA        DEX           |01 F2 00 FB|100101|2
0732 D0 FB     BNE $072F     |01 F2 00 FB|100101|3
072F EA        NOP           |01 F2 00 FB|100101|2
0730 EA        NOP           |01 F2 00 FB|100101|2
0731 CA        DEX           |01 F1 00 FB|100101|2
0732 D0 FB     BNE $072F     |01 F1 00 FB|100101|3
072F EA        NOP           |01 F1 00 FB|100101|2
0730 EA        NOP           |01 F1 00 FB|100101|2
0731 CA        DEX           |01 F0 00 FB|100101|2
0732 D0 FB     BNE $072F     |01 F0 00 FB|100101|3
072F EA        NOP           |01 F0 00 FB|100101|2
0730 EA        NOP           |01 F0 00 FB|100101|2
0731 CA        DEX           |01 EF 00 FB|100101|2
0732 D0 FB     BNE $072F     |01 EF 00 FB|100101|3
072F EA        NOP           |01 EF 00 FB|100101|2
0730 EA        NOP           |01 EF 00 FB|100101|2
0731 CA        DEX           |01 EE 00 FB|100101|2
0732 D0 FB     BNE $072F     |01 EE 00 FB|100101|3
072F EA        NOP           |01 EE 00 FB|100101|2
0730 EA        NOP           |01 EE 00 FB|100101|2
0731 CA        DEX           |01 ED 00 FB|100101|2
0732 D0 FB     BNE $072F     |01 ED 00 FB|100101|3
072F EA        NOP           |01 ED 00 FB|100101|2
0730 EA        NOP           |01 ED 00 FB|100101|2
0731 CA        DEX           |01 EC 00 FB|100101|2
0732 D0 FB     BNE $072F     |01 EC 00 FB|100101|3
072F EA        NOP           |01 EC 00 FB|100101|2
0730 EA        NOP           |01 EC 00 FB|100101|2
0731 CA        DEX           |01 EB 00 FB|100101|2
0732 D0 FB     BNE $072F     |01 EB 00 FB|100101|3
072F EA        NOP           |01 EB 00 FB|100101|2
0730 EA        NOP           |01 EB 00 FB|100101|2
0731 CA        DEX           |01 EA 00 FB|100101|2
