C000  4C F5 C5  JMP $C5F5                       A:00 X:00 Y:00 P:24 SP:FD CYC:0
C5F5  A2 00     LDX #$00                        A:00 X:00 Y:00 P:24 SP:FD CYC:3
C5F7  86 00     STX $00 = 00                    A:00 X:00 Y:00 P:26 SP:FD CYC:5
C5F9  86 10     STX $10 = 00                    A:00 X:00 Y:00 P:26 SP:FD CYC:8
C5FB  86 11     STX $11 = 00                    A:00 X:00 Y:00 P:26 SP:FD CYC:11
C5FD  20 2D C7  JSR $C72D                       A:00 X:00 Y:00 P:26 SP:FD CYC:14
C72D  EA        NOP                             A:00 X:00 Y:00 P:26 SP:FB CYC:20
C72E  38        SEC                             A:00 X:00 Y:00 P:26 SP:FB CYC:22
C72F  B0 04     BCS $C735                       A:00 X:00 Y:00 P:27 SP:FB CYC:24
C735  EA        NOP                             A:00 X:00 Y:00 P:27 SP:FB CYC:26
C736  18        CLC                             A:00 X:00 Y:00 P:27 SP:FB CYC:28
C737  B0 03     BCS $C73C                       A:00 X:00 Y:00 P:26 SP:FB CYC:30
C739  4C 40 C7  JMP $C740                       A:00 X:00 Y:00 P:26 SP:FB CYC:32
C740  EA        NOP                             A:00 X:00 Y:00 P:26 SP:FB CYC:35
C741  38        SEC                             A:00 X:00 Y:00 P:26 SP:FB CYC:37
C742  90 03     BCC $C747                       A:00 X:00 Y:00 P:27 SP:FB CYC:39
C744  4C 4B C7  JMP $C74B                       A:00 X:00 Y:00 P:27 SP:FB CYC:41
C74B  EA        NOP                             A:00 X:00 Y:00 P:27 SP:FB CYC:44
C74C  18        CLC                             A:00 X:00 Y:00 P:27 SP:FB CYC:46
C74D  90 04     BCC $C753                       A:00 X:00 Y:00 P:26 SP:FB CYC:48
C753  EA        NOP                             A:00 X:00 Y:00 P:26 SP:FB CYC:50
C754  A9 00     LDA #$00                        A:00 X:00 Y:00 P:26 SP:FB CYC:52
C756  F0 04     BEQ $C75C                       A:00 X:00 Y:00 P:26 SP:FB CYC:54
C75C  EA        NOP                             A:00 X:00 Y:00 P:26 SP:FB CYC:56
C75D  A9 40     LDA #$40                        A:00 X:00 Y:00 P:26 SP:FB CYC:58
C75F  F0 03     BEQ $C764                       A:40 X:00 Y:00 P:24 SP:FB CYC:60
C761  4C 68 C7  JMP $C768                       A:40 X:00 Y:00 P:24 SP:FB CYC:62
C768  EA        NOP                             A:40 X:00 Y:00 P:24 SP:FB CYC:65
C769  A9 40     LDA #$40                        A:40 X:00 Y:00 P:24 SP:FB CYC:67
C76B  D0 04     BNE $C771                       A:40 X:00 Y:00 P:24 SP:FB CYC:69
C771  EA        NOP                             A:40 X:00 Y:00 P:24 SP:FB CYC:71
C772  A9 00     LDA #$00                        A:40 X:00 Y:00 P:24 SP:FB CYC:73
C774  D0 03     BNE $C779                       A:00 X:00 Y:00 P:26 SP:FB CYC:75
C776  4C 7D C7  JMP $C77D                       A:00 X:00 Y:00 P:26 SP:FB CYC:77
C77D  EA        NOP                             A:00 X:00 Y:00 P:26 SP:FB CYC:80
C77E  A9 FF     LDA #$FF                        A:00 X:00 Y:00 P:26 SP:FB CYC:82
C780  85 01     STA $01 = 00                    A:FF X:00 Y:00 P:A4 SP:FB CYC:84
C782  24 01     BIT $01 = FF                    A:FF X:00 Y:00 P:A4 SP:FB CYC:87
C784  70 04     BVS $C78A                       A:FF X:00 Y:00 P:E4 SP:FB CYC:90
C78A  EA        NOP                             A:FF X:00 Y:00 P:E4 SP:FB CYC:92
C78B  24 01     BIT $01 = FF                    A:FF X:00 Y:00 P:E4 SP:FB CYC:94
C78D  50 03     BVC $C792                       A:FF X:00 Y:00 P:E4 SP:FB CYC:97
C78F  4C 96 C7  JMP $C796                       A:FF X:00 Y:00 P:E4 SP:FB CYC:99
C796  EA        NOP                             A:FF X:00 Y:00 P:E4 SP:FB CYC:102
C797  A9 00     LDA #$00                        A:FF X:00 Y:00 P:E4 SP:FB CYC:104
C799  85 01     STA $01 = FF                    A:00 X:00 Y:00 P:66 SP:FB CYC:106
C79B  24 01     BIT $01 = 00                    A:00 X:00 Y:00 P:66 SP:FB CYC:109
C79D  50 04     BVC $C7A3                       A:00 X:00 Y:00 P:26 SP:FB CYC:112
C7A3  EA        NOP                             A:00 X:00 Y:00 P:26 SP:FB CYC:114
C7A4  24 01     BIT $01 = 00                    A:00 X:00 Y:00 P:26 SP:FB CYC:116
C7A6  70 03     BVS $C7AB                       A:00 X:00 Y:00 P:26 SP:FB CYC:119
C7A8  4C AF C7  JMP $C7AF                       A:00 X:00 Y:00 P:26 SP:FB CYC:121
C7AF  EA        NOP                             A:00 X:00 Y:00 P:26 SP:FB CYC:124
C7B0  A9 00     LDA #$00                        A:00 X:00 Y:00 P:26 SP:FB CYC:126
C7B2  10 04     BPL $C7B8                       A:00 X:00 Y:00 P:26 SP:FB CYC:128
C7B8  EA        NOP                             A:00 X:00 Y:00 P:26 SP:FB CYC:130
C7B9  A9 80     LDA #$80                        A:00 X:00 Y:00 P:26 SP:FB CYC:132
C7BB  10 03     BPL $C7C0                       A:80 X:00 Y:00 P:A4 SP:FB CYC:134
C7BD  4C D9 C7  JMP $C7D9                       A:80 X:00 Y:00 P:A4 SP:FB CYC:136
C7D9  EA        NOP                             A:80 X:00 Y:00 P:A4 SP:FB CYC:139
C7DA  60        RTS                             A:80 X:00 Y:00 P:A4 SP:FB CYC:141
C600  20 DB C7  JSR $C7DB                       A:80 X:00 Y:00 P:A4 SP:FD CYC:147
C7DB  EA        NOP                             A:80 X:00 Y:00 P:A4 SP:FB CYC:153
C7DC  A9 FF     LDA #$FF                        A:80 X:00 Y:00 P:A4 SP:FB CYC:155
C7DE  85 01     STA $01 = 00                    A:FF X:00 Y:00 P:A4 SP:FB CYC:157
C7E0  24 01     BIT $01 = FF                    A:FF X:00 Y:00 P:A4 SP:FB CYC:160
C7E2  A9 00     LDA #$00                        A:FF X:00 Y:00 P:E4 SP:FB CYC:163
C7E4  38        SEC                             A:00 X:00 Y:00 P:66 SP:FB CYC:165
C7E5  78        SEI                             A:00 X:00 Y:00 P:67 SP:FB CYC:167
C7E6  F8        SED                             A:00 X:00 Y:00 P:67 SP:FB CYC:169
C7E7  08        PHP                             A:00 X:00 Y:00 P:6F SP:FB CYC:171
C7E8  68        PLA                             A:00 X:00 Y:00 P:6F SP:FA CYC:174
C7E9  29 EF     AND #$EF                        A:7F X:00 Y:00 P:6D SP:FB CYC:178
C7EB  C9 6F     CMP #$6F                        A:6F X:00 Y:00 P:6D SP:FB CYC:180
C7ED  F0 04     BEQ $C7F3                       A:6F X:00 Y:00 P:6F SP:FB CYC:182
C7F3  EA        NOP                             A:6F X:00 Y:00 P:6F SP:FB CYC:184
C7F4  A9 40     LDA #$40                        A:6F X:00 Y:00 P:6F SP:FB CYC:186
C7F6  85 01     STA $01 = FF                    A:40 X:00 Y:00 P:6D SP:FB CYC:188
C7F8  24 01     BIT $01 = 40                    A:40 X:00 Y:00 P:6D SP:FB CYC:191
C7FA  D8        CLD                             A:40 X:00 Y:00 P:6D SP:FB CYC:194
C7FB  A9 10     LDA #$10                        A:40 X:00 Y:00 P:65 SP:FB CYC:196
C7FD  18        CLC                             A:10 X:00 Y:00 P:65 SP:FB CYC:198
C7FE  08        PHP                             A:10 X:00 Y:00 P:64 SP:FB CYC:200
C7FF  68        PLA                             A:10 X:00 Y:00 P:64 SP:FA CYC:203
C800  29 EF     AND #$EF                        A:74 X:00 Y:00 P:64 SP:FB CYC:207
C802  C9 64     CMP #$64                        A:64 X:00 Y:00 P:64 SP:FB CYC:209
C804  F0 04     BEQ $C80A                       A:64 X:00 Y:00 P:67 SP:FB CYC:211
C80A  EA        NOP                             A:64 X:00 Y:00 P:67 SP:FB CYC:213
C80B  A9 80     LDA #$80                        A:64 X:00 Y:00 P:67 SP:FB CYC:215
C80D  85 01     STA $01 = 40                    A:80 X:00 Y:00 P:E5 SP:FB CYC:217
C80F  24 01     BIT $01 = 80                    A:80 X:00 Y:00 P:E5 SP:FB CYC:220
C811  F8        SED                             A:80 X:00 Y:00 P:A5 SP:FB CYC:223
C812  A9 00     LDA #$00                        A:80 X:00 Y:00 P:AD SP:FB CYC:225
C814  38        SEC                             A:00 X:00 Y:00 P:2F SP:FB CYC:227
C815  08        PHP                             A:00 X:00 Y:00 P:2F SP:FB CYC:229
C816  68        PLA                             A:00 X:00 Y:00 P:2F SP:FA CYC:232
C817  29 EF     AND #$EF                        A:3F X:00 Y:00 P:2D SP:FB CYC:236
C819  C9 2F     CMP #$2F                        A:2F X:00 Y:00 P:2D SP:FB CYC:238
C81B  F0 04     BEQ $C821                       A:2F X:00 Y:00 P:2F SP:FB CYC:240
C821  EA        NOP                             A:2F X:00 Y:00 P:2F SP:FB CYC:242
C822  A9 FF     LDA #$FF                        A:2F X:00 Y:00 P:2F SP:FB CYC:244
C824  48        PHA                             A:FF X:00 Y:00 P:AD SP:FB CYC:246
C825  28        PLP                             A:FF X:00 Y:00 P:AD SP:FA CYC:249
C826  D0 09     BNE $C831                       A:FF X:00 Y:00 P:EF SP:FB CYC:253
C828  10 07     BPL $C831                       A:FF X:00 Y:00 P:EF SP:FB CYC:255
C82A  50 05     BVC $C831                       A:FF X:00 Y:00 P:EF SP:FB CYC:257
C82C  90 03     BCC $C831                       A:FF X:00 Y:00 P:EF SP:FB CYC:259
C82E  4C 35 C8  JMP $C835                       A:FF X:00 Y:00 P:EF SP:FB CYC:261
C835  EA        NOP                             A:FF X:00 Y:00 P:EF SP:FB CYC:264
C836  A9 04     LDA #$04                        A:FF X:00 Y:00 P:EF SP:FB CYC:266
C838  48        PHA                             A:04 X:00 Y:00 P:6D SP:FB CYC:268
C839  28        PLP                             A:04 X:00 Y:00 P:6D SP:FA CYC:271
C83A  F0 09     BEQ $C845                       A:04 X:00 Y:00 P:24 SP:FB CYC:275
C83C  30 07     BMI $C845                       A:04 X:00 Y:00 P:24 SP:FB CYC:277
C83E  70 05     BVS $C845                       A:04 X:00 Y:00 P:24 SP:FB CYC:279
C840  B0 03     BCS $C845                       A:04 X:00 Y:00 P:24 SP:FB CYC:281
C842  4C 49 C8  JMP $C849                       A:04 X:00 Y:00 P:24 SP:FB CYC:283
C849  EA        NOP                             A:04 X:00 Y:00 P:24 SP:FB CYC:286
C84A  F8        SED                             A:04 X:00 Y:00 P:24 SP:FB CYC:288
C84B  A9 FF     LDA #$FF                        A:04 X:00 Y:00 P:2C SP:FB CYC:290
C84D  85 01     STA $01 = 80                    A:FF X:00 Y:00 P:AC SP:FB CYC:292
C84F  24 01     BIT $01 = FF                    A:FF X:00 Y:00 P:AC SP:FB CYC:295
C851  18        CLC                             A:FF X:00 Y:00 P:EC SP:FB CYC:298
C852  A9 00     LDA #$00                        A:FF X:00 Y:00 P:EC SP:FB CYC:300
C854  48        PHA                             A:00 X:00 Y:00 P:6E SP:FB CYC:302
C855  A9 FF     LDA #$FF                        A:00 X:00 Y:00 P:6E SP:FA CYC:305
C857  68        PLA                             A:FF X:00 Y:00 P:EC SP:FA CYC:307
C858  D0 09     BNE $C863                       A:00 X:00 Y:00 P:6E SP:FB CYC:311
C85A  30 07     BMI $C863                       A:00 X:00 Y:00 P:6E SP:FB CYC:313
C85C  50 05     BVC $C863                       A:00 X:00 Y:00 P:6E SP:FB CYC:315
C85E  B0 03     BCS $C863                       A:00 X:00 Y:00 P:6E SP:FB CYC:317
C860  4C 67 C8  JMP $C867                       A:00 X:00 Y:00 P:6E SP:FB CYC:319
C867  EA        NOP                             A:00 X:00 Y:00 P:6E SP:FB CYC:322
C868  A9 00     LDA #$00                        A:00 X:00 Y:00 P:6E SP:FB CYC:324
C86A  85 01     STA $01 = FF                    A:00 X:00 Y:00 P:6E SP:FB CYC:326
C86C  24 01     BIT $01 = 00                    A:00 X:00 Y:00 P:6E SP:FB CYC:329
C86E  38        SEC                             A:00 X:00 Y:00 P:2E SP:FB CYC:332
C86F  A9 FF     LDA #$FF                        A:00 X:00 Y:00 P:2F SP:FB CYC:334
C871  48        PHA                             A:FF X:00 Y:00 P:AD SP:FB CYC:336
C872  A9 00     LDA #$00                        A:FF X:00 Y:00 P:AD SP:FA CYC:339
C874  68        PLA                             A:00 X:00 Y:00 P:2F SP:FA CYC:341
C875  F0 09     BEQ $C880                       A:FF X:00 Y:00 P:AD SP:FB CYC:345
C877  10 07     BPL $C880                       A:FF X:00 Y:00 P:AD SP:FB CYC:347
C879  70 05     BVS $C880                       A:FF X:00 Y:00 P:AD SP:FB CYC:349
C87B  90 03     BCC $C880                       A:FF X:00 Y:00 P:AD SP:FB CYC:351
C87D  4C 84 C8  JMP $C884                       A:FF X:00 Y:00 P:AD SP:FB CYC:353
C884  60        RTS                             A:FF X:00 Y:00 P:AD SP:FB CYC:356
C603  20 85 C8  JSR $C885                       A:FF X:00 Y:00 P:AD SP:FD CYC:362
C885  EA        NOP                             A:FF X:00 Y:00 P:AD SP:FB CYC:368
C886  18        CLC                             A:FF X:00 Y:00 P:AD SP:FB CYC:370
C887  A9 FF     LDA #$FF                        A:FF X:00 Y:00 P:AC SP:FB CYC:372
C889  85 01     STA $01 = 00                    A:FF X:00 Y:00 P:AC SP:FB CYC:374
C88B  24 01     BIT $01 = FF                    A:FF X:00 Y:00 P:AC SP:FB CYC:377
C88D  A9 55     LDA #$55                        A:FF X:00 Y:00 P:EC SP:FB CYC:380
C88F  09 AA     ORA #$AA                        A:55 X:00 Y:00 P:6C SP:FB CYC:382
C891  B0 0B     BCS $C89E                       A:FF X:00 Y:00 P:EC SP:FB CYC:384
C893  10 09     BPL $C89E                       A:FF X:00 Y:00 P:EC SP:FB CYC:386
C895  C9 FF     CMP #$FF                        A:FF X:00 Y:00 P:EC SP:FB CYC:388
C897  D0 05     BNE $C89E                       A:FF X:00 Y:00 P:6F SP:FB CYC:390
C899  50 03     BVC $C89E                       A:FF X:00 Y:00 P:6F SP:FB CYC:392
C89B  4C A2 C8  JMP $C8A2                       A:FF X:00 Y:00 P:6F SP:FB CYC:394
C8A2  EA        NOP                             A:FF X:00 Y:00 P:6F SP:FB CYC:397
C8A3  38        SEC                             A:FF X:00 Y:00 P:6F SP:FB CYC:399
C8A4  B8        CLV                             A:FF X:00 Y:00 P:6F SP:FB CYC:401
C8A5  A9 00     LDA #$00                        A:FF X:00 Y:00 P:2F SP:FB CYC:403
C8A7  09 00     ORA #$00                        A:00 X:00 Y:00 P:2F SP:FB CYC:405
C8A9  D0 09     BNE $C8B4                       A:00 X:00 Y:00 P:2F SP:FB CYC:407
C8AB  70 07     BVS $C8B4                       A:00 X:00 Y:00 P:2F SP:FB CYC:409
C8AD  90 05     BCC $C8B4                       A:00 X:00 Y:00 P:2F SP:FB CYC:411
C8AF  30 03     BMI $C8B4                       A:00 X:00 Y:00 P:2F SP:FB CYC:413
C8B1  4C B8 C8  JMP $C8B8                       A:00 X:00 Y:00 P:2F SP:FB CYC:415
C8B8  EA        NOP                             A:00 X:00 Y:00 P:2F SP:FB CYC:418
C8B9  18        CLC                             A:00 X:00 Y:00 P:2F SP:FB CYC:420
C8BA  24 01     BIT $01 = FF                    A:00 X:00 Y:00 P:2E SP:FB CYC:422
C8BC  A9 55     LDA #$55                        A:00 X:00 Y:00 P:EE SP:FB CYC:425
C8BE  29 AA     AND #$AA                        A:55 X:00 Y:00 P:6C SP:FB CYC:427
C8C0  D0 09     BNE $C8CB                       A:00 X:00 Y:00 P:6E SP:FB CYC:429
C8C2  50 07     BVC $C8CB                       A:00 X:00 Y:00 P:6E SP:FB CYC:431
C8C4  B0 05     BCS $C8CB                       A:00 X:00 Y:00 P:6E SP:FB CYC:433
C8C6  30 03     BMI $C8CB                       A:00 X:00 Y:00 P:6E SP:FB CYC:435
C8C8  4C CF C8  JMP $C8CF                       A:00 X:00 Y:00 P:6E SP:FB CYC:437
C8CF  EA        NOP                             A:00 X:00 Y:00 P:6E SP:FB CYC:440
C8D0  38        SEC                             A:00 X:00 Y:00 P:6E SP:FB CYC:442
C8D1  B8        CLV                             A:00 X:00 Y:00 P:6F SP:FB CYC:444
C8D2  A9 F8     LDA #$F8                        A:00 X:00 Y:00 P:2F SP:FB CYC:446
C8D4  29 EF     AND #$EF                        A:F8 X:00 Y:00 P:AD SP:FB CYC:448
C8D6  90 0B     BCC $C8E3                       A:E8 X:00 Y:00 P:AD SP:FB CYC:450
C8D8  10 09     BPL $C8E3                       A:E8 X:00 Y:00 P:AD SP:FB CYC:452
C8DA  C9 E8     CMP #$E8                        A:E8 X:00 Y:00 P:AD SP:FB CYC:454
C8DC  D0 05     BNE $C8E3                       A:E8 X:00 Y:00 P:2F SP:FB CYC:456
C8DE  70 03     BVS $C8E3                       A:E8 X:00 Y:00 P:2F SP:FB CYC:458
C8E0  4C E7 C8  JMP $C8E7                       A:E8 X:00 Y:00 P:2F SP:FB CYC:460
C8E7  EA        NOP                             A:E8 X:00 Y:00 P:2F SP:FB CYC:463
C8E8  18        CLC                             A:E8 X:00 Y:00 P:2F SP:FB CYC:465
C8E9  24 01     BIT $01 = FF                    A:E8 X:00 Y:00 P:2E SP:FB CYC:467
C8EB  A9 5F     LDA #$5F                        A:E8 X:00 Y:00 P:EC SP:FB CYC:470
C8ED  49 AA     EOR #$AA                        A:5F X:00 Y:00 P:6C SP:FB CYC:472
C8EF  B0 0B     BCS $C8FC                       A:F5 X:00 Y:00 P:EC SP:FB CYC:474
C8F1  10 09     BPL $C8FC                       A:F5 X:00 Y:00 P:EC SP:FB CYC:476
C8F3  C9 F5     CMP #$F5                        A:F5 X:00 Y:00 P:EC SP:FB CYC:478
C8F5  D0 05     BNE $C8FC                       A:F5 X:00 Y:00 P:6F SP:FB CYC:480
C8F7  50 03     BVC $C8FC                       A:F5 X:00 Y:00 P:6F SP:FB CYC:482
C8F9  4C 00 C9  JMP $C900                       A:F5 X:00 Y:00 P:6F SP:FB CYC:484
C900  EA        NOP                             A:F5 X:00 Y:00 P:6F SP:FB CYC:487
C901  38        SEC                             A:F5 X:00 Y:00 P:6F SP:FB CYC:489
C902  B8        CLV                             A:F5 X:00 Y:00 P:6F SP:FB CYC:491
C903  A9 70     LDA #$70                        A:F5 X:00 Y:00 P:2F SP:FB CYC:493
C905  49 70     EOR #$70                        A:70 X:00 Y:00 P:2D SP:FB CYC:495
C907  D0 09     BNE $C912                       A:00 X:00 Y:00 P:2F SP:FB CYC:497
C909  70 07     BVS $C912                       A:00 X:00 Y:00 P:2F SP:FB CYC:499
C90B  90 05     BCC $C912                       A:00 X:00 Y:00 P:2F SP:FB CYC:501
C90D  30 03     BMI $C912                       A:00 X:00 Y:00 P:2F SP:FB CYC:503
C90F  4C 16 C9  JMP $C916                       A:00 X:00 Y:00 P:2F SP:FB CYC:505
C916  EA        NOP                             A:00 X:00 Y:00 P:2F SP:FB CYC:508
C917  18        CLC                             A:00 X:00 Y:00 P:2F SP:FB CYC:510
C918  24 01     BIT $01 = FF                    A:00 X:00 Y:00 P:2E SP:FB CYC:512
C91A  A9 00     LDA #$00                        A:00 X:00 Y:00 P:EE SP:FB CYC:515
C91C  69 69     ADC #$69                        A:00 X:00 Y:00 P:6E SP:FB CYC:517
C91E  30 0B     BMI $C92B                       A:69 X:00 Y:00 P:2C SP:FB CYC:519
C920  B0 09     BCS $C92B                       A:69 X:00 Y:00 P:2C SP:FB CYC:521
C922  C9 69     CMP #$69                        A:69 X:00 Y:00 P:2C SP:FB CYC:523
C924  D0 05     BNE $C92B                       A:69 X:00 Y:00 P:2F SP:FB CYC:525
C926  70 03     BVS $C92B                       A:69 X:00 Y:00 P:2F SP:FB CYC:527
C928  4C 2F C9  JMP $C92F                       A:69 X:00 Y:00 P:2F SP:FB CYC:529
C92F  EA        NOP                             A:69 X:00 Y:00 P:2F SP:FB CYC:532
C930  38        SEC                             A:69 X:00 Y:00 P:2F SP:FB CYC:534
C931  F8        SED                             A:69 X:00 Y:00 P:2F SP:FB CYC:536
C932  24 01     BIT $01 = FF                    A:69 X:00 Y:00 P:2F SP:FB CYC:538
C934  A9 01     LDA #$01                        A:69 X:00 Y:00 P:ED SP:FB CYC:541
C936  69 69     ADC #$69                        A:01 X:00 Y:00 P:6D SP:FB CYC:543
C938  30 0B     BMI $C945                       A:6B X:00 Y:00 P:2C SP:FB CYC:545
C93A  B0 09     BCS $C945                       A:6B X:00 Y:00 P:2C SP:FB CYC:547
C93C  C9 6B     CMP #$6B                        A:6B X:00 Y:00 P:2C SP:FB CYC:549
C93E  D0 05     BNE $C945                       A:6B X:00 Y:00 P:2F SP:FB CYC:551
C940  70 03     BVS $C945                       A:6B X:00 Y:00 P:2F SP:FB CYC:553
C942  4C 49 C9  JMP $C949                       A:6B X:00 Y:00 P:2F SP:FB CYC:555
C949  EA        NOP                             A:6B X:00 Y:00 P:2F SP:FB CYC:558
C94A  D8        CLD                             A:6B X:00 Y:00 P:2F SP:FB CYC:560
C94B  38        SEC                             A:6B X:00 Y:00 P:27 SP:FB CYC:562
C94C  B8        CLV                             A:6B X:00 Y:00 P:27 SP:FB CYC:564
C94D  A9 7F     LDA #$7F                        A:6B X:00 Y:00 P:27 SP:FB CYC:566
C94F  69 7F     ADC #$7F                        A:7F X:00 Y:00 P:25 SP:FB CYC:568
C951  10 0B     BPL $C95E                       A:FF X:00 Y:00 P:E4 SP:FB CYC:570
C953  B0 09     BCS $C95E                       A:FF X:00 Y:00 P:E4 SP:FB CYC:572
C955  C9 FF     CMP #$FF                        A:FF X:00 Y:00 P:E4 SP:FB CYC:574
C957  D0 05     BNE $C95E                       A:FF X:00 Y:00 P:67 SP:FB CYC:576
C959  50 03     BVC $C95E                       A:FF X:00 Y:00 P:67 SP:FB CYC:578
C95B  4C 62 C9  JMP $C962                       A:FF X:00 Y:00 P:67 SP:FB CYC:580
C962  EA        NOP                             A:FF X:00 Y:00 P:67 SP:FB CYC:583
C963  18        CLC                             A:FF X:00 Y:00 P:67 SP:FB CYC:585
C964  24 01     BIT $01 = FF                    A:FF X:00 Y:00 P:66 SP:FB CYC:587
C966  A9 7F     LDA #$7F                        A:FF X:00 Y:00 P:E4 SP:FB CYC:590
C968  69 80     ADC #$80                        A:7F X:00 Y:00 P:64 SP:FB CYC:592
C96A  10 0B     BPL $C977                       A:FF X:00 Y:00 P:A4 SP:FB CYC:594
C96C  B0 09     BCS $C977                       A:FF X:00 Y:00 P:A4 SP:FB CYC:596
C96E  C9 FF     CMP #$FF                        A:FF X:00 Y:00 P:A4 SP:FB CYC:598
C970  D0 05     BNE $C977                       A:FF X:00 Y:00 P:27 SP:FB CYC:600
C972  70 03     BVS $C977                       A:FF X:00 Y:00 P:27 SP:FB CYC:602
C974  4C 7B C9  JMP $C97B                       A:FF X:00 Y:00 P:27 SP:FB CYC:604
C97B  EA        NOP                             A:FF X:00 Y:00 P:27 SP:FB CYC:607
C97C  38        SEC                             A:FF X:00 Y:00 P:27 SP:FB CYC:609
C97D  B8        CLV                             A:FF X:00 Y:00 P:27 SP:FB CYC:611
C97E  A9 7F     LDA #$7F                        A:FF X:00 Y:00 P:27 SP:FB CYC:613
C980  69 80     ADC #$80                        A:7F X:00 Y:00 P:25 SP:FB CYC:615
C982  D0 09     BNE $C98D                       A:00 X:00 Y:00 P:27 SP:FB CYC:617
C984  30 07     BMI $C98D                       A:00 X:00 Y:00 P:27 SP:FB CYC:619
C986  70 05     BVS $C98D                       A:00 X:00 Y:00 P:27 SP:FB CYC:621
C988  90 03     BCC $C98D                       A:00 X:00 Y:00 P:27 SP:FB CYC:623
C98A  4C 91 C9  JMP $C991                       A:00 X:00 Y:00 P:27 SP:FB CYC:625
C991  EA        NOP                             A:00 X:00 Y:00 P:27 SP:FB CYC:628
C992  38        SEC                             A:00 X:00 Y:00 P:27 SP:FB CYC:630
C993  B8        CLV                             A:00 X:00 Y:00 P:27 SP:FB CYC:632
C994  A9 9F     LDA #$9F                        A:00 X:00 Y:00 P:27 SP:FB CYC:634
C996  F0 09     BEQ $C9A1                       A:9F X:00 Y:00 P:A5 SP:FB CYC:636
C998  10 07     BPL $C9A1                       A:9F X:00 Y:00 P:A5 SP:FB CYC:638
C99A  70 05     BVS $C9A1                       A:9F X:00 Y:00 P:A5 SP:FB CYC:640
C99C  90 03     BCC $C9A1                       A:9F X:00 Y:00 P:A5 SP:FB CYC:642
C99E  4C A5 C9  JMP $C9A5                       A:9F X:00 Y:00 P:A5 SP:FB CYC:644
C9A5  EA        NOP                             A:9F X:00 Y:00 P:A5 SP:FB CYC:647
C9A6  18        CLC                             A:9F X:00 Y:00 P:A5 SP:FB CYC:649
C9A7  24 01     BIT $01 = FF                    A:9F X:00 Y:00 P:A4 SP:FB CYC:651
C9A9  A9 00     LDA #$00                        A:9F X:00 Y:00 P:E4 SP:FB CYC:654
C9AB  D0 09     BNE $C9B6                       A:00 X:00 Y:00 P:66 SP:FB CYC:656
C9AD  30 07     BMI $C9B6                       A:00 X:00 Y:00 P:66 SP:FB CYC:658
C9AF  50 05     BVC $C9B6                       A:00 X:00 Y:00 P:66 SP:FB CYC:660
C9B1  B0 03     BCS $C9B6                       A:00 X:00 Y:00 P:66 SP:FB CYC:662
C9B3  4C BA C9  JMP $C9BA                       A:00 X:00 Y:00 P:66 SP:FB CYC:664
C9BA  EA        NOP                             A:00 X:00 Y:00 P:66 SP:FB CYC:667
C9BB  24 01     BIT $01 = FF                    A:00 X:00 Y:00 P:66 SP:FB CYC:669
C9BD  A9 40     LDA #$40                        A:00 X:00 Y:00 P:E6 SP:FB CYC:672
C9BF  C9 40     CMP #$40                        A:40 X:00 Y:00 P:64 SP:FB CYC:674
C9C1  30 09     BMI $C9CC                       A:40 X:00 Y:00 P:67 SP:FB CYC:676
C9C3  90 07     BCC $C9CC                       A:40 X:00 Y:00 P:67 SP:FB CYC:678
C9C5  D0 05     BNE $C9CC                       A:40 X:00 Y:00 P:67 SP:FB CYC:680
C9C7  50 03     BVC $C9CC                       A:40 X:00 Y:00 P:67 SP:FB CYC:682
C9C9  4C D0 C9  JMP $C9D0                       A:40 X:00 Y:00 P:67 SP:FB CYC:684
C9D0  EA        NOP                             A:40 X:00 Y:00 P:67 SP:FB CYC:687
C9D1  B8        CLV                             A:40 X:00 Y:00 P:67 SP:FB CYC:689
C9D2  C9 3F     CMP #$3F                        A:40 X:00 Y:00 P:27 SP:FB CYC:691
C9D4  F0 09     BEQ $C9DF                       A:40 X:00 Y:00 P:25 SP:FB CYC:693
C9D6  30 07     BMI $C9DF                       A:40 X:00 Y:00 P:25 SP:FB CYC:695
C9D8  90 05     BCC $C9DF                       A:40 X:00 Y:00 P:25 SP:FB CYC:697
C9DA  70 03     BVS $C9DF                       A:40 X:00 Y:00 P:25 SP:FB CYC:699
C9DC  4C E3 C9  JMP $C9E3                       A:40 X:00 Y:00 P:25 SP:FB CYC:701
C9E3  EA        NOP                             A:40 X:00 Y:00 P:25 SP:FB CYC:704
C9E4  C9 41     CMP #$41                        A:40 X:00 Y:00 P:25 SP:FB CYC:706
C9E6  F0 07     BEQ $C9EF                       A:40 X:00 Y:00 P:A4 SP:FB CYC:708
C9E8  10 05     BPL $C9EF                       A:40 X:00 Y:00 P:A4 SP:FB CYC:710
C9EA  10 03     BPL $C9EF                       A:40 X:00 Y:00 P:A4 SP:FB CYC:712
C9EC  4C F3 C9  JMP $C9F3                       A:40 X:00 Y:00 P:A4 SP:FB CYC:714
C9F3  EA        NOP                             A:40 X:00 Y:00 P:A4 SP:FB CYC:717
C9F4  A9 80     LDA #$80                        A:40 X:00 Y:00 P:A4 SP:FB CYC:719
C9F6  C9 00     CMP #$00                        A:80 X:00 Y:00 P:A4 SP:FB CYC:721
C9F8  F0 07     BEQ $CA01                       A:80 X:00 Y:00 P:A5 SP:FB CYC:723
C9FA  10 05     BPL $CA01                       A:80 X:00 Y:00 P:A5 SP:FB CYC:725
C9FC  90 03     BCC $CA01                       A:80 X:00 Y:00 P:A5 SP:FB CYC:727
C9FE  4C 05 CA  JMP $CA05                       A:80 X:00 Y:00 P:A5 SP:FB CYC:729
CA05  EA        NOP                             A:80 X:00 Y:00 P:A5 SP:FB CYC:732
CA06  C9 80     CMP #$80                        A:80 X:00 Y:00 P:A5 SP:FB CYC:734
CA08  D0 07     BNE $CA11                       A:80 X:00 Y:00 P:27 SP:FB CYC:736
CA0A  30 05     BMI $CA11                       A:80 X:00 Y:00 P:27 SP:FB CYC:738
CA0C  90 03     BCC $CA11                       A:80 X:00 Y:00 P:27 SP:FB CYC:740
CA0E  4C 15 CA  JMP $CA15                       A:80 X:00 Y:00 P:27 SP:FB CYC:742
CA15  EA        NOP                             A:80 X:00 Y:00 P:27 SP:FB CYC:745
CA16  C9 81     CMP #$81                        A:80 X:00 Y:00 P:27 SP:FB CYC:747
CA18  B0 07     BCS $CA21                       A:80 X:00 Y:00 P:A4 SP:FB CYC:749
CA1A  F0 05     BEQ $CA21                       A:80 X:00 Y:00 P:A4 SP:FB CYC:751
CA1C  10 03     BPL $CA21                       A:80 X:00 Y:00 P:A4 SP:FB CYC:753
CA1E  4C 25 CA  JMP $CA25                       A:80 X:00 Y:00 P:A4 SP:FB CYC:755
CA25  EA        NOP                             A:80 X:00 Y:00 P:A4 SP:FB CYC:758
CA26  C9 7F     CMP #$7F                        A:80 X:00 Y:00 P:A4 SP:FB CYC:760
CA28  90 07     BCC $CA31                       A:80 X:00 Y:00 P:25 SP:FB CYC:762
CA2A  F0 05     BEQ $CA31                       A:80 X:00 Y:00 P:25 SP:FB CYC:764
CA2C  30 03     BMI $CA31                       A:80 X:00 Y:00 P:25 SP:FB CYC:766
CA2E  4C 35 CA  JMP $CA35                       A:80 X:00 Y:00 P:25 SP:FB CYC:768
CA35  EA        NOP                             A:80 X:00 Y:00 P:25 SP:FB CYC:771
CA36  24 01     BIT $01 = FF                    A:80 X:00 Y:00 P:25 SP:FB CYC:773
CA38  A0 40     LDY #$40                        A:80 X:00 Y:00 P:E5 SP:FB CYC:776
CA3A  C0 40     CPY #$40                        A:80 X:00 Y:40 P:65 SP:FB CYC:778
CA3C  D0 09     BNE $CA47                       A:80 X:00 Y:40 P:67 SP:FB CYC:780
CA3E  30 07     BMI $CA47                       A:80 X:00 Y:40 P:67 SP:FB CYC:782
CA40  90 05     BCC $CA47                       A:80 X:00 Y:40 P:67 SP:FB CYC:784
CA42  50 03     BVC $CA47                       A:80 X:00 Y:40 P:67 SP:FB CYC:786
CA44  4C 4B CA  JMP $CA4B                       A:80 X:00 Y:40 P:67 SP:FB CYC:788
CA4B  EA        NOP                             A:80 X:00 Y:40 P:67 SP:FB CYC:791
CA4C  B8        CLV                             A:80 X:00 Y:40 P:67 SP:FB CYC:793
CA4D  C0 3F     CPY #$3F                        A:80 X:00 Y:40 P:27 SP:FB CYC:795
CA4F  F0 09     BEQ $CA5A                       A:80 X:00 Y:40 P:25 SP:FB CYC:797
CA51  30 07     BMI $CA5A                       A:80 X:00 Y:40 P:25 SP:FB CYC:799
CA53  90 05     BCC $CA5A                       A:80 X:00 Y:40 P:25 SP:FB CYC:801
CA55  70 03     BVS $CA5A                       A:80 X:00 Y:40 P:25 SP:FB CYC:803
CA57  4C 5E CA  JMP $CA5E                       A:80 X:00 Y:40 P:25 SP:FB CYC:805
CA5E  EA        NOP                             A:80 X:00 Y:40 P:25 SP:FB CYC:808
CA5F  C0 41     CPY #$41                        A:80 X:00 Y:40 P:25 SP:FB CYC:810
CA61  F0 07     BEQ $CA6A                       A:80 X:00 Y:40 P:A4 SP:FB CYC:812
CA63  10 05     BPL $CA6A                       A:80 X:00 Y:40 P:A4 SP:FB CYC:814
CA65  10 03     BPL $CA6A                       A:80 X:00 Y:40 P:A4 SP:FB CYC:816
CA67  4C 6E CA  JMP $CA6E                       A:80 X:00 Y:40 P:A4 SP:FB CYC:818
CA6E  EA        NOP                             A:80 X:00 Y:40 P:A4 SP:FB CYC:821
CA6F  A0 80     LDY #$80                        A:80 X:00 Y:40 P:A4 SP:FB CYC:823
CA71  C0 00     CPY #$00                        A:80 X:00 Y:80 P:A4 SP:FB CYC:825
CA73  F0 07     BEQ $CA7C                       A:80 X:00 Y:80 P:A5 SP:FB CYC:827
CA75  10 05     BPL $CA7C                       A:80 X:00 Y:80 P:A5 SP:FB CYC:829
CA77  90 03     BCC $CA7C                       A:80 X:00 Y:80 P:A5 SP:FB CYC:831
CA79  4C 80 CA  JMP $CA80                       A:80 X:00 Y:80 P:A5 SP:FB CYC:833
CA80  EA        NOP                             A:80 X:00 Y:80 P:A5 SP:FB CYC:836
CA81  C0 80     CPY #$80                        A:80 X:00 Y:80 P:A5 SP:FB CYC:838
CA83  D0 07     BNE $CA8C                       A:80 X:00 Y:80 P:27 SP:FB CYC:840
CA85  30 05     BMI $CA8C                       A:80 X:00 Y:80 P:27 SP:FB CYC:842
CA87  90 03     BCC $CA8C                       A:80 X:00 Y:80 P:27 SP:FB CYC:844
CA89  4C 90 CA  JMP $CA90                       A:80 X:00 Y:80 P:27 SP:FB CYC:846
CA90  EA        NOP                             A:80 X:00 Y:80 P:27 SP:FB CYC:849
CA91  C0 81     CPY #$81                        A:80 X:00 Y:80 P:27 SP:FB CYC:851
CA93  B0 07     BCS $CA9C                       A:80 X:00 Y:80 P:A4 SP:FB CYC:853
CA95  F0 05     BEQ $CA9C                       A:80 X:00 Y:80 P:A4 SP:FB CYC:855
CA97  10 03     BPL $CA9C                       A:80 X:00 Y:80 P:A4 SP:FB CYC:857
CA99  4C A0 CA  JMP $CAA0                       A:80 X:00 Y:80 P:A4 SP:FB CYC:859
CAA0  EA        NOP                             A:80 X:00 Y:80 P:A4 SP:FB CYC:862
CAA1  C0 7F     CPY #$7F                        A:80 X:00 Y:80 P:A4 SP:FB CYC:864
CAA3  90 07     BCC $CAAC                       A:80 X:00 Y:80 P:25 SP:FB CYC:866
CAA5  F0 05     BEQ $CAAC                       A:80 X:00 Y:80 P:25 SP:FB CYC:868
CAA7  30 03     BMI $CAAC                       A:80 X:00 Y:80 P:25 SP:FB CYC:870
CAA9  4C B0 CA  JMP $CAB0                       A:80 X:00 Y:80 P:25 SP:FB CYC:872
CAB0  EA        NOP                             A:80 X:00 Y:80 P:25 SP:FB CYC:875
CAB1  24 01     BIT $01 = FF                    A:80 X:00 Y:80 P:25 SP:FB CYC:877
CAB3  A2 40     LDX #$40                        A:80 X:00 Y:80 P:E5 SP:FB CYC:880
CAB5  E0 40     CPX #$40                        A:80 X:40 Y:80 P:65 SP:FB CYC:882
CAB7  D0 09     BNE $CAC2                       A:80 X:40 Y:80 P:67 SP:FB CYC:884
CAB9  30 07     BMI $CAC2                       A:80 X:40 Y:80 P:67 SP:FB CYC:886
CABB  90 05     BCC $CAC2                       A:80 X:40 Y:80 P:67 SP:FB CYC:888
CABD  50 03     BVC $CAC2                       A:80 X:40 Y:80 P:67 SP:FB CYC:890
CABF  4C C6 CA  JMP $CAC6                       A:80 X:40 Y:80 P:67 SP:FB CYC:892
CAC6  EA        NOP                             A:80 X:40 Y:80 P:67 SP:FB CYC:895
CAC7  B8        CLV                             A:80 X:40 Y:80 P:67 SP:FB CYC:897
CAC8  E0 3F     CPX #$3F                        A:80 X:40 Y:80 P:27 SP:FB CYC:899
CACA  F0 09     BEQ $CAD5                       A:80 X:40 Y:80 P:25 SP:FB CYC:901
CACC  30 07     BMI $CAD5                       A:80 X:40 Y:80 P:25 SP:FB CYC:903
CACE  90 05     BCC $CAD5                       A:80 X:40 Y:80 P:25 SP:FB CYC:905
CAD0  70 03     BVS $CAD5                       A:80 X:40 Y:80 P:25 SP:FB CYC:907
CAD2  4C D9 CA  JMP $CAD9                       A:80 X:40 Y:80 P:25 SP:FB CYC:909
CAD9  EA        NOP                             A:80 X:40 Y:80 P:25 SP:FB CYC:912
CADA  E0 41     CPX #$41                        A:80 X:40 Y:80 P:25 SP:FB CYC:914
CADC  F0 07     BEQ $CAE5                       A:80 X:40 Y:80 P:A4 SP:FB CYC:916
CADE  10 05     BPL $CAE5                       A:80 X:40 Y:80 P:A4 SP:FB CYC:918
CAE0  10 03     BPL $CAE5                       A:80 X:40 Y:80 P:A4 SP:FB CYC:920
CAE2  4C E9 CA  JMP $CAE9                       A:80 X:40 Y:80 P:A4 SP:FB CYC:922
CAE9  EA        NOP                             A:80 X:40 Y:80 P:A4 SP:FB CYC:925
CAEA  A2 80     LDX #$80                        A:80 X:40 Y:80 P:A4 SP:FB CYC:927
CAEC  E0 00     CPX #$00                        A:80 X:80 Y:80 P:A4 SP:FB CYC:929
CAEE  F0 07     BEQ $CAF7                       A:80 X:80 Y:80 P:A5 SP:FB CYC:931
CAF0  10 05     BPL $CAF7                       A:80 X:80 Y:80 P:A5 SP:FB CYC:933
CAF2  90 03     BCC $CAF7                       A:80 X:80 Y:80 P:A5 SP:FB CYC:935
CAF4  4C FB CA  JMP $CAFB                       A:80 X:80 Y:80 P:A5 SP:FB CYC:937
CAFB  EA        NOP                             A:80 X:80 Y:80 P:A5 SP:FB CYC:940
CAFC  E0 80     CPX #$80                        A:80 X:80 Y:80 P:A5 SP:FB CYC:942
CAFE  D0 07     BNE $CB07                       A:80 X:80 Y:80 P:27 SP:FB CYC:944
CB00  30 05     BMI $CB07                       A:80 X:80 Y:80 P:27 SP:FB CYC:946
CB02  90 03     BCC $CB07                       A:80 X:80 Y:80 P:27 SP:FB CYC:948
CB04  4C 0B CB  JMP $CB0B                       A:80 X:80 Y:80 P:27 SP:FB CYC:950
CB0B  EA        NOP                             A:80 X:80 Y:80 P:27 SP:FB CYC:953
CB0C  E0 81     CPX #$81                        A:80 X:80 Y:80 P:27 SP:FB CYC:955
CB0E  B0 07     BCS $CB17                       A:80 X:80 Y:80 P:A4 SP:FB CYC:957
CB10  F0 05     BEQ $CB17                       A:80 X:80 Y:80 P:A4 SP:FB CYC:959
CB12  10 03     BPL $CB17                       A:80 X:80 Y:80 P:A4 SP:FB CYC:961
CB14  4C 1B CB  JMP $CB1B                       A:80 X:80 Y:80 P:A4 SP:FB CYC:963
CB1B  EA        NOP                             A:80 X:80 Y:80 P:A4 SP:FB CYC:966
CB1C  E0 7F     CPX #$7F                        A:80 X:80 Y:80 P:A4 SP:FB CYC:968
CB1E  90 07     BCC $CB27                       A:80 X:80 Y:80 P:25 SP:FB CYC:970
CB20  F0 05     BEQ $CB27                       A:80 X:80 Y:80 P:25 SP:FB CYC:972
CB22  30 03     BMI $CB27                       A:80 X:80 Y:80 P:25 SP:FB CYC:974
CB24  4C 2B CB  JMP $CB2B                       A:80 X:80 Y:80 P:25 SP:FB CYC:976
CB2B  EA        NOP                             A:80 X:80 Y:80 P:25 SP:FB CYC:979
CB2C  38        SEC                             A:80 X:80 Y:80 P:25 SP:FB CYC:981
CB2D  B8        CLV                             A:80 X:80 Y:80 P:25 SP:FB CYC:983
CB2E  A2 9F     LDX #$9F                        A:80 X:80 Y:80 P:25 SP:FB CYC:985
CB30  F0 09     BEQ $CB3B                       A:80 X:9F Y:80 P:A5 SP:FB CYC:987
CB32  10 07     BPL $CB3B                       A:80 X:9F Y:80 P:A5 SP:FB CYC:989
CB34  70 05     BVS $CB3B                       A:80 X:9F Y:80 P:A5 SP:FB CYC:991
CB36  90 03     BCC $CB3B                       A:80 X:9F Y:80 P:A5 SP:FB CYC:993
CB38  4C 3F CB  JMP $CB3F                       A:80 X:9F Y:80 P:A5 SP:FB CYC:995
CB3F  EA        NOP                             A:80 X:9F Y:80 P:A5 SP:FB CYC:998
CB40  18        CLC                             A:80 X:9F Y:80 P:A5 SP:FB CYC:1000
CB41  24 01     BIT $01 = FF                    A:80 X:9F Y:80 P:A4 SP:FB CYC:1002
CB43  A2 00     LDX #$00                        A:80 X:9F Y:80 P:E4 SP:FB CYC:1005
CB45  D0 09     BNE $CB50                       A:80 X:00 Y:80 P:66 SP:FB CYC:1007
CB47  30 07     BMI $CB50                       A:80 X:00 Y:80 P:66 SP:FB CYC:1009
CB49  50 05     BVC $CB50                       A:80 X:00 Y:80 P:66 SP:FB CYC:1011
CB4B  B0 03     BCS $CB50                       A:80 X:00 Y:80 P:66 SP:FB CYC:1013
CB4D  4C 54 CB  JMP $CB54                       A:80 X:00 Y:80 P:66 SP:FB CYC:1015
CB54  EA        NOP                             A:80 X:00 Y:80 P:66 SP:FB CYC:1018
CB55  38        SEC                             A:80 X:00 Y:80 P:66 SP:FB CYC:1020
CB56  B8        CLV                             A:80 X:00 Y:80 P:67 SP:FB CYC:1022
CB57  A0 9F     LDY #$9F                        A:80 X:00 Y:80 P:27 SP:FB CYC:1024
CB59  F0 09     BEQ $CB64                       A:80 X:00 Y:9F P:A5 SP:FB CYC:1026
CB5B  10 07     BPL $CB64                       A:80 X:00 Y:9F P:A5 SP:FB CYC:1028
CB5D  70 05     BVS $CB64                       A:80 X:00 Y:9F P:A5 SP:FB CYC:1030
CB5F  90 03     BCC $CB64                       A:80 X:00 Y:9F P:A5 SP:FB CYC:1032
CB61  4C 68 CB  JMP $CB68                       A:80 X:00 Y:9F P:A5 SP:FB CYC:1034
CB68  EA        NOP                             A:80 X:00 Y:9F P:A5 SP:FB CYC:1037
CB69  18        CLC                             A:80 X:00 Y:9F P:A5 SP:FB CYC:1039
CB6A  24 01     BIT $01 = FF                    A:80 X:00 Y:9F P:A4 SP:FB CYC:1041
CB6C  A0 00     LDY #$00                        A:80 X:00 Y:9F P:E4 SP:FB CYC:1044
CB6E  D0 09     BNE $CB79                       A:80 X:00 Y:00 P:66 SP:FB CYC:1046
CB70  30 07     BMI $CB79                       A:80 X:00 Y:00 P:66 SP:FB CYC:1048
CB72  50 05     BVC $CB79                       A:80 X:00 Y:00 P:66 SP:FB CYC:1050
CB74  B0 03     BCS $CB79                       A:80 X:00 Y:00 P:66 SP:FB CYC:1052
CB76  4C 7D CB  JMP $CB7D                       A:80 X:00 Y:00 P:66 SP:FB CYC:1054
CB7D  EA        NOP                             A:80 X:00 Y:00 P:66 SP:FB CYC:1057
CB7E  A9 55     LDA #$55                        A:80 X:00 Y:00 P:66 SP:FB CYC:1059
CB80  A2 AA     LDX #$AA                        A:55 X:00 Y:00 P:64 SP:FB CYC:1061
CB82  A0 33     LDY #$33                        A:55 X:AA Y:00 P:E4 SP:FB CYC:1063
CB84  C9 55     CMP #$55                        A:55 X:AA Y:33 P:64 SP:FB CYC:1065
CB86  D0 23     BNE $CBAB                       A:55 X:AA Y:33 P:67 SP:FB CYC:1067
CB88  E0 AA     CPX #$AA                        A:55 X:AA Y:33 P:67 SP:FB CYC:1069
CB8A  D0 1F     BNE $CBAB                       A:55 X:AA Y:33 P:67 SP:FB CYC:1071
CB8C  C0 33     CPY #$33                        A:55 X:AA Y:33 P:67 SP:FB CYC:1073
CB8E  D0 1B     BNE $CBAB                       A:55 X:AA Y:33 P:67 SP:FB CYC:1075
CB90  C9 55     CMP #$55                        A:55 X:AA Y:33 P:67 SP:FB CYC:1077
CB92  D0 17     BNE $CBAB                       A:55 X:AA Y:33 P:67 SP:FB CYC:1079
CB94  E0 AA     CPX #$AA                        A:55 X:AA Y:33 P:67 SP:FB CYC:1081
CB96  D0 13     BNE $CBAB                       A:55 X:AA Y:33 P:67 SP:FB CYC:1083
CB98  C0 33     CPY #$33                        A:55 X:AA Y:33 P:67 SP:FB CYC:1085
CB9A  D0 0F     BNE $CBAB                       A:55 X:AA Y:33 P:67 SP:FB CYC:1087
CB9C  C9 56     CMP #$56                        A:55 X:AA Y:33 P:67 SP:FB CYC:1089
CB9E  F0 0B     BEQ $CBAB                       A:55 X:AA Y:33 P:E4 SP:FB CYC:1091
CBA0  E0 AB     CPX #$AB                        A:55 X:AA Y:33 P:E4 SP:FB CYC:1093
CBA2  F0 07     BEQ $CBAB                       A:55 X:AA Y:33 P:E4 SP:FB CYC:1095
CBA4  C0 34     CPY #$34                        A:55 X:AA Y:33 P:E4 SP:FB CYC:1097
CBA6  F0 03     BEQ $CBAB                       A:55 X:AA Y:33 P:E4 SP:FB CYC:1099
CBA8  4C AF CB  JMP $CBAF                       A:55 X:AA Y:33 P:E4 SP:FB CYC:1101
CBAF  A0 71     LDY #$71                        A:55 X:AA Y:33 P:E4 SP:FB CYC:1104
CBB1  20 31 F9  JSR $F931                       A:55 X:AA Y:71 P:64 SP:FB CYC:1106
F931  24 01     BIT $01 = FF                    A:55 X:AA Y:71 P:64 SP:F9 CYC:1112
F933  A9 40     LDA #$40                        A:55 X:AA Y:71 P:E4 SP:F9 CYC:1115
F935  38        SEC                             A:40 X:AA Y:71 P:64 SP:F9 CYC:1117
F936  60        RTS                             A:40 X:AA Y:71 P:65 SP:F9 CYC:1119
CBB4  E9 40     SBC #$40                        A:40 X:AA Y:71 P:65 SP:FB CYC:1125
CBB6  20 37 F9  JSR $F937                       A:00 X:AA Y:71 P:27 SP:FB CYC:1127
F937  30 0B     BMI $F944                       A:00 X:AA Y:71 P:27 SP:F9 CYC:1133
F939  90 09     BCC $F944                       A:00 X:AA Y:71 P:27 SP:F9 CYC:1135
F93B  D0 07     BNE $F944                       A:00 X:AA Y:71 P:27 SP:F9 CYC:1137
F93D  70 05     BVS $F944                       A:00 X:AA Y:71 P:27 SP:F9 CYC:1139
F93F  C9 00     CMP #$00                        A:00 X:AA Y:71 P:27 SP:F9 CYC:1141
F941  D0 01     BNE $F944                       A:00 X:AA Y:71 P:27 SP:F9 CYC:1143
F943  60        RTS                             A:00 X:AA Y:71 P:27 SP:F9 CYC:1145
CBB9  C8        INY                             A:00 X:AA Y:71 P:27 SP:FB CYC:1151
CBBA  20 47 F9  JSR $F947                       A:00 X:AA Y:72 P:25 SP:FB CYC:1153
F947  B8        CLV                             A:00 X:AA Y:72 P:25 SP:F9 CYC:1159
F948  38        SEC                             A:00 X:AA Y:72 P:25 SP:F9 CYC:1161
F949  A9 40     LDA #$40                        A:00 X:AA Y:72 P:25 SP:F9 CYC:1163
F94B  60        RTS                             A:40 X:AA Y:72 P:25 SP:F9 CYC:1165
CBBD  E9 3F     SBC #$3F                        A:40 X:AA Y:72 P:25 SP:FB CYC:1171
CBBF  20 4C F9  JSR $F94C                       A:01 X:AA Y:72 P:25 SP:FB CYC:1173
F94C  F0 0B     BEQ $F959                       A:01 X:AA Y:72 P:25 SP:F9 CYC:1179
F94E  30 09     BMI $F959                       A:01 X:AA Y:72 P:25 SP:F9 CYC:1181
F950  90 07     BCC $F959                       A:01 X:AA Y:72 P:25 SP:F9 CYC:1183
F952  70 05     BVS $F959                       A:01 X:AA Y:72 P:25 SP:F9 CYC:1185
F954  C9 01     CMP #$01                        A:01 X:AA Y:72 P:25 SP:F9 CYC:1187
F956  D0 01     BNE $F959                       A:01 X:AA Y:72 P:27 SP:F9 CYC:1189
F958  60        RTS                             A:01 X:AA Y:72 P:27 SP:F9 CYC:1191
CBC2  C8        INY                             A:01 X:AA Y:72 P:27 SP:FB CYC:1197
CBC3  20 5C F9  JSR $F95C                       A:01 X:AA Y:73 P:25 SP:FB CYC:1199
F95C  A9 40     LDA #$40                        A:01 X:AA Y:73 P:25 SP:F9 CYC:1205
F95E  38        SEC                             A:40 X:AA Y:73 P:25 SP:F9 CYC:1207
F95F  24 01     BIT $01 = FF                    A:40 X:AA Y:73 P:25 SP:F9 CYC:1209
F961  60        RTS                             A:40 X:AA Y:73 P:E5 SP:F9 CYC:1212
CBC6  E9 41     SBC #$41                        A:40 X:AA Y:73 P:E5 SP:FB CYC:1218
CBC8  20 62 F9  JSR $F962                       A:FF X:AA Y:73 P:A4 SP:FB CYC:1220
F962  B0 0B     BCS $F96F                       A:FF X:AA Y:73 P:A4 SP:F9 CYC:1226
F964  F0 09     BEQ $F96F                       A:FF X:AA Y:73 P:A4 SP:F9 CYC:1228
F966  10 07     BPL $F96F                       A:FF X:AA Y:73 P:A4 SP:F9 CYC:1230
F968  70 05     BVS $F96F                       A:FF X:AA Y:73 P:A4 SP:F9 CYC:1232
F96A  C9 FF     CMP #$FF                        A:FF X:AA Y:73 P:A4 SP:F9 CYC:1234
F96C  D0 01     BNE $F96F                       A:FF X:AA Y:73 P:27 SP:F9 CYC:1236
F96E  60        RTS                             A:FF X:AA Y:73 P:27 SP:F9 CYC:1238
CBCB  C8        INY                             A:FF X:AA Y:73 P:27 SP:FB CYC:1244
CBCC  20 72 F9  JSR $F972                       A:FF X:AA Y:74 P:25 SP:FB CYC:1246
F972  18        CLC                             A:FF X:AA Y:74 P:25 SP:F9 CYC:1252
F973  A9 80     LDA #$80                        A:FF X:AA Y:74 P:24 SP:F9 CYC:1254
F975  60        RTS                             A:80 X:AA Y:74 P:A4 SP:F9 CYC:1256
CBCF  E9 00     SBC #$00                        A:80 X:AA Y:74 P:A4 SP:FB CYC:1262
CBD1  20 76 F9  JSR $F976                       A:7F X:AA Y:74 P:65 SP:FB CYC:1264
F976  90 05     BCC $F97D                       A:7F X:AA Y:74 P:65 SP:F9 CYC:1270
F978  C9 7F     CMP #$7F                        A:7F X:AA Y:74 P:65 SP:F9 CYC:1272
F97A  D0 01     BNE $F97D                       A:7F X:AA Y:74 P:67 SP:F9 CYC:1274
F97C  60        RTS                             A:7F X:AA Y:74 P:67 SP:F9 CYC:1276
CBD4  C8        INY                             A:7F X:AA Y:74 P:67 SP:FB CYC:1282
CBD5  20 80 F9  JSR $F980                       A:7F X:AA Y:75 P:65 SP:FB CYC:1284
F980  38        SEC                             A:7F X:AA Y:75 P:65 SP:F9 CYC:1290
F981  A9 81     LDA #$81                        A:7F X:AA Y:75 P:65 SP:F9 CYC:1292
F983  60        RTS                             A:81 X:AA Y:75 P:E5 SP:F9 CYC:1294
CBD8  E9 7F     SBC #$7F                        A:81 X:AA Y:75 P:E5 SP:FB CYC:1300
CBDA  20 84 F9  JSR $F984                       A:02 X:AA Y:75 P:65 SP:FB CYC:1302
F984  50 07     BVC $F98D                       A:02 X:AA Y:75 P:65 SP:F9 CYC:1308
F986  90 05     BCC $F98D                       A:02 X:AA Y:75 P:65 SP:F9 CYC:1310
F988  C9 02     CMP #$02                        A:02 X:AA Y:75 P:65 SP:F9 CYC:1312
F98A  D0 01     BNE $F98D                       A:02 X:AA Y:75 P:67 SP:F9 CYC:1314
F98C  60        RTS                             A:02 X:AA Y:75 P:67 SP:F9 CYC:1316
CBDD  60        RTS                             A:02 X:AA Y:75 P:67 SP:FB CYC:1322
C606  20 DE CB  JSR $CBDE                       A:02 X:AA Y:75 P:67 SP:FD CYC:1328
CBDE  EA        NOP                             A:02 X:AA Y:75 P:67 SP:FB CYC:1334
CBDF  A9 FF     LDA #$FF                        A:02 X:AA Y:75 P:67 SP:FB CYC:1336
CBE1  85 01     STA $01 = FF                    A:FF X:AA Y:75 P:E5 SP:FB CYC:1338
CBE3  A9 44     LDA #$44                        A:FF X:AA Y:75 P:E5 SP:FB CYC:1341
CBE5  A2 55     LDX #$55                        A:44 X:AA Y:75 P:65 SP:FB CYC:1343
CBE7  A0 66     LDY #$66                        A:44 X:55 Y:75 P:65 SP:FB CYC:1345
CBE9  E8        INX                             A:44 X:55 Y:66 P:65 SP:FB CYC:1347
CBEA  88        DEY                             A:44 X:56 Y:66 P:65 SP:FB CYC:1349
CBEB  E0 56     CPX #$56                        A:44 X:56 Y:65 P:65 SP:FB CYC:1351
CBED  D0 21     BNE $CC10                       A:44 X:56 Y:65 P:67 SP:FB CYC:1353
CBEF  C0 65     CPY #$65                        A:44 X:56 Y:65 P:67 SP:FB CYC:1355
CBF1  D0 1D     BNE $CC10                       A:44 X:56 Y:65 P:67 SP:FB CYC:1357
CBF3  E8        INX                             A:44 X:56 Y:65 P:67 SP:FB CYC:1359
CBF4  E8        INX                             A:44 X:57 Y:65 P:65 SP:FB CYC:1361
CBF5  88        DEY                             A:44 X:58 Y:65 P:65 SP:FB CYC:1363
CBF6  88        DEY                             A:44 X:58 Y:64 P:65 SP:FB CYC:1365
CBF7  E0 58     CPX #$58                        A:44 X:58 Y:63 P:65 SP:FB CYC:1367
CBF9  D0 15     BNE $CC10                       A:44 X:58 Y:63 P:67 SP:FB CYC:1369
CBFB  C0 63     CPY #$63                        A:44 X:58 Y:63 P:67 SP:FB CYC:1371
CBFD  D0 11     BNE $CC10                       A:44 X:58 Y:63 P:67 SP:FB CYC:1373
CBFF  CA        DEX                             A:44 X:58 Y:63 P:67 SP:FB CYC:1375
CC00  C8        INY                             A:44 X:57 Y:63 P:65 SP:FB CYC:1377
CC01  E0 57     CPX #$57                        A:44 X:57 Y:64 P:65 SP:FB CYC:1379
CC03  D0 0B     BNE $CC10                       A:44 X:57 Y:64 P:67 SP:FB CYC:1381
CC05  C0 64     CPY #$64                        A:44 X:57 Y:64 P:67 SP:FB CYC:1383
CC07  D0 07     BNE $CC10                       A:44 X:57 Y:64 P:67 SP:FB CYC:1385
CC09  C9 44     CMP #$44                        A:44 X:57 Y:64 P:67 SP:FB CYC:1387
CC0B  D0 03     BNE $CC10                       A:44 X:57 Y:64 P:67 SP:FB CYC:1389
CC0D  4C 14 CC  JMP $CC14                       A:44 X:57 Y:64 P:67 SP:FB CYC:1391
CC14  EA        NOP                             A:44 X:57 Y:64 P:67 SP:FB CYC:1394
CC15  38        SEC                             A:44 X:57 Y:64 P:67 SP:FB CYC:1396
CC16  A2 69     LDX #$69                        A:44 X:57 Y:64 P:67 SP:FB CYC:1398
CC18  A9 96     LDA #$96                        A:44 X:69 Y:64 P:65 SP:FB CYC:1400
CC1A  24 01     BIT $01 = FF                    A:96 X:69 Y:64 P:E5 SP:FB CYC:1402
CC1C  A0 FF     LDY #$FF                        A:96 X:69 Y:64 P:E5 SP:FB CYC:1405
CC1E  C8        INY                             A:96 X:69 Y:FF P:E5 SP:FB CYC:1407
CC1F  D0 3D     BNE $CC5E                       A:96 X:69 Y:00 P:67 SP:FB CYC:1409
CC21  30 3B     BMI $CC5E                       A:96 X:69 Y:00 P:67 SP:FB CYC:1411
CC23  90 39     BCC $CC5E                       A:96 X:69 Y:00 P:67 SP:FB CYC:1413
CC25  50 37     BVC $CC5E                       A:96 X:69 Y:00 P:67 SP:FB CYC:1415
CC27  C0 00     CPY #$00                        A:96 X:69 Y:00 P:67 SP:FB CYC:1417
CC29  D0 33     BNE $CC5E                       A:96 X:69 Y:00 P:67 SP:FB CYC:1419
CC2B  C8        INY                             A:96 X:69 Y:00 P:67 SP:FB CYC:1421
CC2C  F0 30     BEQ $CC5E                       A:96 X:69 Y:01 P:65 SP:FB CYC:1423
CC2E  30 2E     BMI $CC5E                       A:96 X:69 Y:01 P:65 SP:FB CYC:1425
CC30  90 2C     BCC $CC5E                       A:96 X:69 Y:01 P:65 SP:FB CYC:1427
CC32  50 2A     BVC $CC5E                       A:96 X:69 Y:01 P:65 SP:FB CYC:1429
CC34  18        CLC                             A:96 X:69 Y:01 P:65 SP:FB CYC:1431
CC35  B8        CLV                             A:96 X:69 Y:01 P:64 SP:FB CYC:1433
CC36  A0 00     LDY #$00                        A:96 X:69 Y:01 P:24 SP:FB CYC:1435
CC38  88        DEY                             A:96 X:69 Y:00 P:26 SP:FB CYC:1437
CC39  F0 23     BEQ $CC5E                       A:96 X:69 Y:FF P:A4 SP:FB CYC:1439
CC3B  10 21     BPL $CC5E                       A:96 X:69 Y:FF P:A4 SP:FB CYC:1441
CC3D  B0 1F     BCS $CC5E                       A:96 X:69 Y:FF P:A4 SP:FB CYC:1443
CC3F  70 1D     BVS $CC5E                       A:96 X:69 Y:FF P:A4 SP:FB CYC:1445
CC41  C0 FF     CPY #$FF                        A:96 X:69 Y:FF P:A4 SP:FB CYC:1447
CC43  D0 19     BNE $CC5E                       A:96 X:69 Y:FF P:27 SP:FB CYC:1449
CC45  18        CLC                             A:96 X:69 Y:FF P:27 SP:FB CYC:1451
CC46  88        DEY                             A:96 X:69 Y:FF P:26 SP:FB CYC:1453
CC47  F0 15     BEQ $CC5E                       A:96 X:69 Y:FE P:A4 SP:FB CYC:1455
CC49  10 13     BPL $CC5E                       A:96 X:69 Y:FE P:A4 SP:FB CYC:1457
CC4B  B0 11     BCS $CC5E                       A:96 X:69 Y:FE P:A4 SP:FB CYC:1459
CC4D  70 0F     BVS $CC5E                       A:96 X:69 Y:FE P:A4 SP:FB CYC:1461
CC4F  C0 FE     CPY #$FE                        A:96 X:69 Y:FE P:A4 SP:FB CYC:1463
CC51  D0 0B     BNE $CC5E                       A:96 X:69 Y:FE P:27 SP:FB CYC:1465
CC53  C9 96     CMP #$96                        A:96 X:69 Y:FE P:27 SP:FB CYC:1467
CC55  D0 07     BNE $CC5E                       A:96 X:69 Y:FE P:27 SP:FB CYC:1469
CC57  E0 69     CPX #$69                        A:96 X:69 Y:FE P:27 SP:FB CYC:1471
CC59  D0 03     BNE $CC5E                       A:96 X:69 Y:FE P:27 SP:FB CYC:1473
CC5B  4C 62 CC  JMP $CC62                       A:96 X:69 Y:FE P:27 SP:FB CYC:1475
CC62  EA        NOP                             A:96 X:69 Y:FE P:27 SP:FB CYC:1478
CC63  38        SEC                             A:96 X:69 Y:FE P:27 SP:FB CYC:1480
CC64  A0 69     LDY #$69                        A:96 X:69 Y:FE P:27 SP:FB CYC:1482
CC66  A9 96     LDA #$96                        A:96 X:69 Y:69 P:25 SP:FB CYC:1484
CC68  24 01     BIT $01 = FF                    A:96 X:69 Y:69 P:A5 SP:FB CYC:1486
CC6A  A2 FF     LDX #$FF                        A:96 X:69 Y:69 P:E5 SP:FB CYC:1489
CC6C  E8        INX                             A:96 X:FF Y:69 P:E5 SP:FB CYC:1491
CC6D  D0 3D     BNE $CCAC                       A:96 X:00 Y:69 P:67 SP:FB CYC:1493
CC6F  30 3B     BMI $CCAC                       A:96 X:00 Y:69 P:67 SP:FB CYC:1495
CC71  90 39     BCC $CCAC                       A:96 X:00 Y:69 P:67 SP:FB CYC:1497
CC73  50 37     BVC $CCAC                       A:96 X:00 Y:69 P:67 SP:FB CYC:1499
CC75  E0 00     CPX #$00                        A:96 X:00 Y:69 P:67 SP:FB CYC:1501
CC77  D0 33     BNE $CCAC                       A:96 X:00 Y:69 P:67 SP:FB CYC:1503
CC79  E8        INX                             A:96 X:00 Y:69 P:67 SP:FB CYC:1505
CC7A  F0 30     BEQ $CCAC                       A:96 X:01 Y:69 P:65 SP:FB CYC:1507
CC7C  30 2E     BMI $CCAC                       A:96 X:01 Y:69 P:65 SP:FB CYC:1509
CC7E  90 2C     BCC $CCAC                       A:96 X:01 Y:69 P:65 SP:FB CYC:1511
CC80  50 2A     BVC $CCAC                       A:96 X:01 Y:69 P:65 SP:FB CYC:1513
CC82  18        CLC                             A:96 X:01 Y:69 P:65 SP:FB CYC:1515
CC83  B8        CLV                             A:96 X:01 Y:69 P:64 SP:FB CYC:1517
CC84  A2 00     LDX #$00                        A:96 X:01 Y:69 P:24 SP:FB CYC:1519
CC86  CA        DEX                             A:96 X:00 Y:69 P:26 SP:FB CYC:1521
CC87  F0 23     BEQ $CCAC                       A:96 X:FF Y:69 P:A4 SP:FB CYC:1523
CC89  10 21     BPL $CCAC                       A:96 X:FF Y:69 P:A4 SP:FB CYC:1525
CC8B  B0 1F     BCS $CCAC                       A:96 X:FF Y:69 P:A4 SP:FB CYC:1527
CC8D  70 1D     BVS $CCAC                       A:96 X:FF Y:69 P:A4 SP:FB CYC:1529
CC8F  E0 FF     CPX #$FF                        A:96 X:FF Y:69 P:A4 SP:FB CYC:1531
CC91  D0 19     BNE $CCAC                       A:96 X:FF Y:69 P:27 SP:FB CYC:1533
CC93  18        CLC                             A:96 X:FF Y:69 P:27 SP:FB CYC:1535
CC94  CA        DEX                             A:96 X:FF Y:69 P:26 SP:FB CYC:1537
CC95  F0 15     BEQ $CCAC                       A:96 X:FE Y:69 P:A4 SP:FB CYC:1539
CC97  10 13     BPL $CCAC                       A:96 X:FE Y:69 P:A4 SP:FB CYC:1541
CC99  B0 11     BCS $CCAC                       A:96 X:FE Y:69 P:A4 SP:FB CYC:1543
CC9B  70 0F     BVS $CCAC                       A:96 X:FE Y:69 P:A4 SP:FB CYC:1545
CC9D  E0 FE     CPX #$FE                        A:96 X:FE Y:69 P:A4 SP:FB CYC:1547
CC9F  D0 0B     BNE $CCAC                       A:96 X:FE Y:69 P:27 SP:FB CYC:1549
CCA1  C9 96     CMP #$96                        A:96 X:FE Y:69 P:27 SP:FB CYC:1551
CCA3  D0 07     BNE $CCAC                       A:96 X:FE Y:69 P:27 SP:FB CYC:1553
CCA5  C0 69     CPY #$69                        A:96 X:FE Y:69 P:27 SP:FB CYC:1555
CCA7  D0 03     BNE $CCAC                       A:96 X:FE Y:69 P:27 SP:FB CYC:1557
CCA9  4C B0 CC  JMP $CCB0                       A:96 X:FE Y:69 P:27 SP:FB CYC:1559
CCB0  EA        NOP                             A:96 X:FE Y:69 P:27 SP:FB CYC:1562
CCB1  A9 85     LDA #$85                        A:96 X:FE Y:69 P:27 SP:FB CYC:1564
CCB3  A2 34     LDX #$34                        A:85 X:FE Y:69 P:A5 SP:FB CYC:1566
CCB5  A0 99     LDY #$99                        A:85 X:34 Y:69 P:25 SP:FB CYC:1568
CCB7  18        CLC                             A:85 X:34 Y:99 P:A5 SP:FB CYC:1570
CCB8  24 01     BIT $01 = FF                    A:85 X:34 Y:99 P:A4 SP:FB CYC:1572
CCBA  A8        TAY                             A:85 X:34 Y:99 P:E4 SP:FB CYC:1575
CCBB  F0 2E     BEQ $CCEB                       A:85 X:34 Y:85 P:E4 SP:FB CYC:1577
CCBD  B0 2C     BCS $CCEB                       A:85 X:34 Y:85 P:E4 SP:FB CYC:1579
CCBF  50 2A     BVC $CCEB                       A:85 X:34 Y:85 P:E4 SP:FB CYC:1581
CCC1  10 28     BPL $CCEB                       A:85 X:34 Y:85 P:E4 SP:FB CYC:1583
CCC3  C9 85     CMP #$85                        A:85 X:34 Y:85 P:E4 SP:FB CYC:1585
CCC5  D0 24     BNE $CCEB                       A:85 X:34 Y:85 P:67 SP:FB CYC:1587
CCC7  E0 34     CPX #$34                        A:85 X:34 Y:85 P:67 SP:FB CYC:1589
CCC9  D0 20     BNE $CCEB                       A:85 X:34 Y:85 P:67 SP:FB CYC:1591
CCCB  C0 85     CPY #$85                        A:85 X:34 Y:85 P:67 SP:FB CYC:1593
CCCD  D0 1C     BNE $CCEB                       A:85 X:34 Y:85 P:67 SP:FB CYC:1595
CCCF  A9 00     LDA #$00                        A:85 X:34 Y:85 P:67 SP:FB CYC:1597
CCD1  38        SEC                             A:00 X:34 Y:85 P:67 SP:FB CYC:1599
CCD2  B8        CLV                             A:00 X:34 Y:85 P:67 SP:FB CYC:1601
CCD3  A8        TAY                             A:00 X:34 Y:85 P:27 SP:FB CYC:1603
CCD4  D0 15     BNE $CCEB                       A:00 X:34 Y:00 P:27 SP:FB CYC:1605
CCD6  90 13     BCC $CCEB                       A:00 X:34 Y:00 P:27 SP:FB CYC:1607
CCD8  70 11     BVS $CCEB                       A:00 X:34 Y:00 P:27 SP:FB CYC:1609
CCDA  30 0F     BMI $CCEB                       A:00 X:34 Y:00 P:27 SP:FB CYC:1611
CCDC  C9 00     CMP #$00                        A:00 X:34 Y:00 P:27 SP:FB CYC:1613
CCDE  D0 0B     BNE $CCEB                       A:00 X:34 Y:00 P:27 SP:FB CYC:1615
CCE0  E0 34     CPX #$34                        A:00 X:34 Y:00 P:27 SP:FB CYC:1617
CCE2  D0 07     BNE $CCEB                       A:00 X:34 Y:00 P:27 SP:FB CYC:1619
CCE4  C0 00     CPY #$00                        A:00 X:34 Y:00 P:27 SP:FB CYC:1621
CCE6  D0 03     BNE $CCEB                       A:00 X:34 Y:00 P:27 SP:FB CYC:1623
CCE8  4C EF CC  JMP $CCEF                       A:00 X:34 Y:00 P:27 SP:FB CYC:1625
CCEF  EA        NOP                             A:00 X:34 Y:00 P:27 SP:FB CYC:1628
CCF0  A9 85     LDA #$85                        A:00 X:34 Y:00 P:27 SP:FB CYC:1630
CCF2  A2 34     LDX #$34                        A:85 X:34 Y:00 P:A5 SP:FB CYC:1632
CCF4  A0 99     LDY #$99                        A:85 X:34 Y:00 P:25 SP:FB CYC:1634
CCF6  18        CLC                             A:85 X:34 Y:99 P:A5 SP:FB CYC:1636
CCF7  24 01     BIT $01 = FF                    A:85 X:34 Y:99 P:A4 SP:FB CYC:1638
CCF9  AA        TAX                             A:85 X:34 Y:99 P:E4 SP:FB CYC:1641
CCFA  F0 2E     BEQ $CD2A                       A:85 X:85 Y:99 P:E4 SP:FB CYC:1643
CCFC  B0 2C     BCS $CD2A                       A:85 X:85 Y:99 P:E4 SP:FB CYC:1645
CCFE  50 2A     BVC $CD2A                       A:85 X:85 Y:99 P:E4 SP:FB CYC:1647
CD00  10 28     BPL $CD2A                       A:85 X:85 Y:99 P:E4 SP:FB CYC:1649
CD02  C9 85     CMP #$85                        A:85 X:85 Y:99 P:E4 SP:FB CYC:1651
CD04  D0 24     BNE $CD2A                       A:85 X:85 Y:99 P:67 SP:FB CYC:1653
CD06  E0 85     CPX #$85                        A:85 X:85 Y:99 P:67 SP:FB CYC:1655
CD08  D0 20     BNE $CD2A                       A:85 X:85 Y:99 P:67 SP:FB CYC:1657
CD0A  C0 99     CPY #$99                        A:85 X:85 Y:99 P:67 SP:FB CYC:1659
CD0C  D0 1C     BNE $CD2A                       A:85 X:85 Y:99 P:67 SP:FB CYC:1661
CD0E  A9 00     LDA #$00                        A:85 X:85 Y:99 P:67 SP:FB CYC:1663
CD10  38        SEC                             A:00 X:85 Y:99 P:67 SP:FB CYC:1665
CD11  B8        CLV                             A:00 X:85 Y:99 P:67 SP:FB CYC:1667
CD12  AA        TAX                             A:00 X:85 Y:99 P:27 SP:FB CYC:1669
CD13  D0 15     BNE $CD2A                       A:00 X:00 Y:99 P:27 SP:FB CYC:1671
CD15  90 13     BCC $CD2A                       A:00 X:00 Y:99 P:27 SP:FB CYC:1673
CD17  70 11     BVS $CD2A                       A:00 X:00 Y:99 P:27 SP:FB CYC:1675
CD19  30 0F     BMI $CD2A                       A:00 X:00 Y:99 P:27 SP:FB CYC:1677
CD1B  C9 00     CMP #$00                        A:00 X:00 Y:99 P:27 SP:FB CYC:1679
CD1D  D0 0B     BNE $CD2A                       A:00 X:00 Y:99 P:27 SP:FB CYC:1681
CD1F  E0 00     CPX #$00                        A:00 X:00 Y:99 P:27 SP:FB CYC:1683
CD21  D0 07     BNE $CD2A                       A:00 X:00 Y:99 P:27 SP:FB CYC:1685
CD23  C0 99     CPY #$99                        A:00 X:00 Y:99 P:27 SP:FB CYC:1687
CD25  D0 03     BNE $CD2A                       A:00 X:00 Y:99 P:27 SP:FB CYC:1689
CD27  4C 2E CD  JMP $CD2E                       A:00 X:00 Y:99 P:27 SP:FB CYC:1691
CD2E  EA        NOP                             A:00 X:00 Y:99 P:27 SP:FB CYC:1694
CD2F  A9 85     LDA #$85                        A:00 X:00 Y:99 P:27 SP:FB CYC:1696
CD31  A2 34     LDX #$34                        A:85 X:00 Y:99 P:A5 SP:FB CYC:1698
CD33  A0 99     LDY #$99                        A:85 X:34 Y:99 P:25 SP:FB CYC:1700
CD35  18        CLC                             A:85 X:34 Y:99 P:A5 SP:FB CYC:1702
CD36  24 01     BIT $01 = FF                    A:85 X:34 Y:99 P:A4 SP:FB CYC:1704
CD38  98        TYA                             A:85 X:34 Y:99 P:E4 SP:FB CYC:1707
CD39  F0 2E     BEQ $CD69                       A:99 X:34 Y:99 P:E4 SP:FB CYC:1709
CD3B  B0 2C     BCS $CD69                       A:99 X:34 Y:99 P:E4 SP:FB CYC:1711
CD3D  50 2A     BVC $CD69                       A:99 X:34 Y:99 P:E4 SP:FB CYC:1713
CD3F  10 28     BPL $CD69                       A:99 X:34 Y:99 P:E4 SP:FB CYC:1715
CD41  C9 99     CMP #$99                        A:99 X:34 Y:99 P:E4 SP:FB CYC:1717
CD43  D0 24     BNE $CD69                       A:99 X:34 Y:99 P:67 SP:FB CYC:1719
CD45  E0 34     CPX #$34                        A:99 X:34 Y:99 P:67 SP:FB CYC:1721
CD47  D0 20     BNE $CD69                       A:99 X:34 Y:99 P:67 SP:FB CYC:1723
CD49  C0 99     CPY #$99                        A:99 X:34 Y:99 P:67 SP:FB CYC:1725
CD4B  D0 1C     BNE $CD69                       A:99 X:34 Y:99 P:67 SP:FB CYC:1727
CD4D  A0 00     LDY #$00                        A:99 X:34 Y:99 P:67 SP:FB CYC:1729
CD4F  38        SEC                             A:99 X:34 Y:00 P:67 SP:FB CYC:1731
CD50  B8        CLV                             A:99 X:34 Y:00 P:67 SP:FB CYC:1733
CD51  98        TYA                             A:99 X:34 Y:00 P:27 SP:FB CYC:1735
CD52  D0 15     BNE $CD69                       A:00 X:34 Y:00 P:27 SP:FB CYC:1737
CD54  90 13     BCC $CD69                       A:00 X:34 Y:00 P:27 SP:FB CYC:1739
CD56  70 11     BVS $CD69                       A:00 X:34 Y:00 P:27 SP:FB CYC:1741
CD58  30 0F     BMI $CD69                       A:00 X:34 Y:00 P:27 SP:FB CYC:1743
CD5A  C9 00     CMP #$00                        A:00 X:34 Y:00 P:27 SP:FB CYC:1745
CD5C  D0 0B     BNE $CD69                       A:00 X:34 Y:00 P:27 SP:FB CYC:1747
CD5E  E0 34     CPX #$34                        A:00 X:34 Y:00 P:27 SP:FB CYC:1749
CD60  D0 07     BNE $CD69                       A:00 X:34 Y:00 P:27 SP:FB CYC:1751
CD62  C0 00     CPY #$00                        A:00 X:34 Y:00 P:27 SP:FB CYC:1753
CD64  D0 03     BNE $CD69                       A:00 X:34 Y:00 P:27 SP:FB CYC:1755
CD66  4C 6D CD  JMP $CD6D                       A:00 X:34 Y:00 P:27 SP:FB CYC:1757
CD6D  EA        NOP                             A:00 X:34 Y:00 P:27 SP:FB CYC:1760
CD6E  A9 85     LDA #$85                        A:00 X:34 Y:00 P:27 SP:FB CYC:1762
CD70  A2 34     LDX #$34                        A:85 X:34 Y:00 P:A5 SP:FB CYC:1764
CD72  A0 99     LDY #$99                        A:85 X:34 Y:00 P:25 SP:FB CYC:1766
CD74  18        CLC                             A:85 X:34 Y:99 P:A5 SP:FB CYC:1768
CD75  24 01     BIT $01 = FF                    A:85 X:34 Y:99 P:A4 SP:FB CYC:1770
CD77  8A        TXA                             A:85 X:34 Y:99 P:E4 SP:FB CYC:1773
CD78  F0 2E     BEQ $CDA8                       A:34 X:34 Y:99 P:64 SP:FB CYC:1775
CD7A  B0 2C     BCS $CDA8                       A:34 X:34 Y:99 P:64 SP:FB CYC:1777
CD7C  50 2A     BVC $CDA8                       A:34 X:34 Y:99 P:64 SP:FB CYC:1779
CD7E  30 28     BMI $CDA8                       A:34 X:34 Y:99 P:64 SP:FB CYC:1781
CD80  C9 34     CMP #$34                        A:34 X:34 Y:99 P:64 SP:FB CYC:1783
CD82  D0 24     BNE $CDA8                       A:34 X:34 Y:99 P:67 SP:FB CYC:1785
CD84  E0 34     CPX #$34                        A:34 X:34 Y:99 P:67 SP:FB CYC:1787
CD86  D0 20     BNE $CDA8                       A:34 X:34 Y:99 P:67 SP:FB CYC:1789
CD88  C0 99     CPY #$99                        A:34 X:34 Y:99 P:67 SP:FB CYC:1791
CD8A  D0 1C     BNE $CDA8                       A:34 X:34 Y:99 P:67 SP:FB CYC:1793
CD8C  A2 00     LDX #$00                        A:34 X:34 Y:99 P:67 SP:FB CYC:1795
CD8E  38        SEC                             A:34 X:00 Y:99 P:67 SP:FB CYC:1797
CD8F  B8        CLV                             A:34 X:00 Y:99 P:67 SP:FB CYC:1799
CD90  8A        TXA                             A:34 X:00 Y:99 P:27 SP:FB CYC:1801
CD91  D0 15     BNE $CDA8                       A:00 X:00 Y:99 P:27 SP:FB CYC:1803
CD93  90 13     BCC $CDA8                       A:00 X:00 Y:99 P:27 SP:FB CYC:1805
CD95  70 11     BVS $CDA8                       A:00 X:00 Y:99 P:27 SP:FB CYC:1807
CD97  30 0F     BMI $CDA8                       A:00 X:00 Y:99 P:27 SP:FB CYC:1809
CD99  C9 00     CMP #$00                        A:00 X:00 Y:99 P:27 SP:FB CYC:1811
CD9B  D0 0B     BNE $CDA8                       A:00 X:00 Y:99 P:27 SP:FB CYC:1813
CD9D  E0 00     CPX #$00                        A:00 X:00 Y:99 P:27 SP:FB CYC:1815
CD9F  D0 07     BNE $CDA8                       A:00 X:00 Y:99 P:27 SP:FB CYC:1817
CDA1  C0 99     CPY #$99                        A:00 X:00 Y:99 P:27 SP:FB CYC:1819
CDA3  D0 03     BNE $CDA8                       A:00 X:00 Y:99 P:27 SP:FB CYC:1821
CDA5  4C AC CD  JMP $CDAC                       A:00 X:00 Y:99 P:27 SP:FB CYC:1823
CDAC  EA        NOP                             A:00 X:00 Y:99 P:27 SP:FB CYC:1826
CDAD  BA        TSX                             A:00 X:00 Y:99 P:27 SP:FB CYC:1828
CDAE  8E FF 07  STX $07FF = 00                  A:00 X:FB Y:99 P:A5 SP:FB CYC:1830
CDB1  A0 33     LDY #$33                        A:00 X:FB Y:99 P:A5 SP:FB CYC:1834
CDB3  A2 69     LDX #$69                        A:00 X:FB Y:33 P:25 SP:FB CYC:1836
CDB5  A9 84     LDA #$84                        A:00 X:69 Y:33 P:25 SP:FB CYC:1838
CDB7  18        CLC                             A:84 X:69 Y:33 P:A5 SP:FB CYC:1840
CDB8  24 01     BIT $01 = FF                    A:84 X:69 Y:33 P:A4 SP:FB CYC:1842
CDBA  9A        TXS                             A:84 X:69 Y:33 P:E4 SP:FB CYC:1845
CDBB  F0 32     BEQ $CDEF                       A:84 X:69 Y:33 P:E4 SP:69 CYC:1847
CDBD  10 30     BPL $CDEF                       A:84 X:69 Y:33 P:E4 SP:69 CYC:1849
CDBF  B0 2E     BCS $CDEF                       A:84 X:69 Y:33 P:E4 SP:69 CYC:1851
CDC1  50 2C     BVC $CDEF                       A:84 X:69 Y:33 P:E4 SP:69 CYC:1853
CDC3  C9 84     CMP #$84                        A:84 X:69 Y:33 P:E4 SP:69 CYC:1855
CDC5  D0 28     BNE $CDEF                       A:84 X:69 Y:33 P:67 SP:69 CYC:1857
CDC7  E0 69     CPX #$69                        A:84 X:69 Y:33 P:67 SP:69 CYC:1859
CDC9  D0 24     BNE $CDEF                       A:84 X:69 Y:33 P:67 SP:69 CYC:1861
CDCB  C0 33     CPY #$33                        A:84 X:69 Y:33 P:67 SP:69 CYC:1863
CDCD  D0 20     BNE $CDEF                       A:84 X:69 Y:33 P:67 SP:69 CYC:1865
CDCF  A0 01     LDY #$01                        A:84 X:69 Y:33 P:67 SP:69 CYC:1867
CDD1  A9 04     LDA #$04                        A:84 X:69 Y:01 P:65 SP:69 CYC:1869
CDD3  38        SEC                             A:04 X:69 Y:01 P:65 SP:69 CYC:1871
CDD4  B8        CLV                             A:04 X:69 Y:01 P:65 SP:69 CYC:1873
CDD5  A2 00     LDX #$00                        A:04 X:69 Y:01 P:25 SP:69 CYC:1875
CDD7  BA        TSX                             A:04 X:00 Y:01 P:27 SP:69 CYC:1877
CDD8  F0 15     BEQ $CDEF                       A:04 X:69 Y:01 P:25 SP:69 CYC:1879
CDDA  30 13     BMI $CDEF                       A:04 X:69 Y:01 P:25 SP:69 CYC:1881
CDDC  90 11     BCC $CDEF                       A:04 X:69 Y:01 P:25 SP:69 CYC:1883
CDDE  70 0F     BVS $CDEF                       A:04 X:69 Y:01 P:25 SP:69 CYC:1885
CDE0  E0 69     CPX #$69                        A:04 X:69 Y:01 P:25 SP:69 CYC:1887
CDE2  D0 0B     BNE $CDEF                       A:04 X:69 Y:01 P:27 SP:69 CYC:1889
CDE4  C9 04     CMP #$04                        A:04 X:69 Y:01 P:27 SP:69 CYC:1891
CDE6  D0 07     BNE $CDEF                       A:04 X:69 Y:01 P:27 SP:69 CYC:1893
CDE8  C0 01     CPY #$01                        A:04 X:69 Y:01 P:27 SP:69 CYC:1895
CDEA  D0 03     BNE $CDEF                       A:04 X:69 Y:01 P:27 SP:69 CYC:1897
CDEC  4C F3 CD  JMP $CDF3                       A:04 X:69 Y:01 P:27 SP:69 CYC:1899
CDF3  AE FF 07  LDX $07FF = FB                  A:04 X:69 Y:01 P:27 SP:69 CYC:1902
CDF6  9A        TXS                             A:04 X:FB Y:01 P:A5 SP:69 CYC:1906
CDF7  60        RTS                             A:04 X:FB Y:01 P:A5 SP:FB CYC:1908
C609  20 F8 CD  JSR $CDF8                       A:04 X:FB Y:01 P:A5 SP:FD CYC:1914
CDF8  A9 FF     LDA #$FF                        A:04 X:FB Y:01 P:A5 SP:FB CYC:1920
CDFA  85 01     STA $01 = FF                    A:FF X:FB Y:01 P:A5 SP:FB CYC:1922
CDFC  BA        TSX                             A:FF X:FB Y:01 P:A5 SP:FB CYC:1925
CDFD  8E FF 07  STX $07FF = FB                  A:FF X:FB Y:01 P:A5 SP:FB CYC:1927
CE00  EA        NOP                             A:FF X:FB Y:01 P:A5 SP:FB CYC:1931
CE01  A2 80     LDX #$80                        A:FF X:FB Y:01 P:A5 SP:FB CYC:1933
CE03  9A        TXS                             A:FF X:80 Y:01 P:A5 SP:FB CYC:1935
CE04  A9 33     LDA #$33                        A:FF X:80 Y:01 P:A5 SP:80 CYC:1937
CE06  48        PHA                             A:33 X:80 Y:01 P:25 SP:80 CYC:1939
CE07  A9 69     LDA #$69                        A:33 X:80 Y:01 P:25 SP:7F CYC:1942
CE09  48        PHA                             A:69 X:80 Y:01 P:25 SP:7F CYC:1944
CE0A  BA        TSX                             A:69 X:80 Y:01 P:25 SP:7E CYC:1947
CE0B  E0 7E     CPX #$7E                        A:69 X:7E Y:01 P:25 SP:7E CYC:1949
CE0D  D0 20     BNE $CE2F                       A:69 X:7E Y:01 P:27 SP:7E CYC:1951
CE0F  68        PLA                             A:69 X:7E Y:01 P:27 SP:7E CYC:1953
CE10  C9 69     CMP #$69                        A:69 X:7E Y:01 P:25 SP:7F CYC:1957
CE12  D0 1B     BNE $CE2F                       A:69 X:7E Y:01 P:27 SP:7F CYC:1959
CE14  68        PLA                             A:69 X:7E Y:01 P:27 SP:7F CYC:1961
CE15  C9 33     CMP #$33                        A:33 X:7E Y:01 P:25 SP:80 CYC:1965
CE17  D0 16     BNE $CE2F                       A:33 X:7E Y:01 P:27 SP:80 CYC:1967
CE19  BA        TSX                             A:33 X:7E Y:01 P:27 SP:80 CYC:1969
CE1A  E0 80     CPX #$80                        A:33 X:80 Y:01 P:A5 SP:80 CYC:1971
CE1C  D0 11     BNE $CE2F                       A:33 X:80 Y:01 P:27 SP:80 CYC:1973
CE1E  AD 80 01  LDA $0180 = 33                  A:33 X:80 Y:01 P:27 SP:80 CYC:1975
CE21  C9 33     CMP #$33                        A:33 X:80 Y:01 P:25 SP:80 CYC:1979
CE23  D0 0A     BNE $CE2F                       A:33 X:80 Y:01 P:27 SP:80 CYC:1981
CE25  AD 7F 01  LDA $017F = 69                  A:33 X:80 Y:01 P:27 SP:80 CYC:1983
CE28  C9 69     CMP #$69                        A:69 X:80 Y:01 P:25 SP:80 CYC:1987
CE2A  D0 03     BNE $CE2F                       A:69 X:80 Y:01 P:27 SP:80 CYC:1989
CE2C  4C 33 CE  JMP $CE33                       A:69 X:80 Y:01 P:27 SP:80 CYC:1991
CE33  EA        NOP                             A:69 X:80 Y:01 P:27 SP:80 CYC:1994
CE34  A2 80     LDX #$80                        A:69 X:80 Y:01 P:27 SP:80 CYC:1996
CE36  9A        TXS                             A:69 X:80 Y:01 P:A5 SP:80 CYC:1998
CE37  20 3D CE  JSR $CE3D                       A:69 X:80 Y:01 P:A5 SP:80 CYC:2000
CE3D  BA        TSX                             A:69 X:80 Y:01 P:A5 SP:7E CYC:2006
CE3E  E0 7E     CPX #$7E                        A:69 X:7E Y:01 P:25 SP:7E CYC:2008
CE40  D0 19     BNE $CE5B                       A:69 X:7E Y:01 P:27 SP:7E CYC:2010
CE42  68        PLA                             A:69 X:7E Y:01 P:27 SP:7E CYC:2012
CE43  68        PLA                             A:39 X:7E Y:01 P:25 SP:7F CYC:2016
CE44  BA        TSX                             A:CE X:7E Y:01 P:A5 SP:80 CYC:2020
CE45  E0 80     CPX #$80                        A:CE X:80 Y:01 P:A5 SP:80 CYC:2022
CE47  D0 12     BNE $CE5B                       A:CE X:80 Y:01 P:27 SP:80 CYC:2024
CE49  A9 00     LDA #$00                        A:CE X:80 Y:01 P:27 SP:80 CYC:2026
CE4B  20 4E CE  JSR $CE4E                       A:00 X:80 Y:01 P:27 SP:80 CYC:2028
CE4E  68        PLA                             A:00 X:80 Y:01 P:27 SP:7E CYC:2034
CE4F  C9 4D     CMP #$4D                        A:4D X:80 Y:01 P:25 SP:7F CYC:2038
CE51  D0 08     BNE $CE5B                       A:4D X:80 Y:01 P:27 SP:7F CYC:2040
CE53  68        PLA                             A:4D X:80 Y:01 P:27 SP:7F CYC:2042
CE54  C9 CE     CMP #$CE                        A:CE X:80 Y:01 P:A5 SP:80 CYC:2046
CE56  D0 03     BNE $CE5B                       A:CE X:80 Y:01 P:27 SP:80 CYC:2048
CE58  4C 5F CE  JMP $CE5F                       A:CE X:80 Y:01 P:27 SP:80 CYC:2050
CE5F  EA        NOP                             A:CE X:80 Y:01 P:27 SP:80 CYC:2053
CE60  A9 CE     LDA #$CE                        A:CE X:80 Y:01 P:27 SP:80 CYC:2055
CE62  48        PHA                             A:CE X:80 Y:01 P:A5 SP:80 CYC:2057
CE63  A9 66     LDA #$66                        A:CE X:80 Y:01 P:A5 SP:7F CYC:2060
CE65  48        PHA                             A:66 X:80 Y:01 P:25 SP:7F CYC:2062
CE66  60        RTS                             A:66 X:80 Y:01 P:25 SP:7E CYC:2065
CE67  A2 77     LDX #$77                        A:66 X:80 Y:01 P:25 SP:80 CYC:2071
CE69  A0 69     LDY #$69                        A:66 X:77 Y:01 P:25 SP:80 CYC:2073
CE6B  18        CLC                             A:66 X:77 Y:69 P:25 SP:80 CYC:2075
CE6C  24 01     BIT $01 = FF                    A:66 X:77 Y:69 P:24 SP:80 CYC:2077
CE6E  A9 83     LDA #$83                        A:66 X:77 Y:69 P:E4 SP:80 CYC:2080
CE70  20 66 CE  JSR $CE66                       A:83 X:77 Y:69 P:E4 SP:80 CYC:2082
CE66  60        RTS                             A:83 X:77 Y:69 P:E4 SP:7E CYC:2088
CE73  F0 24     BEQ $CE99                       A:83 X:77 Y:69 P:E4 SP:80 CYC:2094
CE75  10 22     BPL $CE99                       A:83 X:77 Y:69 P:E4 SP:80 CYC:2096
CE77  B0 20     BCS $CE99                       A:83 X:77 Y:69 P:E4 SP:80 CYC:2098
CE79  50 1E     BVC $CE99                       A:83 X:77 Y:69 P:E4 SP:80 CYC:2100
CE7B  C9 83     CMP #$83                        A:83 X:77 Y:69 P:E4 SP:80 CYC:2102
CE7D  D0 1A     BNE $CE99                       A:83 X:77 Y:69 P:67 SP:80 CYC:2104
CE7F  C0 69     CPY #$69                        A:83 X:77 Y:69 P:67 SP:80 CYC:2106
CE81  D0 16     BNE $CE99                       A:83 X:77 Y:69 P:67 SP:80 CYC:2108
CE83  E0 77     CPX #$77                        A:83 X:77 Y:69 P:67 SP:80 CYC:2110
CE85  D0 12     BNE $CE99                       A:83 X:77 Y:69 P:67 SP:80 CYC:2112
CE87  38        SEC                             A:83 X:77 Y:69 P:67 SP:80 CYC:2114
CE88  B8        CLV                             A:83 X:77 Y:69 P:67 SP:80 CYC:2116
CE89  A9 00     LDA #$00                        A:83 X:77 Y:69 P:27 SP:80 CYC:2118
CE8B  20 66 CE  JSR $CE66                       A:00 X:77 Y:69 P:27 SP:80 CYC:2120
CE66  60        RTS                             A:00 X:77 Y:69 P:27 SP:7E CYC:2126
CE8E  D0 09     BNE $CE99                       A:00 X:77 Y:69 P:27 SP:80 CYC:2132
CE90  30 07     BMI $CE99                       A:00 X:77 Y:69 P:27 SP:80 CYC:2134
CE92  90 05     BCC $CE99                       A:00 X:77 Y:69 P:27 SP:80 CYC:2136
CE94  70 03     BVS $CE99                       A:00 X:77 Y:69 P:27 SP:80 CYC:2138
CE96  4C 9D CE  JMP $CE9D                       A:00 X:77 Y:69 P:27 SP:80 CYC:2140
CE9D  EA        NOP                             A:00 X:77 Y:69 P:27 SP:80 CYC:2143
CE9E  A9 CE     LDA #$CE                        A:00 X:77 Y:69 P:27 SP:80 CYC:2145
CEA0  48        PHA                             A:CE X:77 Y:69 P:A5 SP:80 CYC:2147
CEA1  A9 AE     LDA #$AE                        A:CE X:77 Y:69 P:A5 SP:7F CYC:2150
CEA3  48        PHA                             A:AE X:77 Y:69 P:A5 SP:7F CYC:2152
CEA4  A9 65     LDA #$65                        A:AE X:77 Y:69 P:A5 SP:7E CYC:2155
CEA6  48        PHA                             A:65 X:77 Y:69 P:25 SP:7E CYC:2157
CEA7  A9 55     LDA #$55                        A:65 X:77 Y:69 P:25 SP:7D CYC:2160
CEA9  A0 88     LDY #$88                        A:55 X:77 Y:69 P:25 SP:7D CYC:2162
CEAB  A2 99     LDX #$99                        A:55 X:77 Y:88 P:A5 SP:7D CYC:2164
CEAD  40        RTI                             A:55 X:99 Y:88 P:A5 SP:7D CYC:2166
CEAE  30 35     BMI $CEE5                       A:55 X:99 Y:88 P:65 SP:80 CYC:2172
CEB0  50 33     BVC $CEE5                       A:55 X:99 Y:88 P:65 SP:80 CYC:2174
CEB2  F0 31     BEQ $CEE5                       A:55 X:99 Y:88 P:65 SP:80 CYC:2176
CEB4  90 2F     BCC $CEE5                       A:55 X:99 Y:88 P:65 SP:80 CYC:2178
CEB6  C9 55     CMP #$55                        A:55 X:99 Y:88 P:65 SP:80 CYC:2180
CEB8  D0 2B     BNE $CEE5                       A:55 X:99 Y:88 P:67 SP:80 CYC:2182
CEBA  C0 88     CPY #$88                        A:55 X:99 Y:88 P:67 SP:80 CYC:2184
CEBC  D0 27     BNE $CEE5                       A:55 X:99 Y:88 P:67 SP:80 CYC:2186
CEBE  E0 99     CPX #$99                        A:55 X:99 Y:88 P:67 SP:80 CYC:2188
CEC0  D0 23     BNE $CEE5                       A:55 X:99 Y:88 P:67 SP:80 CYC:2190
CEC2  A9 CE     LDA #$CE                        A:55 X:99 Y:88 P:67 SP:80 CYC:2192
CEC4  48        PHA                             A:CE X:99 Y:88 P:E5 SP:80 CYC:2194
CEC5  A9 CE     LDA #$CE                        A:CE X:99 Y:88 P:E5 SP:7F CYC:2197
CEC7  48        PHA                             A:CE X:99 Y:88 P:E5 SP:7F CYC:2199
CEC8  A9 87     LDA #$87                        A:CE X:99 Y:88 P:E5 SP:7E CYC:2202
CECA  48        PHA                             A:87 X:99 Y:88 P:E5 SP:7E CYC:2204
CECB  A9 55     LDA #$55                        A:87 X:99 Y:88 P:E5 SP:7D CYC:2207
CECD  40        RTI                             A:55 X:99 Y:88 P:65 SP:7D CYC:2209
CECE  10 15     BPL $CEE5                       A:55 X:99 Y:88 P:A7 SP:80 CYC:2215
CED0  70 13     BVS $CEE5                       A:55 X:99 Y:88 P:A7 SP:80 CYC:2217
CED2  D0 11     BNE $CEE5                       A:55 X:99 Y:88 P:A7 SP:80 CYC:2219
CED4  90 0F     BCC $CEE5                       A:55 X:99 Y:88 P:A7 SP:80 CYC:2221
CED6  C9 55     CMP #$55                        A:55 X:99 Y:88 P:A7 SP:80 CYC:2223
CED8  D0 0B     BNE $CEE5                       A:55 X:99 Y:88 P:27 SP:80 CYC:2225
CEDA  C0 88     CPY #$88                        A:55 X:99 Y:88 P:27 SP:80 CYC:2227
CEDC  D0 07     BNE $CEE5                       A:55 X:99 Y:88 P:27 SP:80 CYC:2229
CEDE  E0 99     CPX #$99                        A:55 X:99 Y:88 P:27 SP:80 CYC:2231
CEE0  D0 03     BNE $CEE5                       A:55 X:99 Y:88 P:27 SP:80 CYC:2233
CEE2  4C E9 CE  JMP $CEE9                       A:55 X:99 Y:88 P:27 SP:80 CYC:2235
CEE9  AE FF 07  LDX $07FF = FB                  A:55 X:99 Y:88 P:27 SP:80 CYC:2238
CEEC  9A        TXS                             A:55 X:FB Y:88 P:A5 SP:80 CYC:2242
CEED  60        RTS                             A:55 X:FB Y:88 P:A5 SP:FB CYC:2244
C60C  20 EE CE  JSR $CEEE                       A:55 X:FB Y:88 P:A5 SP:FD CYC:2250
CEEE  A2 55     LDX #$55                        A:55 X:FB Y:88 P:A5 SP:FB CYC:2256
CEF0  A0 69     LDY #$69                        A:55 X:55 Y:88 P:25 SP:FB CYC:2258
CEF2  A9 FF     LDA #$FF                        A:55 X:55 Y:69 P:25 SP:FB CYC:2260
CEF4  85 01     STA $01 = FF                    A:FF X:55 Y:69 P:A5 SP:FB CYC:2262
CEF6  EA        NOP                             A:FF X:55 Y:69 P:A5 SP:FB CYC:2265
CEF7  24 01     BIT $01 = FF                    A:FF X:55 Y:69 P:A5 SP:FB CYC:2267
CEF9  38        SEC                             A:FF X:55 Y:69 P:E5 SP:FB CYC:2270
CEFA  A9 01     LDA #$01                        A:FF X:55 Y:69 P:E5 SP:FB CYC:2272
CEFC  4A        LSR A                           A:01 X:55 Y:69 P:65 SP:FB CYC:2274
CEFD  90 1D     BCC $CF1C                       A:00 X:55 Y:69 P:67 SP:FB CYC:2276
CEFF  D0 1B     BNE $CF1C                       A:00 X:55 Y:69 P:67 SP:FB CYC:2278
CF01  30 19     BMI $CF1C                       A:00 X:55 Y:69 P:67 SP:FB CYC:2280
CF03  50 17     BVC $CF1C                       A:00 X:55 Y:69 P:67 SP:FB CYC:2282
CF05  C9 00     CMP #$00                        A:00 X:55 Y:69 P:67 SP:FB CYC:2284
CF07  D0 13     BNE $CF1C                       A:00 X:55 Y:69 P:67 SP:FB CYC:2286
CF09  B8        CLV                             A:00 X:55 Y:69 P:67 SP:FB CYC:2288
CF0A  A9 AA     LDA #$AA                        A:00 X:55 Y:69 P:27 SP:FB CYC:2290
CF0C  4A        LSR A                           A:AA X:55 Y:69 P:A5 SP:FB CYC:2292
CF0D  B0 0D     BCS $CF1C                       A:55 X:55 Y:69 P:24 SP:FB CYC:2294
CF0F  F0 0B     BEQ $CF1C                       A:55 X:55 Y:69 P:24 SP:FB CYC:2296
CF11  30 09     BMI $CF1C                       A:55 X:55 Y:69 P:24 SP:FB CYC:2298
CF13  70 07     BVS $CF1C                       A:55 X:55 Y:69 P:24 SP:FB CYC:2300
CF15  C9 55     CMP #$55                        A:55 X:55 Y:69 P:24 SP:FB CYC:2302
CF17  D0 03     BNE $CF1C                       A:55 X:55 Y:69 P:27 SP:FB CYC:2304
CF19  4C 20 CF  JMP $CF20                       A:55 X:55 Y:69 P:27 SP:FB CYC:2306
CF20  EA        NOP                             A:55 X:55 Y:69 P:27 SP:FB CYC:2309
CF21  24 01     BIT $01 = FF                    A:55 X:55 Y:69 P:27 SP:FB CYC:2311
CF23  38        SEC                             A:55 X:55 Y:69 P:E5 SP:FB CYC:2314
CF24  A9 80     LDA #$80                        A:55 X:55 Y:69 P:E5 SP:FB CYC:2316
CF26  0A        ASL A                           A:80 X:55 Y:69 P:E5 SP:FB CYC:2318
CF27  90 1E     BCC $CF47                       A:00 X:55 Y:69 P:67 SP:FB CYC:2320
CF29  D0 1C     BNE $CF47                       A:00 X:55 Y:69 P:67 SP:FB CYC:2322
CF2B  30 1A     BMI $CF47                       A:00 X:55 Y:69 P:67 SP:FB CYC:2324
CF2D  50 18     BVC $CF47                       A:00 X:55 Y:69 P:67 SP:FB CYC:2326
CF2F  C9 00     CMP #$00                        A:00 X:55 Y:69 P:67 SP:FB CYC:2328
CF31  D0 14     BNE $CF47                       A:00 X:55 Y:69 P:67 SP:FB CYC:2330
CF33  B8        CLV                             A:00 X:55 Y:69 P:67 SP:FB CYC:2332
CF34  38        SEC                             A:00 X:55 Y:69 P:27 SP:FB CYC:2334
CF35  A9 55     LDA #$55                        A:00 X:55 Y:69 P:27 SP:FB CYC:2336
CF37  0A        ASL A                           A:55 X:55 Y:69 P:25 SP:FB CYC:2338
CF38  B0 0D     BCS $CF47                       A:AA X:55 Y:69 P:A4 SP:FB CYC:2340
CF3A  F0 0B     BEQ $CF47                       A:AA X:55 Y:69 P:A4 SP:FB CYC:2342
CF3C  10 09     BPL $CF47                       A:AA X:55 Y:69 P:A4 SP:FB CYC:2344
CF3E  70 07     BVS $CF47                       A:AA X:55 Y:69 P:A4 SP:FB CYC:2346
CF40  C9 AA     CMP #$AA                        A:AA X:55 Y:69 P:A4 SP:FB CYC:2348
CF42  D0 03     BNE $CF47                       A:AA X:55 Y:69 P:27 SP:FB CYC:2350
CF44  4C 4B CF  JMP $CF4B                       A:AA X:55 Y:69 P:27 SP:FB CYC:2352
CF4B  EA        NOP                             A:AA X:55 Y:69 P:27 SP:FB CYC:2355
CF4C  24 01     BIT $01 = FF                    A:AA X:55 Y:69 P:27 SP:FB CYC:2357
CF4E  38        SEC                             A:AA X:55 Y:69 P:E5 SP:FB CYC:2360
CF4F  A9 01     LDA #$01                        A:AA X:55 Y:69 P:E5 SP:FB CYC:2362
CF51  6A        ROR A                           A:01 X:55 Y:69 P:65 SP:FB CYC:2364
CF52  90 1E     BCC $CF72                       A:80 X:55 Y:69 P:E5 SP:FB CYC:2366
CF54  F0 1C     BEQ $CF72                       A:80 X:55 Y:69 P:E5 SP:FB CYC:2368
CF56  10 1A     BPL $CF72                       A:80 X:55 Y:69 P:E5 SP:FB CYC:2370
CF58  50 18     BVC $CF72                       A:80 X:55 Y:69 P:E5 SP:FB CYC:2372
CF5A  C9 80     CMP #$80                        A:80 X:55 Y:69 P:E5 SP:FB CYC:2374
CF5C  D0 14     BNE $CF72                       A:80 X:55 Y:69 P:67 SP:FB CYC:2376
CF5E  B8        CLV                             A:80 X:55 Y:69 P:67 SP:FB CYC:2378
CF5F  18        CLC                             A:80 X:55 Y:69 P:27 SP:FB CYC:2380
CF60  A9 55     LDA #$55                        A:80 X:55 Y:69 P:26 SP:FB CYC:2382
CF62  6A        ROR A                           A:55 X:55 Y:69 P:24 SP:FB CYC:2384
CF63  90 0D     BCC $CF72                       A:2A X:55 Y:69 P:25 SP:FB CYC:2386
CF65  F0 0B     BEQ $CF72                       A:2A X:55 Y:69 P:25 SP:FB CYC:2388
CF67  30 09     BMI $CF72                       A:2A X:55 Y:69 P:25 SP:FB CYC:2390
CF69  70 07     BVS $CF72                       A:2A X:55 Y:69 P:25 SP:FB CYC:2392
CF6B  C9 2A     CMP #$2A                        A:2A X:55 Y:69 P:25 SP:FB CYC:2394
CF6D  D0 03     BNE $CF72                       A:2A X:55 Y:69 P:27 SP:FB CYC:2396
CF6F  4C 76 CF  JMP $CF76                       A:2A X:55 Y:69 P:27 SP:FB CYC:2398
CF76  EA        NOP                             A:2A X:55 Y:69 P:27 SP:FB CYC:2401
CF77  24 01     BIT $01 = FF                    A:2A X:55 Y:69 P:27 SP:FB CYC:2403
CF79  38        SEC                             A:2A X:55 Y:69 P:E5 SP:FB CYC:2406
CF7A  A9 80     LDA #$80                        A:2A X:55 Y:69 P:E5 SP:FB CYC:2408
CF7C  2A        ROL A                           A:80 X:55 Y:69 P:E5 SP:FB CYC:2410
CF7D  90 1E     BCC $CF9D                       A:01 X:55 Y:69 P:65 SP:FB CYC:2412
CF7F  F0 1C     BEQ $CF9D                       A:01 X:55 Y:69 P:65 SP:FB CYC:2414
CF81  30 1A     BMI $CF9D                       A:01 X:55 Y:69 P:65 SP:FB CYC:2416
CF83  50 18     BVC $CF9D                       A:01 X:55 Y:69 P:65 SP:FB CYC:2418
CF85  C9 01     CMP #$01                        A:01 X:55 Y:69 P:65 SP:FB CYC:2420
CF87  D0 14     BNE $CF9D                       A:01 X:55 Y:69 P:67 SP:FB CYC:2422
CF89  B8        CLV                             A:01 X:55 Y:69 P:67 SP:FB CYC:2424
CF8A  18        CLC                             A:01 X:55 Y:69 P:27 SP:FB CYC:2426
CF8B  A9 55     LDA #$55                        A:01 X:55 Y:69 P:26 SP:FB CYC:2428
CF8D  2A        ROL A                           A:55 X:55 Y:69 P:24 SP:FB CYC:2430
CF8E  B0 0D     BCS $CF9D                       A:AA X:55 Y:69 P:A4 SP:FB CYC:2432
CF90  F0 0B     BEQ $CF9D                       A:AA X:55 Y:69 P:A4 SP:FB CYC:2434
CF92  10 09     BPL $CF9D                       A:AA X:55 Y:69 P:A4 SP:FB CYC:2436
CF94  70 07     BVS $CF9D                       A:AA X:55 Y:69 P:A4 SP:FB CYC:2438
CF96  C9 AA     CMP #$AA                        A:AA X:55 Y:69 P:A4 SP:FB CYC:2440
CF98  D0 03     BNE $CF9D                       A:AA X:55 Y:69 P:27 SP:FB CYC:2442
CF9A  4C A1 CF  JMP $CFA1                       A:AA X:55 Y:69 P:27 SP:FB CYC:2444
CFA1  60        RTS                             A:AA X:55 Y:69 P:27 SP:FB CYC:2447
C60F  20 A2 CF  JSR $CFA2                       A:AA X:55 Y:69 P:27 SP:FD CYC:2453
CFA2  A5 00     LDA $00 = 00                    A:AA X:55 Y:69 P:27 SP:FB CYC:2459
CFA4  8D FF 07  STA $07FF = FB                  A:00 X:55 Y:69 P:27 SP:FB CYC:2462
CFA7  A9 00     LDA #$00                        A:00 X:55 Y:69 P:27 SP:FB CYC:2466
CFA9  85 80     STA $80 = 00                    A:00 X:55 Y:69 P:27 SP:FB CYC:2468
CFAB  A9 02     LDA #$02                        A:00 X:55 Y:69 P:27 SP:FB CYC:2471
CFAD  85 81     STA $81 = 00                    A:02 X:55 Y:69 P:25 SP:FB CYC:2473
CFAF  A9 FF     LDA #$FF                        A:02 X:55 Y:69 P:25 SP:FB CYC:2476
CFB1  85 01     STA $01 = FF                    A:FF X:55 Y:69 P:A5 SP:FB CYC:2478
CFB3  A9 00     LDA #$00                        A:FF X:55 Y:69 P:A5 SP:FB CYC:2481
CFB5  85 82     STA $82 = 00                    A:00 X:55 Y:69 P:27 SP:FB CYC:2483
CFB7  A9 03     LDA #$03                        A:00 X:55 Y:69 P:27 SP:FB CYC:2486
CFB9  85 83     STA $83 = 00                    A:03 X:55 Y:69 P:25 SP:FB CYC:2488
CFBB  85 84     STA $84 = 00                    A:03 X:55 Y:69 P:25 SP:FB CYC:2491
CFBD  A9 00     LDA #$00                        A:03 X:55 Y:69 P:25 SP:FB CYC:2494
CFBF  85 FF     STA $FF = 00                    A:00 X:55 Y:69 P:27 SP:FB CYC:2496
CFC1  A9 04     LDA #$04                        A:00 X:55 Y:69 P:27 SP:FB CYC:2499
CFC3  85 00     STA $00 = 00                    A:04 X:55 Y:69 P:25 SP:FB CYC:2501
CFC5  A9 5A     LDA #$5A                        A:04 X:55 Y:69 P:25 SP:FB CYC:2504
CFC7  8D 00 02  STA $0200 = 00                  A:5A X:55 Y:69 P:25 SP:FB CYC:2506
CFCA  A9 5B     LDA #$5B                        A:5A X:55 Y:69 P:25 SP:FB CYC:2510
CFCC  8D 00 03  STA $0300 = 00                  A:5B X:55 Y:69 P:25 SP:FB CYC:2512
CFCF  A9 5C     LDA #$5C                        A:5B X:55 Y:69 P:25 SP:FB CYC:2516
CFD1  8D 03 03  STA $0303 = 00                  A:5C X:55 Y:69 P:25 SP:FB CYC:2518
CFD4  A9 5D     LDA #$5D                        A:5C X:55 Y:69 P:25 SP:FB CYC:2522
CFD6  8D 00 04  STA $0400 = 00                  A:5D X:55 Y:69 P:25 SP:FB CYC:2524
CFD9  A2 00     LDX #$00                        A:5D X:55 Y:69 P:25 SP:FB CYC:2528
CFDB  A1 80     LDA ($80,X) @ 80 = 0200 = 5A    A:5D X:00 Y:69 P:27 SP:FB CYC:2530
CFDD  C9 5A     CMP #$5A                        A:5A X:00 Y:69 P:25 SP:FB CYC:2536
CFDF  D0 1F     BNE $D000                       A:5A X:00 Y:69 P:27 SP:FB CYC:2538
CFE1  E8        INX                             A:5A X:00 Y:69 P:27 SP:FB CYC:2540
CFE2  E8        INX                             A:5A X:01 Y:69 P:25 SP:FB CYC:2542
CFE3  A1 80     LDA ($80,X) @ 82 = 0300 = 5B    A:5A X:02 Y:69 P:25 SP:FB CYC:2544
CFE5  C9 5B     CMP #$5B                        A:5B X:02 Y:69 P:25 SP:FB CYC:2550
CFE7  D0 17     BNE $D000                       A:5B X:02 Y:69 P:27 SP:FB CYC:2552
CFE9  E8        INX                             A:5B X:02 Y:69 P:27 SP:FB CYC:2554
CFEA  A1 80     LDA ($80,X) @ 83 = 0303 = 5C    A:5B X:03 Y:69 P:25 SP:FB CYC:2556
CFEC  C9 5C     CMP #$5C                        A:5C X:03 Y:69 P:25 SP:FB CYC:2562
CFEE  D0 10     BNE $D000                       A:5C X:03 Y:69 P:27 SP:FB CYC:2564
CFF0  A2 00     LDX #$00                        A:5C X:03 Y:69 P:27 SP:FB CYC:2566
CFF2  A1 FF     LDA ($FF,X) @ FF = 0400 = 5D    A:5C X:00 Y:69 P:27 SP:FB CYC:2568
CFF4  C9 5D     CMP #$5D                        A:5D X:00 Y:69 P:25 SP:FB CYC:2574
CFF6  D0 08     BNE $D000                       A:5D X:00 Y:69 P:27 SP:FB CYC:2576
CFF8  A2 81     LDX #$81                        A:5D X:00 Y:69 P:27 SP:FB CYC:2578
CFFA  A1 FF     LDA ($FF,X) @ 80 = 0200 = 5A    A:5D X:81 Y:69 P:A5 SP:FB CYC:2580
CFFC  C9 5A     CMP #$5A                        A:5A X:81 Y:69 P:25 SP:FB CYC:2586
CFFE  F0 05     BEQ $D005                       A:5A X:81 Y:69 P:27 SP:FB CYC:2588
D005  A9 AA     LDA #$AA                        A:5A X:81 Y:69 P:27 SP:FB CYC:2590
D007  A2 00     LDX #$00                        A:AA X:81 Y:69 P:A5 SP:FB CYC:2592
D009  81 80     STA ($80,X) @ 80 = 0200 = 5A    A:AA X:00 Y:69 P:27 SP:FB CYC:2594
D00B  E8        INX                             A:AA X:00 Y:69 P:27 SP:FB CYC:2600
D00C  E8        INX                             A:AA X:01 Y:69 P:25 SP:FB CYC:2602
D00D  A9 AB     LDA #$AB                        A:AA X:02 Y:69 P:25 SP:FB CYC:2604
D00F  81 80     STA ($80,X) @ 82 = 0300 = 5B    A:AB X:02 Y:69 P:A5 SP:FB CYC:2606
D011  E8        INX                             A:AB X:02 Y:69 P:A5 SP:FB CYC:2612
D012  A9 AC     LDA #$AC                        A:AB X:03 Y:69 P:25 SP:FB CYC:2614
D014  81 80     STA ($80,X) @ 83 = 0303 = 5C    A:AC X:03 Y:69 P:A5 SP:FB CYC:2616
D016  A2 00     LDX #$00                        A:AC X:03 Y:69 P:A5 SP:FB CYC:2622
D018  A9 AD     LDA #$AD                        A:AC X:00 Y:69 P:27 SP:FB CYC:2624
D01A  81 FF     STA ($FF,X) @ FF = 0400 = 5D    A:AD X:00 Y:69 P:A5 SP:FB CYC:2626
D01C  AD 00 02  LDA $0200 = AA                  A:AD X:00 Y:69 P:A5 SP:FB CYC:2632
D01F  C9 AA     CMP #$AA                        A:AA X:00 Y:69 P:A5 SP:FB CYC:2636
D021  D0 15     BNE $D038                       A:AA X:00 Y:69 P:27 SP:FB CYC:2638
D023  AD 00 03  LDA $0300 = AB                  A:AA X:00 Y:69 P:27 SP:FB CYC:2640
D026  C9 AB     CMP #$AB                        A:AB X:00 Y:69 P:A5 SP:FB CYC:2644
D028  D0 0E     BNE $D038                       A:AB X:00 Y:69 P:27 SP:FB CYC:2646
D02A  AD 03 03  LDA $0303 = AC                  A:AB X:00 Y:69 P:27 SP:FB CYC:2648
D02D  C9 AC     CMP #$AC                        A:AC X:00 Y:69 P:A5 SP:FB CYC:2652
D02F  D0 07     BNE $D038                       A:AC X:00 Y:69 P:27 SP:FB CYC:2654
D031  AD 00 04  LDA $0400 = AD                  A:AC X:00 Y:69 P:27 SP:FB CYC:2656
D034  C9 AD     CMP #$AD                        A:AD X:00 Y:69 P:A5 SP:FB CYC:2660
D036  F0 05     BEQ $D03D                       A:AD X:00 Y:69 P:27 SP:FB CYC:2662
D03D  AD FF 07  LDA $07FF = 00                  A:AD X:00 Y:69 P:27 SP:FB CYC:2664
D040  85 00     STA $00 = 04                    A:00 X:00 Y:69 P:27 SP:FB CYC:2668
D042  A9 00     LDA #$00                        A:00 X:00 Y:69 P:27 SP:FB CYC:2671
D044  8D 00 03  STA $0300 = AB                  A:00 X:00 Y:69 P:27 SP:FB CYC:2673
D047  A9 AA     LDA #$AA                        A:00 X:00 Y:69 P:27 SP:FB CYC:2677
D049  8D 00 02  STA $0200 = AA                  A:AA X:00 Y:69 P:A5 SP:FB CYC:2679
D04C  A2 00     LDX #$00                        A:AA X:00 Y:69 P:A5 SP:FB CYC:2683
D04E  A0 5A     LDY #$5A                        A:AA X:00 Y:69 P:27 SP:FB CYC:2685
D050  20 B6 F7  JSR $F7B6                       A:AA X:00 Y:5A P:25 SP:FB CYC:2687
F7B6  18        CLC                             A:AA X:00 Y:5A P:25 SP:F9 CYC:2693
F7B7  A9 FF     LDA #$FF                        A:AA X:00 Y:5A P:24 SP:F9 CYC:2695
F7B9  85 01     STA $01 = FF                    A:FF X:00 Y:5A P:A4 SP:F9 CYC:2697
F7BB  24 01     BIT $01 = FF                    A:FF X:00 Y:5A P:A4 SP:F9 CYC:2700
F7BD  A9 55     LDA #$55                        A:FF X:00 Y:5A P:E4 SP:F9 CYC:2703
F7BF  60        RTS                             A:55 X:00 Y:5A P:64 SP:F9 CYC:2705
D053  01 80     ORA ($80,X) @ 80 = 0200 = AA    A:55 X:00 Y:5A P:64 SP:FB CYC:2711
D055  20 C0 F7  JSR $F7C0                       A:FF X:00 Y:5A P:E4 SP:FB CYC:2717
F7C0  B0 09     BCS $F7CB                       A:FF X:00 Y:5A P:E4 SP:F9 CYC:2723
F7C2  10 07     BPL $F7CB                       A:FF X:00 Y:5A P:E4 SP:F9 CYC:2725
F7C4  C9 FF     CMP #$FF                        A:FF X:00 Y:5A P:E4 SP:F9 CYC:2727
F7C6  D0 03     BNE $F7CB                       A:FF X:00 Y:5A P:67 SP:F9 CYC:2729
F7C8  50 01     BVC $F7CB                       A:FF X:00 Y:5A P:67 SP:F9 CYC:2731
F7CA  60        RTS                             A:FF X:00 Y:5A P:67 SP:F9 CYC:2733
D058  C8        INY                             A:FF X:00 Y:5A P:67 SP:FB CYC:2739
D059  20 CE F7  JSR $F7CE                       A:FF X:00 Y:5B P:65 SP:FB CYC:2741
F7CE  38        SEC                             A:FF X:00 Y:5B P:65 SP:F9 CYC:2747
F7CF  B8        CLV                             A:FF X:00 Y:5B P:65 SP:F9 CYC:2749
F7D0  A9 00     LDA #$00                        A:FF X:00 Y:5B P:25 SP:F9 CYC:2751
F7D2  60        RTS                             A:00 X:00 Y:5B P:27 SP:F9 CYC:2753
D05C  01 82     ORA ($82,X) @ 82 = 0300 = 00    A:00 X:00 Y:5B P:27 SP:FB CYC:2759
D05E  20 D3 F7  JSR $F7D3                       A:00 X:00 Y:5B P:27 SP:FB CYC:2765
F7D3  D0 07     BNE $F7DC                       A:00 X:00 Y:5B P:27 SP:F9 CYC:2771
F7D5  70 05     BVS $F7DC                       A:00 X:00 Y:5B P:27 SP:F9 CYC:2773
F7D7  90 03     BCC $F7DC                       A:00 X:00 Y:5B P:27 SP:F9 CYC:2775
F7D9  30 01     BMI $F7DC                       A:00 X:00 Y:5B P:27 SP:F9 CYC:2777
F7DB  60        RTS                             A:00 X:00 Y:5B P:27 SP:F9 CYC:2779
D061  C8        INY                             A:00 X:00 Y:5B P:27 SP:FB CYC:2785
D062  20 DF F7  JSR $F7DF                       A:00 X:00 Y:5C P:25 SP:FB CYC:2787
F7DF  18        CLC                             A:00 X:00 Y:5C P:25 SP:F9 CYC:2793
F7E0  24 01     BIT $01 = FF                    A:00 X:00 Y:5C P:24 SP:F9 CYC:2795
F7E2  A9 55     LDA #$55                        A:00 X:00 Y:5C P:E6 SP:F9 CYC:2798
F7E4  60        RTS                             A:55 X:00 Y:5C P:64 SP:F9 CYC:2800
D065  21 80     AND ($80,X) @ 80 = 0200 = AA    A:55 X:00 Y:5C P:64 SP:FB CYC:2806
D067  20 E5 F7  JSR $F7E5                       A:00 X:00 Y:5C P:66 SP:FB CYC:2812
F7E5  D0 07     BNE $F7EE                       A:00 X:00 Y:5C P:66 SP:F9 CYC:2818
F7E7  50 05     BVC $F7EE                       A:00 X:00 Y:5C P:66 SP:F9 CYC:2820
F7E9  B0 03     BCS $F7EE                       A:00 X:00 Y:5C P:66 SP:F9 CYC:2822
F7EB  30 01     BMI $F7EE                       A:00 X:00 Y:5C P:66 SP:F9 CYC:2824
F7ED  60        RTS                             A:00 X:00 Y:5C P:66 SP:F9 CYC:2826
D06A  C8        INY                             A:00 X:00 Y:5C P:66 SP:FB CYC:2832
D06B  A9 EF     LDA #$EF                        A:00 X:00 Y:5D P:64 SP:FB CYC:2834
D06D  8D 00 03  STA $0300 = 00                  A:EF X:00 Y:5D P:E4 SP:FB CYC:2836
D070  20 F1 F7  JSR $F7F1                       A:EF X:00 Y:5D P:E4 SP:FB CYC:2840
F7F1  38        SEC                             A:EF X:00 Y:5D P:E4 SP:F9 CYC:2846
F7F2  B8        CLV                             A:EF X:00 Y:5D P:E5 SP:F9 CYC:2848
F7F3  A9 F8     LDA #$F8                        A:EF X:00 Y:5D P:A5 SP:F9 CYC:2850
F7F5  60        RTS                             A:F8 X:00 Y:5D P:A5 SP:F9 CYC:2852
D073  21 82     AND ($82,X) @ 82 = 0300 = EF    A:F8 X:00 Y:5D P:A5 SP:FB CYC:2858
D075  20 F6 F7  JSR $F7F6                       A:E8 X:00 Y:5D P:A5 SP:FB CYC:2864
F7F6  90 09     BCC $F801                       A:E8 X:00 Y:5D P:A5 SP:F9 CYC:2870
F7F8  10 07     BPL $F801                       A:E8 X:00 Y:5D P:A5 SP:F9 CYC:2872
F7FA  C9 E8     CMP #$E8                        A:E8 X:00 Y:5D P:A5 SP:F9 CYC:2874
F7FC  D0 03     BNE $F801                       A:E8 X:00 Y:5D P:27 SP:F9 CYC:2876
F7FE  70 01     BVS $F801                       A:E8 X:00 Y:5D P:27 SP:F9 CYC:2878
F800  60        RTS                             A:E8 X:00 Y:5D P:27 SP:F9 CYC:2880
D078  C8        INY                             A:E8 X:00 Y:5D P:27 SP:FB CYC:2886
D079  20 04 F8  JSR $F804                       A:E8 X:00 Y:5E P:25 SP:FB CYC:2888
F804  18        CLC                             A:E8 X:00 Y:5E P:25 SP:F9 CYC:2894
F805  24 01     BIT $01 = FF                    A:E8 X:00 Y:5E P:24 SP:F9 CYC:2896
F807  A9 5F     LDA #$5F                        A:E8 X:00 Y:5E P:E4 SP:F9 CYC:2899
F809  60        RTS                             A:5F X:00 Y:5E P:64 SP:F9 CYC:2901
D07C  41 80     EOR ($80,X) @ 80 = 0200 = AA    A:5F X:00 Y:5E P:64 SP:FB CYC:2907
D07E  20 0A F8  JSR $F80A                       A:F5 X:00 Y:5E P:E4 SP:FB CYC:2913
F80A  B0 09     BCS $F815                       A:F5 X:00 Y:5E P:E4 SP:F9 CYC:2919
F80C  10 07     BPL $F815                       A:F5 X:00 Y:5E P:E4 SP:F9 CYC:2921
F80E  C9 F5     CMP #$F5                        A:F5 X:00 Y:5E P:E4 SP:F9 CYC:2923
F810  D0 03     BNE $F815                       A:F5 X:00 Y:5E P:67 SP:F9 CYC:2925
F812  50 01     BVC $F815                       A:F5 X:00 Y:5E P:67 SP:F9 CYC:2927
F814  60        RTS                             A:F5 X:00 Y:5E P:67 SP:F9 CYC:2929
D081  C8        INY                             A:F5 X:00 Y:5E P:67 SP:FB CYC:2935
D082  A9 70     LDA #$70                        A:F5 X:00 Y:5F P:65 SP:FB CYC:2937
D084  8D 00 03  STA $0300 = EF                  A:70 X:00 Y:5F P:65 SP:FB CYC:2939
D087  20 18 F8  JSR $F818                       A:70 X:00 Y:5F P:65 SP:FB CYC:2943
F818  38        SEC                             A:70 X:00 Y:5F P:65 SP:F9 CYC:2949
F819  B8        CLV                             A:70 X:00 Y:5F P:65 SP:F9 CYC:2951
F81A  A9 70     LDA #$70                        A:70 X:00 Y:5F P:25 SP:F9 CYC:2953
F81C  60        RTS                             A:70 X:00 Y:5F P:25 SP:F9 CYC:2955
D08A  41 82     EOR ($82,X) @ 82 = 0300 = 70    A:70 X:00 Y:5F P:25 SP:FB CYC:2961
D08C  20 1D F8  JSR $F81D                       A:00 X:00 Y:5F P:27 SP:FB CYC:2967
F81D  D0 07     BNE $F826                       A:00 X:00 Y:5F P:27 SP:F9 CYC:2973
F81F  70 05     BVS $F826                       A:00 X:00 Y:5F P:27 SP:F9 CYC:2975
F821  90 03     BCC $F826                       A:00 X:00 Y:5F P:27 SP:F9 CYC:2977
F823  30 01     BMI $F826                       A:00 X:00 Y:5F P:27 SP:F9 CYC:2979
F825  60        RTS                             A:00 X:00 Y:5F P:27 SP:F9 CYC:2981
D08F  C8        INY                             A:00 X:00 Y:5F P:27 SP:FB CYC:2987
D090  A9 69     LDA #$69                        A:00 X:00 Y:60 P:25 SP:FB CYC:2989
D092  8D 00 02  STA $0200 = AA                  A:69 X:00 Y:60 P:25 SP:FB CYC:2991
D095  20 29 F8  JSR $F829                       A:69 X:00 Y:60 P:25 SP:FB CYC:2995
F829  18        CLC                             A:69 X:00 Y:60 P:25 SP:F9 CYC:3001
F82A  24 01     BIT $01 = FF                    A:69 X:00 Y:60 P:24 SP:F9 CYC:3003
F82C  A9 00     LDA #$00                        A:69 X:00 Y:60 P:E4 SP:F9 CYC:3006
F82E  60        RTS                             A:00 X:00 Y:60 P:66 SP:F9 CYC:3008
D098  61 80     ADC ($80,X) @ 80 = 0200 = 69    A:00 X:00 Y:60 P:66 SP:FB CYC:3014
D09A  20 2F F8  JSR $F82F                       A:69 X:00 Y:60 P:24 SP:FB CYC:3020
F82F  30 09     BMI $F83A                       A:69 X:00 Y:60 P:24 SP:F9 CYC:3026
F831  B0 07     BCS $F83A                       A:69 X:00 Y:60 P:24 SP:F9 CYC:3028
F833  C9 69     CMP #$69                        A:69 X:00 Y:60 P:24 SP:F9 CYC:3030
F835  D0 03     BNE $F83A                       A:69 X:00 Y:60 P:27 SP:F9 CYC:3032
F837  70 01     BVS $F83A                       A:69 X:00 Y:60 P:27 SP:F9 CYC:3034
F839  60        RTS                             A:69 X:00 Y:60 P:27 SP:F9 CYC:3036
D09D  C8        INY                             A:69 X:00 Y:60 P:27 SP:FB CYC:3042
D09E  20 3D F8  JSR $F83D                       A:69 X:00 Y:61 P:25 SP:FB CYC:3044
F83D  38        SEC                             A:69 X:00 Y:61 P:25 SP:F9 CYC:3050
F83E  24 01     BIT $01 = FF                    A:69 X:00 Y:61 P:25 SP:F9 CYC:3052
F840  A9 00     LDA #$00                        A:69 X:00 Y:61 P:E5 SP:F9 CYC:3055
F842  60        RTS                             A:00 X:00 Y:61 P:67 SP:F9 CYC:3057
D0A1  61 80     ADC ($80,X) @ 80 = 0200 = 69    A:00 X:00 Y:61 P:67 SP:FB CYC:3063
D0A3  20 43 F8  JSR $F843                       A:6A X:00 Y:61 P:24 SP:FB CYC:3069
F843  30 09     BMI $F84E                       A:6A X:00 Y:61 P:24 SP:F9 CYC:3075
F845  B0 07     BCS $F84E                       A:6A X:00 Y:61 P:24 SP:F9 CYC:3077
F847  C9 6A     CMP #$6A                        A:6A X:00 Y:61 P:24 SP:F9 CYC:3079
F849  D0 03     BNE $F84E                       A:6A X:00 Y:61 P:27 SP:F9 CYC:3081
F84B  70 01     BVS $F84E                       A:6A X:00 Y:61 P:27 SP:F9 CYC:3083
F84D  60        RTS                             A:6A X:00 Y:61 P:27 SP:F9 CYC:3085
D0A6  C8        INY                             A:6A X:00 Y:61 P:27 SP:FB CYC:3091
D0A7  A9 7F     LDA #$7F                        A:6A X:00 Y:62 P:25 SP:FB CYC:3093
D0A9  8D 00 02  STA $0200 = 69                  A:7F X:00 Y:62 P:25 SP:FB CYC:3095
D0AC  20 51 F8  JSR $F851                       A:7F X:00 Y:62 P:25 SP:FB CYC:3099
F851  38        SEC                             A:7F X:00 Y:62 P:25 SP:F9 CYC:3105
F852  B8        CLV                             A:7F X:00 Y:62 P:25 SP:F9 CYC:3107
F853  A9 7F     LDA #$7F                        A:7F X:00 Y:62 P:25 SP:F9 CYC:3109
F855  60        RTS                             A:7F X:00 Y:62 P:25 SP:F9 CYC:3111
D0AF  61 80     ADC ($80,X) @ 80 = 0200 = 7F    A:7F X:00 Y:62 P:25 SP:FB CYC:3117
D0B1  20 56 F8  JSR $F856                       A:FF X:00 Y:62 P:E4 SP:FB CYC:3123
F856  10 09     BPL $F861                       A:FF X:00 Y:62 P:E4 SP:F9 CYC:3129
F858  B0 07     BCS $F861                       A:FF X:00 Y:62 P:E4 SP:F9 CYC:3131
F85A  C9 FF     CMP #$FF                        A:FF X:00 Y:62 P:E4 SP:F9 CYC:3133
F85C  D0 03     BNE $F861                       A:FF X:00 Y:62 P:67 SP:F9 CYC:3135
F85E  50 01     BVC $F861                       A:FF X:00 Y:62 P:67 SP:F9 CYC:3137
F860  60        RTS                             A:FF X:00 Y:62 P:67 SP:F9 CYC:3139
D0B4  C8        INY                             A:FF X:00 Y:62 P:67 SP:FB CYC:3145
D0B5  A9 80     LDA #$80                        A:FF X:00 Y:63 P:65 SP:FB CYC:3147
D0B7  8D 00 02  STA $0200 = 7F                  A:80 X:00 Y:63 P:E5 SP:FB CYC:3149
D0BA  20 64 F8  JSR $F864                       A:80 X:00 Y:63 P:E5 SP:FB CYC:3153
F864  18        CLC                             A:80 X:00 Y:63 P:E5 SP:F9 CYC:3159
F865  24 01     BIT $01 = FF                    A:80 X:00 Y:63 P:E4 SP:F9 CYC:3161
F867  A9 7F     LDA #$7F                        A:80 X:00 Y:63 P:E4 SP:F9 CYC:3164
F869  60        RTS                             A:7F X:00 Y:63 P:64 SP:F9 CYC:3166
D0BD  61 80     ADC ($80,X) @ 80 = 0200 = 80    A:7F X:00 Y:63 P:64 SP:FB CYC:3172
D0BF  20 6A F8  JSR $F86A                       A:FF X:00 Y:63 P:A4 SP:FB CYC:3178
F86A  10 09     BPL $F875                       A:FF X:00 Y:63 P:A4 SP:F9 CYC:3184
F86C  B0 07     BCS $F875                       A:FF X:00 Y:63 P:A4 SP:F9 CYC:3186
F86E  C9 FF     CMP #$FF                        A:FF X:00 Y:63 P:A4 SP:F9 CYC:3188
F870  D0 03     BNE $F875                       A:FF X:00 Y:63 P:27 SP:F9 CYC:3190
F872  70 01     BVS $F875                       A:FF X:00 Y:63 P:27 SP:F9 CYC:3192
F874  60        RTS                             A:FF X:00 Y:63 P:27 SP:F9 CYC:3194
D0C2  C8        INY                             A:FF X:00 Y:63 P:27 SP:FB CYC:3200
D0C3  20 78 F8  JSR $F878                       A:FF X:00 Y:64 P:25 SP:FB CYC:3202
F878  38        SEC                             A:FF X:00 Y:64 P:25 SP:F9 CYC:3208
F879  B8        CLV                             A:FF X:00 Y:64 P:25 SP:F9 CYC:3210
F87A  A9 7F     LDA #$7F                        A:FF X:00 Y:64 P:25 SP:F9 CYC:3212
F87C  60        RTS                             A:7F X:00 Y:64 P:25 SP:F9 CYC:3214
D0C6  61 80     ADC ($80,X) @ 80 = 0200 = 80    A:7F X:00 Y:64 P:25 SP:FB CYC:3220
D0C8  20 7D F8  JSR $F87D                       A:00 X:00 Y:64 P:27 SP:FB CYC:3226
F87D  D0 07     BNE $F886                       A:00 X:00 Y:64 P:27 SP:F9 CYC:3232
F87F  30 05     BMI $F886                       A:00 X:00 Y:64 P:27 SP:F9 CYC:3234
F881  70 03     BVS $F886                       A:00 X:00 Y:64 P:27 SP:F9 CYC:3236
F883  90 01     BCC $F886                       A:00 X:00 Y:64 P:27 SP:F9 CYC:3238
F885  60        RTS                             A:00 X:00 Y:64 P:27 SP:F9 CYC:3240
D0CB  C8        INY                             A:00 X:00 Y:64 P:27 SP:FB CYC:3246
D0CC  A9 40     LDA #$40                        A:00 X:00 Y:65 P:25 SP:FB CYC:3248
D0CE  8D 00 02  STA $0200 = 80                  A:40 X:00 Y:65 P:25 SP:FB CYC:3250
D0D1  20 89 F8  JSR $F889                       A:40 X:00 Y:65 P:25 SP:FB CYC:3254
F889  24 01     BIT $01 = FF                    A:40 X:00 Y:65 P:25 SP:F9 CYC:3260
F88B  A9 40     LDA #$40                        A:40 X:00 Y:65 P:E5 SP:F9 CYC:3263
F88D  60        RTS                             A:40 X:00 Y:65 P:65 SP:F9 CYC:3265
D0D4  C1 80     CMP ($80,X) @ 80 = 0200 = 40    A:40 X:00 Y:65 P:65 SP:FB CYC:3271
D0D6  20 8E F8  JSR $F88E                       A:40 X:00 Y:65 P:67 SP:FB CYC:3277
F88E  30 07     BMI $F897                       A:40 X:00 Y:65 P:67 SP:F9 CYC:3283
F890  90 05     BCC $F897                       A:40 X:00 Y:65 P:67 SP:F9 CYC:3285
F892  D0 03     BNE $F897                       A:40 X:00 Y:65 P:67 SP:F9 CYC:3287
F894  50 01     BVC $F897                       A:40 X:00 Y:65 P:67 SP:F9 CYC:3289
F896  60        RTS                             A:40 X:00 Y:65 P:67 SP:F9 CYC:3291
D0D9  C8        INY                             A:40 X:00 Y:65 P:67 SP:FB CYC:3297
D0DA  48        PHA                             A:40 X:00 Y:66 P:65 SP:FB CYC:3299
D0DB  A9 3F     LDA #$3F                        A:40 X:00 Y:66 P:65 SP:FA CYC:3302
D0DD  8D 00 02  STA $0200 = 40                  A:3F X:00 Y:66 P:65 SP:FA CYC:3304
D0E0  68        PLA                             A:3F X:00 Y:66 P:65 SP:FA CYC:3308
D0E1  20 9A F8  JSR $F89A                       A:40 X:00 Y:66 P:65 SP:FB CYC:3312
F89A  B8        CLV                             A:40 X:00 Y:66 P:65 SP:F9 CYC:3318
F89B  60        RTS                             A:40 X:00 Y:66 P:25 SP:F9 CYC:3320
D0E4  C1 80     CMP ($80,X) @ 80 = 0200 = 3F    A:40 X:00 Y:66 P:25 SP:FB CYC:3326
D0E6  20 9C F8  JSR $F89C                       A:40 X:00 Y:66 P:25 SP:FB CYC:3332
F89C  F0 07     BEQ $F8A5                       A:40 X:00 Y:66 P:25 SP:F9 CYC:3338
F89E  30 05     BMI $F8A5                       A:40 X:00 Y:66 P:25 SP:F9 CYC:3340
F8A0  90 03     BCC $F8A5                       A:40 X:00 Y:66 P:25 SP:F9 CYC:3342
F8A2  70 01     BVS $F8A5                       A:40 X:00 Y:66 P:25 SP:F9 CYC:3344
F8A4  60        RTS                             A:40 X:00 Y:66 P:25 SP:F9 CYC:3346
D0E9  C8        INY                             A:40 X:00 Y:66 P:25 SP:FB CYC:3352
D0EA  48        PHA                             A:40 X:00 Y:67 P:25 SP:FB CYC:3354
D0EB  A9 41     LDA #$41                        A:40 X:00 Y:67 P:25 SP:FA CYC:3357
D0ED  8D 00 02  STA $0200 = 3F                  A:41 X:00 Y:67 P:25 SP:FA CYC:3359
D0F0  68        PLA                             A:41 X:00 Y:67 P:25 SP:FA CYC:3363
D0F1  C1 80     CMP ($80,X) @ 80 = 0200 = 41    A:40 X:00 Y:67 P:25 SP:FB CYC:3367
D0F3  20 A8 F8  JSR $F8A8                       A:40 X:00 Y:67 P:A4 SP:FB CYC:3373
F8A8  F0 05     BEQ $F8AF                       A:40 X:00 Y:67 P:A4 SP:F9 CYC:3379
F8AA  10 03     BPL $F8AF                       A:40 X:00 Y:67 P:A4 SP:F9 CYC:3381
F8AC  10 01     BPL $F8AF                       A:40 X:00 Y:67 P:A4 SP:F9 CYC:3383
F8AE  60        RTS                             A:40 X:00 Y:67 P:A4 SP:F9 CYC:3385
D0F6  C8        INY                             A:40 X:00 Y:67 P:A4 SP:FB CYC:3391
D0F7  48        PHA                             A:40 X:00 Y:68 P:24 SP:FB CYC:3393
D0F8  A9 00     LDA #$00                        A:40 X:00 Y:68 P:24 SP:FA CYC:3396
D0FA  8D 00 02  STA $0200 = 41                  A:00 X:00 Y:68 P:26 SP:FA CYC:3398
D0FD  68        PLA                             A:00 X:00 Y:68 P:26 SP:FA CYC:3402
D0FE  20 B2 F8  JSR $F8B2                       A:40 X:00 Y:68 P:24 SP:FB CYC:3406
F8B2  A9 80     LDA #$80                        A:40 X:00 Y:68 P:24 SP:F9 CYC:3412
F8B4  60        RTS                             A:80 X:00 Y:68 P:A4 SP:F9 CYC:3414
D101  C1 80     CMP ($80,X) @ 80 = 0200 = 00    A:80 X:00 Y:68 P:A4 SP:FB CYC:3420
D103  20 B5 F8  JSR $F8B5                       A:80 X:00 Y:68 P:A5 SP:FB CYC:3426
F8B5  F0 05     BEQ $F8BC                       A:80 X:00 Y:68 P:A5 SP:F9 CYC:3432
F8B7  10 03     BPL $F8BC                       A:80 X:00 Y:68 P:A5 SP:F9 CYC:3434
F8B9  90 01     BCC $F8BC                       A:80 X:00 Y:68 P:A5 SP:F9 CYC:3436
F8BB  60        RTS                             A:80 X:00 Y:68 P:A5 SP:F9 CYC:3438
D106  C8        INY                             A:80 X:00 Y:68 P:A5 SP:FB CYC:3444
D107  48        PHA                             A:80 X:00 Y:69 P:25 SP:FB CYC:3446
D108  A9 80     LDA #$80                        A:80 X:00 Y:69 P:25 SP:FA CYC:3449
D10A  8D 00 02  STA $0200 = 00                  A:80 X:00 Y:69 P:A5 SP:FA CYC:3451
D10D  68        PLA                             A:80 X:00 Y:69 P:A5 SP:FA CYC:3455
D10E  C1 80     CMP ($80,X) @ 80 = 0200 = 80    A:80 X:00 Y:69 P:A5 SP:FB CYC:3459
D110  20 BF F8  JSR $F8BF                       A:80 X:00 Y:69 P:27 SP:FB CYC:3465
F8BF  D0 05     BNE $F8C6                       A:80 X:00 Y:69 P:27 SP:F9 CYC:3471
F8C1  30 03     BMI $F8C6                       A:80 X:00 Y:69 P:27 SP:F9 CYC:3473
F8C3  90 01     BCC $F8C6                       A:80 X:00 Y:69 P:27 SP:F9 CYC:3475
F8C5  60        RTS                             A:80 X:00 Y:69 P:27 SP:F9 CYC:3477
D113  C8        INY                             A:80 X:00 Y:69 P:27 SP:FB CYC:3483
D114  48        PHA                             A:80 X:00 Y:6A P:25 SP:FB CYC:3485
D115  A9 81     LDA #$81                        A:80 X:00 Y:6A P:25 SP:FA CYC:3488
D117  8D 00 02  STA $0200 = 80                  A:81 X:00 Y:6A P:A5 SP:FA CYC:3490
D11A  68        PLA                             A:81 X:00 Y:6A P:A5 SP:FA CYC:3494
D11B  C1 80     CMP ($80,X) @ 80 = 0200 = 81    A:80 X:00 Y:6A P:A5 SP:FB CYC:3498
D11D  20 C9 F8  JSR $F8C9                       A:80 X:00 Y:6A P:A4 SP:FB CYC:3504
F8C9  B0 05     BCS $F8D0                       A:80 X:00 Y:6A P:A4 SP:F9 CYC:3510
F8CB  F0 03     BEQ $F8D0                       A:80 X:00 Y:6A P:A4 SP:F9 CYC:3512
F8CD  10 01     BPL $F8D0                       A:80 X:00 Y:6A P:A4 SP:F9 CYC:3514
F8CF  60        RTS                             A:80 X:00 Y:6A P:A4 SP:F9 CYC:3516
D120  C8        INY                             A:80 X:00 Y:6A P:A4 SP:FB CYC:3522
D121  48        PHA                             A:80 X:00 Y:6B P:24 SP:FB CYC:3524
D122  A9 7F     LDA #$7F                        A:80 X:00 Y:6B P:24 SP:FA CYC:3527
D124  8D 00 02  STA $0200 = 81                  A:7F X:00 Y:6B P:24 SP:FA CYC:3529
D127  68        PLA                             A:7F X:00 Y:6B P:24 SP:FA CYC:3533
D128  C1 80     CMP ($80,X) @ 80 = 0200 = 7F    A:80 X:00 Y:6B P:A4 SP:FB CYC:3537
D12A  20 D3 F8  JSR $F8D3                       A:80 X:00 Y:6B P:25 SP:FB CYC:3543
F8D3  90 05     BCC $F8DA                       A:80 X:00 Y:6B P:25 SP:F9 CYC:3549
F8D5  F0 03     BEQ $F8DA                       A:80 X:00 Y:6B P:25 SP:F9 CYC:3551
F8D7  30 01     BMI $F8DA                       A:80 X:00 Y:6B P:25 SP:F9 CYC:3553
F8D9  60        RTS                             A:80 X:00 Y:6B P:25 SP:F9 CYC:3555
D12D  C8        INY                             A:80 X:00 Y:6B P:25 SP:FB CYC:3561
D12E  A9 40     LDA #$40                        A:80 X:00 Y:6C P:25 SP:FB CYC:3563
D130  8D 00 02  STA $0200 = 7F                  A:40 X:00 Y:6C P:25 SP:FB CYC:3565
D133  20 31 F9  JSR $F931                       A:40 X:00 Y:6C P:25 SP:FB CYC:3569
F931  24 01     BIT $01 = FF                    A:40 X:00 Y:6C P:25 SP:F9 CYC:3575
F933  A9 40     LDA #$40                        A:40 X:00 Y:6C P:E5 SP:F9 CYC:3578
F935  38        SEC                             A:40 X:00 Y:6C P:65 SP:F9 CYC:3580
F936  60        RTS                             A:40 X:00 Y:6C P:65 SP:F9 CYC:3582
D136  E1 80     SBC ($80,X) @ 80 = 0200 = 40    A:40 X:00 Y:6C P:65 SP:FB CYC:3588
D138  20 37 F9  JSR $F937                       A:00 X:00 Y:6C P:27 SP:FB CYC:3594
F937  30 0B     BMI $F944                       A:00 X:00 Y:6C P:27 SP:F9 CYC:3600
F939  90 09     BCC $F944                       A:00 X:00 Y:6C P:27 SP:F9 CYC:3602
F93B  D0 07     BNE $F944                       A:00 X:00 Y:6C P:27 SP:F9 CYC:3604
F93D  70 05     BVS $F944                       A:00 X:00 Y:6C P:27 SP:F9 CYC:3606
F93F  C9 00     CMP #$00                        A:00 X:00 Y:6C P:27 SP:F9 CYC:3608
F941  D0 01     BNE $F944                       A:00 X:00 Y:6C P:27 SP:F9 CYC:3610
F943  60        RTS                             A:00 X:00 Y:6C P:27 SP:F9 CYC:3612
D13B  C8        INY                             A:00 X:00 Y:6C P:27 SP:FB CYC:3618
D13C  A9 3F     LDA #$3F                        A:00 X:00 Y:6D P:25 SP:FB CYC:3620
D13E  8D 00 02  STA $0200 = 40                  A:3F X:00 Y:6D P:25 SP:FB CYC:3622
D141  20 47 F9  JSR $F947                       A:3F X:00 Y:6D P:25 SP:FB CYC:3626
F947  B8        CLV                             A:3F X:00 Y:6D P:25 SP:F9 CYC:3632
F948  38        SEC                             A:3F X:00 Y:6D P:25 SP:F9 CYC:3634
F949  A9 40     LDA #$40                        A:3F X:00 Y:6D P:25 SP:F9 CYC:3636
F94B  60        RTS                             A:40 X:00 Y:6D P:25 SP:F9 CYC:3638
D144  E1 80     SBC ($80,X) @ 80 = 0200 = 3F    A:40 X:00 Y:6D P:25 SP:FB CYC:3644
D146  20 4C F9  JSR $F94C                       A:01 X:00 Y:6D P:25 SP:FB CYC:3650
F94C  F0 0B     BEQ $F959                       A:01 X:00 Y:6D P:25 SP:F9 CYC:3656
F94E  30 09     BMI $F959                       A:01 X:00 Y:6D P:25 SP:F9 CYC:3658
F950  90 07     BCC $F959                       A:01 X:00 Y:6D P:25 SP:F9 CYC:3660
F952  70 05     BVS $F959                       A:01 X:00 Y:6D P:25 SP:F9 CYC:3662
F954  C9 01     CMP #$01                        A:01 X:00 Y:6D P:25 SP:F9 CYC:3664
F956  D0 01     BNE $F959                       A:01 X:00 Y:6D P:27 SP:F9 CYC:3666
F958  60        RTS                             A:01 X:00 Y:6D P:27 SP:F9 CYC:3668
D149  C8        INY                             A:01 X:00 Y:6D P:27 SP:FB CYC:3674
D14A  A9 41     LDA #$41                        A:01 X:00 Y:6E P:25 SP:FB CYC:3676
D14C  8D 00 02  STA $0200 = 3F                  A:41 X:00 Y:6E P:25 SP:FB CYC:3678
D14F  20 5C F9  JSR $F95C                       A:41 X:00 Y:6E P:25 SP:FB CYC:3682
F95C  A9 40     LDA #$40                        A:41 X:00 Y:6E P:25 SP:F9 CYC:3688
F95E  38        SEC                             A:40 X:00 Y:6E P:25 SP:F9 CYC:3690
F95F  24 01     BIT $01 = FF                    A:40 X:00 Y:6E P:25 SP:F9 CYC:3692
F961  60        RTS                             A:40 X:00 Y:6E P:E5 SP:F9 CYC:3695
D152  E1 80     SBC ($80,X) @ 80 = 0200 = 41    A:40 X:00 Y:6E P:E5 SP:FB CYC:3701
D154  20 62 F9  JSR $F962                       A:FF X:00 Y:6E P:A4 SP:FB CYC:3707
F962  B0 0B     BCS $F96F                       A:FF X:00 Y:6E P:A4 SP:F9 CYC:3713
F964  F0 09     BEQ $F96F                       A:FF X:00 Y:6E P:A4 SP:F9 CYC:3715
F966  10 07     BPL $F96F                       A:FF X:00 Y:6E P:A4 SP:F9 CYC:3717
F968  70 05     BVS $F96F                       A:FF X:00 Y:6E P:A4 SP:F9 CYC:3719
F96A  C9 FF     CMP #$FF                        A:FF X:00 Y:6E P:A4 SP:F9 CYC:3721
F96C  D0 01     BNE $F96F                       A:FF X:00 Y:6E P:27 SP:F9 CYC:3723
F96E  60        RTS                             A:FF X:00 Y:6E P:27 SP:F9 CYC:3725
D157  C8        INY                             A:FF X:00 Y:6E P:27 SP:FB CYC:3731
D158  A9 00     LDA #$00                        A:FF X:00 Y:6F P:25 SP:FB CYC:3733
D15A  8D 00 02  STA $0200 = 41                  A:00 X:00 Y:6F P:27 SP:FB CYC:3735
D15D  20 72 F9  JSR $F972                       A:00 X:00 Y:6F P:27 SP:FB CYC:3739
F972  18        CLC                             A:00 X:00 Y:6F P:27 SP:F9 CYC:3745
F973  A9 80     LDA #$80                        A:00 X:00 Y:6F P:26 SP:F9 CYC:3747
F975  60        RTS                             A:80 X:00 Y:6F P:A4 SP:F9 CYC:3749
D160  E1 80     SBC ($80,X) @ 80 = 0200 = 00    A:80 X:00 Y:6F P:A4 SP:FB CYC:3755
D162  20 76 F9  JSR $F976                       A:7F X:00 Y:6F P:65 SP:FB CYC:3761
F976  90 05     BCC $F97D                       A:7F X:00 Y:6F P:65 SP:F9 CYC:3767
F978  C9 7F     CMP #$7F                        A:7F X:00 Y:6F P:65 SP:F9 CYC:3769
F97A  D0 01     BNE $F97D                       A:7F X:00 Y:6F P:67 SP:F9 CYC:3771
F97C  60        RTS                             A:7F X:00 Y:6F P:67 SP:F9 CYC:3773
D165  C8        INY                             A:7F X:00 Y:6F P:67 SP:FB CYC:3779
D166  A9 7F     LDA #$7F                        A:7F X:00 Y:70 P:65 SP:FB CYC:3781
D168  8D 00 02  STA $0200 = 00                  A:7F X:00 Y:70 P:65 SP:FB CYC:3783
D16B  20 80 F9  JSR $F980                       A:7F X:00 Y:70 P:65 SP:FB CYC:3787
F980  38        SEC                             A:7F X:00 Y:70 P:65 SP:F9 CYC:3793
F981  A9 81     LDA #$81                        A:7F X:00 Y:70 P:65 SP:F9 CYC:3795
F983  60        RTS                             A:81 X:00 Y:70 P:E5 SP:F9 CYC:3797
D16E  E1 80     SBC ($80,X) @ 80 = 0200 = 7F    A:81 X:00 Y:70 P:E5 SP:FB CYC:3803
D170  20 84 F9  JSR $F984                       A:02 X:00 Y:70 P:65 SP:FB CYC:3809
F984  50 07     BVC $F98D                       A:02 X:00 Y:70 P:65 SP:F9 CYC:3815
F986  90 05     BCC $F98D                       A:02 X:00 Y:70 P:65 SP:F9 CYC:3817
F988  C9 02     CMP #$02                        A:02 X:00 Y:70 P:65 SP:F9 CYC:3819
F98A  D0 01     BNE $F98D                       A:02 X:00 Y:70 P:67 SP:F9 CYC:3821
F98C  60        RTS                             A:02 X:00 Y:70 P:67 SP:F9 CYC:3823
D173  60        RTS                             A:02 X:00 Y:70 P:67 SP:FB CYC:3829
C612  20 74 D1  JSR $D174                       A:02 X:00 Y:70 P:67 SP:FD CYC:3835
D174  A9 55     LDA #$55                        A:02 X:00 Y:70 P:67 SP:FB CYC:3841
D176  85 78     STA $78 = 00                    A:55 X:00 Y:70 P:65 SP:FB CYC:3843
D178  A9 FF     LDA #$FF                        A:55 X:00 Y:70 P:65 SP:FB CYC:3846
D17A  85 01     STA $01 = FF                    A:FF X:00 Y:70 P:E5 SP:FB CYC:3848
D17C  24 01     BIT $01 = FF                    A:FF X:00 Y:70 P:E5 SP:FB CYC:3851
D17E  A0 11     LDY #$11                        A:FF X:00 Y:70 P:E5 SP:FB CYC:3854
D180  A2 23     LDX #$23                        A:FF X:00 Y:11 P:65 SP:FB CYC:3856
D182  A9 00     LDA #$00                        A:FF X:23 Y:11 P:65 SP:FB CYC:3858
D184  A5 78     LDA $78 = 55                    A:00 X:23 Y:11 P:67 SP:FB CYC:3860
D186  F0 10     BEQ $D198                       A:55 X:23 Y:11 P:65 SP:FB CYC:3863
D188  30 0E     BMI $D198                       A:55 X:23 Y:11 P:65 SP:FB CYC:3865
D18A  C9 55     CMP #$55                        A:55 X:23 Y:11 P:65 SP:FB CYC:3867
D18C  D0 0A     BNE $D198                       A:55 X:23 Y:11 P:67 SP:FB CYC:3869
D18E  C0 11     CPY #$11                        A:55 X:23 Y:11 P:67 SP:FB CYC:3871
D190  D0 06     BNE $D198                       A:55 X:23 Y:11 P:67 SP:FB CYC:3873
D192  E0 23     CPX #$23                        A:55 X:23 Y:11 P:67 SP:FB CYC:3875
D194  50 02     BVC $D198                       A:55 X:23 Y:11 P:67 SP:FB CYC:3877
D196  F0 04     BEQ $D19C                       A:55 X:23 Y:11 P:67 SP:FB CYC:3879
D19C  A9 46     LDA #$46                        A:55 X:23 Y:11 P:67 SP:FB CYC:3881
D19E  24 01     BIT $01 = FF                    A:46 X:23 Y:11 P:65 SP:FB CYC:3883
D1A0  85 78     STA $78 = 55                    A:46 X:23 Y:11 P:E5 SP:FB CYC:3886
D1A2  F0 0A     BEQ $D1AE                       A:46 X:23 Y:11 P:E5 SP:FB CYC:3889
D1A4  10 08     BPL $D1AE                       A:46 X:23 Y:11 P:E5 SP:FB CYC:3891
D1A6  50 06     BVC $D1AE                       A:46 X:23 Y:11 P:E5 SP:FB CYC:3893
D1A8  A5 78     LDA $78 = 46                    A:46 X:23 Y:11 P:E5 SP:FB CYC:3895
D1AA  C9 46     CMP #$46                        A:46 X:23 Y:11 P:65 SP:FB CYC:3898
D1AC  F0 04     BEQ $D1B2                       A:46 X:23 Y:11 P:67 SP:FB CYC:3900
D1B2  A9 55     LDA #$55                        A:46 X:23 Y:11 P:67 SP:FB CYC:3902
D1B4  85 78     STA $78 = 46                    A:55 X:23 Y:11 P:65 SP:FB CYC:3904
D1B6  24 01     BIT $01 = FF                    A:55 X:23 Y:11 P:65 SP:FB CYC:3907
D1B8  A9 11     LDA #$11                        A:55 X:23 Y:11 P:E5 SP:FB CYC:3910
D1BA  A2 23     LDX #$23                        A:11 X:23 Y:11 P:65 SP:FB CYC:3912
D1BC  A0 00     LDY #$00                        A:11 X:23 Y:11 P:65 SP:FB CYC:3914
D1BE  A4 78     LDY $78 = 55                    A:11 X:23 Y:00 P:67 SP:FB CYC:3916
D1C0  F0 10     BEQ $D1D2                       A:11 X:23 Y:55 P:65 SP:FB CYC:3919
D1C2  30 0E     BMI $D1D2                       A:11 X:23 Y:55 P:65 SP:FB CYC:3921
D1C4  C0 55     CPY #$55                        A:11 X:23 Y:55 P:65 SP:FB CYC:3923
D1C6  D0 0A     BNE $D1D2                       A:11 X:23 Y:55 P:67 SP:FB CYC:3925
D1C8  C9 11     CMP #$11                        A:11 X:23 Y:55 P:67 SP:FB CYC:3927
D1CA  D0 06     BNE $D1D2                       A:11 X:23 Y:55 P:67 SP:FB CYC:3929
D1CC  E0 23     CPX #$23                        A:11 X:23 Y:55 P:67 SP:FB CYC:3931
D1CE  50 02     BVC $D1D2                       A:11 X:23 Y:55 P:67 SP:FB CYC:3933
D1D0  F0 04     BEQ $D1D6                       A:11 X:23 Y:55 P:67 SP:FB CYC:3935
D1D6  A0 46     LDY #$46                        A:11 X:23 Y:55 P:67 SP:FB CYC:3937
D1D8  24 01     BIT $01 = FF                    A:11 X:23 Y:46 P:65 SP:FB CYC:3939
D1DA  84 78     STY $78 = 55                    A:11 X:23 Y:46 P:E5 SP:FB CYC:3942
D1DC  F0 0A     BEQ $D1E8                       A:11 X:23 Y:46 P:E5 SP:FB CYC:3945
D1DE  10 08     BPL $D1E8                       A:11 X:23 Y:46 P:E5 SP:FB CYC:3947
D1E0  50 06     BVC $D1E8                       A:11 X:23 Y:46 P:E5 SP:FB CYC:3949
D1E2  A4 78     LDY $78 = 46                    A:11 X:23 Y:46 P:E5 SP:FB CYC:3951
D1E4  C0 46     CPY #$46                        A:11 X:23 Y:46 P:65 SP:FB CYC:3954
D1E6  F0 04     BEQ $D1EC                       A:11 X:23 Y:46 P:67 SP:FB CYC:3956
D1EC  24 01     BIT $01 = FF                    A:11 X:23 Y:46 P:67 SP:FB CYC:3958
D1EE  A9 55     LDA #$55                        A:11 X:23 Y:46 P:E5 SP:FB CYC:3961
D1F0  85 78     STA $78 = 46                    A:55 X:23 Y:46 P:65 SP:FB CYC:3963
D1F2  A0 11     LDY #$11                        A:55 X:23 Y:46 P:65 SP:FB CYC:3966
D1F4  A9 23     LDA #$23                        A:55 X:23 Y:11 P:65 SP:FB CYC:3968
D1F6  A2 00     LDX #$00                        A:23 X:23 Y:11 P:65 SP:FB CYC:3970
D1F8  A6 78     LDX $78 = 55                    A:23 X:00 Y:11 P:67 SP:FB CYC:3972
D1FA  F0 10     BEQ $D20C                       A:23 X:55 Y:11 P:65 SP:FB CYC:3975
D1FC  30 0E     BMI $D20C                       A:23 X:55 Y:11 P:65 SP:FB CYC:3977
D1FE  E0 55     CPX #$55                        A:23 X:55 Y:11 P:65 SP:FB CYC:3979
D200  D0 0A     BNE $D20C                       A:23 X:55 Y:11 P:67 SP:FB CYC:3981
D202  C0 11     CPY #$11                        A:23 X:55 Y:11 P:67 SP:FB CYC:3983
D204  D0 06     BNE $D20C                       A:23 X:55 Y:11 P:67 SP:FB CYC:3985
D206  C9 23     CMP #$23                        A:23 X:55 Y:11 P:67 SP:FB CYC:3987
D208  50 02     BVC $D20C                       A:23 X:55 Y:11 P:67 SP:FB CYC:3989
D20A  F0 04     BEQ $D210                       A:23 X:55 Y:11 P:67 SP:FB CYC:3991
D210  A2 46     LDX #$46                        A:23 X:55 Y:11 P:67 SP:FB CYC:3993
D212  24 01     BIT $01 = FF                    A:23 X:46 Y:11 P:65 SP:FB CYC:3995
D214  86 78     STX $78 = 55                    A:23 X:46 Y:11 P:E5 SP:FB CYC:3998
D216  F0 0A     BEQ $D222                       A:23 X:46 Y:11 P:E5 SP:FB CYC:4001
D218  10 08     BPL $D222                       A:23 X:46 Y:11 P:E5 SP:FB CYC:4003
D21A  50 06     BVC $D222                       A:23 X:46 Y:11 P:E5 SP:FB CYC:4005
D21C  A6 78     LDX $78 = 46                    A:23 X:46 Y:11 P:E5 SP:FB CYC:4007
D21E  E0 46     CPX #$46                        A:23 X:46 Y:11 P:65 SP:FB CYC:4010
D220  F0 04     BEQ $D226                       A:23 X:46 Y:11 P:67 SP:FB CYC:4012
D226  A9 C0     LDA #$C0                        A:23 X:46 Y:11 P:67 SP:FB CYC:4014
D228  85 78     STA $78 = 46                    A:C0 X:46 Y:11 P:E5 SP:FB CYC:4016
D22A  A2 33     LDX #$33                        A:C0 X:46 Y:11 P:E5 SP:FB CYC:4019
D22C  A0 88     LDY #$88                        A:C0 X:33 Y:11 P:65 SP:FB CYC:4021
D22E  A9 05     LDA #$05                        A:C0 X:33 Y:88 P:E5 SP:FB CYC:4023
D230  24 78     BIT $78 = C0                    A:05 X:33 Y:88 P:65 SP:FB CYC:4025
D232  10 10     BPL $D244                       A:05 X:33 Y:88 P:E7 SP:FB CYC:4028
D234  50 0E     BVC $D244                       A:05 X:33 Y:88 P:E7 SP:FB CYC:4030
D236  D0 0C     BNE $D244                       A:05 X:33 Y:88 P:E7 SP:FB CYC:4032
D238  C9 05     CMP #$05                        A:05 X:33 Y:88 P:E7 SP:FB CYC:4034
D23A  D0 08     BNE $D244                       A:05 X:33 Y:88 P:67 SP:FB CYC:4036
D23C  E0 33     CPX #$33                        A:05 X:33 Y:88 P:67 SP:FB CYC:4038
D23E  D0 04     BNE $D244                       A:05 X:33 Y:88 P:67 SP:FB CYC:4040
D240  C0 88     CPY #$88                        A:05 X:33 Y:88 P:67 SP:FB CYC:4042
D242  F0 04     BEQ $D248                       A:05 X:33 Y:88 P:67 SP:FB CYC:4044
D248  A9 03     LDA #$03                        A:05 X:33 Y:88 P:67 SP:FB CYC:4046
D24A  85 78     STA $78 = C0                    A:03 X:33 Y:88 P:65 SP:FB CYC:4048
D24C  A9 01     LDA #$01                        A:03 X:33 Y:88 P:65 SP:FB CYC:4051
D24E  24 78     BIT $78 = 03                    A:01 X:33 Y:88 P:65 SP:FB CYC:4053
D250  30 08     BMI $D25A                       A:01 X:33 Y:88 P:25 SP:FB CYC:4056
D252  70 06     BVS $D25A                       A:01 X:33 Y:88 P:25 SP:FB CYC:4058
D254  F0 04     BEQ $D25A                       A:01 X:33 Y:88 P:25 SP:FB CYC:4060
D256  C9 01     CMP #$01                        A:01 X:33 Y:88 P:25 SP:FB CYC:4062
D258  F0 04     BEQ $D25E                       A:01 X:33 Y:88 P:27 SP:FB CYC:4064
D25E  A0 7E     LDY #$7E                        A:01 X:33 Y:88 P:27 SP:FB CYC:4066
D260  A9 AA     LDA #$AA                        A:01 X:33 Y:7E P:25 SP:FB CYC:4068
D262  85 78     STA $78 = 03                    A:AA X:33 Y:7E P:A5 SP:FB CYC:4070
D264  20 B6 F7  JSR $F7B6                       A:AA X:33 Y:7E P:A5 SP:FB CYC:4073
F7B6  18        CLC                             A:AA X:33 Y:7E P:A5 SP:F9 CYC:4079
F7B7  A9 FF     LDA #$FF                        A:AA X:33 Y:7E P:A4 SP:F9 CYC:4081
F7B9  85 01     STA $01 = FF                    A:FF X:33 Y:7E P:A4 SP:F9 CYC:4083
F7BB  24 01     BIT $01 = FF                    A:FF X:33 Y:7E P:A4 SP:F9 CYC:4086
F7BD  A9 55     LDA #$55                        A:FF X:33 Y:7E P:E4 SP:F9 CYC:4089
F7BF  60        RTS                             A:55 X:33 Y:7E P:64 SP:F9 CYC:4091
D267  05 78     ORA $78 = AA                    A:55 X:33 Y:7E P:64 SP:FB CYC:4097
D269  20 C0 F7  JSR $F7C0                       A:FF X:33 Y:7E P:E4 SP:FB CYC:4100
F7C0  B0 09     BCS $F7CB                       A:FF X:33 Y:7E P:E4 SP:F9 CYC:4106
F7C2  10 07     BPL $F7CB                       A:FF X:33 Y:7E P:E4 SP:F9 CYC:4108
F7C4  C9 FF     CMP #$FF                        A:FF X:33 Y:7E P:E4 SP:F9 CYC:4110
F7C6  D0 03     BNE $F7CB                       A:FF X:33 Y:7E P:67 SP:F9 CYC:4112
F7C8  50 01     BVC $F7CB                       A:FF X:33 Y:7E P:67 SP:F9 CYC:4114
F7CA  60        RTS                             A:FF X:33 Y:7E P:67 SP:F9 CYC:4116
D26C  C8        INY                             A:FF X:33 Y:7E P:67 SP:FB CYC:4122
D26D  A9 00     LDA #$00                        A:FF X:33 Y:7F P:65 SP:FB CYC:4124
D26F  85 78     STA $78 = AA                    A:00 X:33 Y:7F P:67 SP:FB CYC:4126
D271  20 CE F7  JSR $F7CE                       A:00 X:33 Y:7F P:67 SP:FB CYC:4129
F7CE  38        SEC                             A:00 X:33 Y:7F P:67 SP:F9 CYC:4135
F7CF  B8        CLV                             A:00 X:33 Y:7F P:67 SP:F9 CYC:4137
F7D0  A9 00     LDA #$00                        A:00 X:33 Y:7F P:27 SP:F9 CYC:4139
F7D2  60        RTS                             A:00 X:33 Y:7F P:27 SP:F9 CYC:4141
D274  05 78     ORA $78 = 00                    A:00 X:33 Y:7F P:27 SP:FB CYC:4147
D276  20 D3 F7  JSR $F7D3                       A:00 X:33 Y:7F P:27 SP:FB CYC:4150
F7D3  D0 07     BNE $F7DC                       A:00 X:33 Y:7F P:27 SP:F9 CYC:4156
F7D5  70 05     BVS $F7DC                       A:00 X:33 Y:7F P:27 SP:F9 CYC:4158
F7D7  90 03     BCC $F7DC                       A:00 X:33 Y:7F P:27 SP:F9 CYC:4160
F7D9  30 01     BMI $F7DC                       A:00 X:33 Y:7F P:27 SP:F9 CYC:4162
F7DB  60        RTS                             A:00 X:33 Y:7F P:27 SP:F9 CYC:4164
D279  C8        INY                             A:00 X:33 Y:7F P:27 SP:FB CYC:4170
D27A  A9 AA     LDA #$AA                        A:00 X:33 Y:80 P:A5 SP:FB CYC:4172
D27C  85 78     STA $78 = 00                    A:AA X:33 Y:80 P:A5 SP:FB CYC:4174
D27E  20 DF F7  JSR $F7DF                       A:AA X:33 Y:80 P:A5 SP:FB CYC:4177
F7DF  18        CLC                             A:AA X:33 Y:80 P:A5 SP:F9 CYC:4183
F7E0  24 01     BIT $01 = FF                    A:AA X:33 Y:80 P:A4 SP:F9 CYC:4185
F7E2  A9 55     LDA #$55                        A:AA X:33 Y:80 P:E4 SP:F9 CYC:4188
F7E4  60        RTS                             A:55 X:33 Y:80 P:64 SP:F9 CYC:4190
D281  25 78     AND $78 = AA                    A:55 X:33 Y:80 P:64 SP:FB CYC:4196
D283  20 E5 F7  JSR $F7E5                       A:00 X:33 Y:80 P:66 SP:FB CYC:4199
F7E5  D0 07     BNE $F7EE                       A:00 X:33 Y:80 P:66 SP:F9 CYC:4205
F7E7  50 05     BVC $F7EE                       A:00 X:33 Y:80 P:66 SP:F9 CYC:4207
F7E9  B0 03     BCS $F7EE                       A:00 X:33 Y:80 P:66 SP:F9 CYC:4209
F7EB  30 01     BMI $F7EE                       A:00 X:33 Y:80 P:66 SP:F9 CYC:4211
F7ED  60        RTS                             A:00 X:33 Y:80 P:66 SP:F9 CYC:4213
D286  C8        INY                             A:00 X:33 Y:80 P:66 SP:FB CYC:4219
D287  A9 EF     LDA #$EF                        A:00 X:33 Y:81 P:E4 SP:FB CYC:4221
D289  85 78     STA $78 = AA                    A:EF X:33 Y:81 P:E4 SP:FB CYC:4223
D28B  20 F1 F7  JSR $F7F1                       A:EF X:33 Y:81 P:E4 SP:FB CYC:4226
F7F1  38        SEC                             A:EF X:33 Y:81 P:E4 SP:F9 CYC:4232
F7F2  B8        CLV                             A:EF X:33 Y:81 P:E5 SP:F9 CYC:4234
F7F3  A9 F8     LDA #$F8                        A:EF X:33 Y:81 P:A5 SP:F9 CYC:4236
F7F5  60        RTS                             A:F8 X:33 Y:81 P:A5 SP:F9 CYC:4238
D28E  25 78     AND $78 = EF                    A:F8 X:33 Y:81 P:A5 SP:FB CYC:4244
D290  20 F6 F7  JSR $F7F6                       A:E8 X:33 Y:81 P:A5 SP:FB CYC:4247
F7F6  90 09     BCC $F801                       A:E8 X:33 Y:81 P:A5 SP:F9 CYC:4253
F7F8  10 07     BPL $F801                       A:E8 X:33 Y:81 P:A5 SP:F9 CYC:4255
F7FA  C9 E8     CMP #$E8                        A:E8 X:33 Y:81 P:A5 SP:F9 CYC:4257
F7FC  D0 03     BNE $F801                       A:E8 X:33 Y:81 P:27 SP:F9 CYC:4259
F7FE  70 01     BVS $F801                       A:E8 X:33 Y:81 P:27 SP:F9 CYC:4261
F800  60        RTS                             A:E8 X:33 Y:81 P:27 SP:F9 CYC:4263
D293  C8        INY                             A:E8 X:33 Y:81 P:27 SP:FB CYC:4269
D294  A9 AA     LDA #$AA                        A:E8 X:33 Y:82 P:A5 SP:FB CYC:4271
D296  85 78     STA $78 = EF                    A:AA X:33 Y:82 P:A5 SP:FB CYC:4273
D298  20 04 F8  JSR $F804                       A:AA X:33 Y:82 P:A5 SP:FB CYC:4276
F804  18        CLC                             A:AA X:33 Y:82 P:A5 SP:F9 CYC:4282
F805  24 01     BIT $01 = FF                    A:AA X:33 Y:82 P:A4 SP:F9 CYC:4284
F807  A9 5F     LDA #$5F                        A:AA X:33 Y:82 P:E4 SP:F9 CYC:4287
F809  60        RTS                             A:5F X:33 Y:82 P:64 SP:F9 CYC:4289
D29B  45 78     EOR $78 = AA                    A:5F X:33 Y:82 P:64 SP:FB CYC:4295
D29D  20 0A F8  JSR $F80A                       A:F5 X:33 Y:82 P:E4 SP:FB CYC:4298
F80A  B0 09     BCS $F815                       A:F5 X:33 Y:82 P:E4 SP:F9 CYC:4304
F80C  10 07     BPL $F815                       A:F5 X:33 Y:82 P:E4 SP:F9 CYC:4306
F80E  C9 F5     CMP #$F5                        A:F5 X:33 Y:82 P:E4 SP:F9 CYC:4308
F810  D0 03     BNE $F815                       A:F5 X:33 Y:82 P:67 SP:F9 CYC:4310
F812  50 01     BVC $F815                       A:F5 X:33 Y:82 P:67 SP:F9 CYC:4312
F814  60        RTS                             A:F5 X:33 Y:82 P:67 SP:F9 CYC:4314
D2A0  C8        INY                             A:F5 X:33 Y:82 P:67 SP:FB CYC:4320
D2A1  A9 70     LDA #$70                        A:F5 X:33 Y:83 P:E5 SP:FB CYC:4322
D2A3  85 78     STA $78 = AA                    A:70 X:33 Y:83 P:65 SP:FB CYC:4324
D2A5  20 18 F8  JSR $F818                       A:70 X:33 Y:83 P:65 SP:FB CYC:4327
F818  38        SEC                             A:70 X:33 Y:83 P:65 SP:F9 CYC:4333
F819  B8        CLV                             A:70 X:33 Y:83 P:65 SP:F9 CYC:4335
F81A  A9 70     LDA #$70                        A:70 X:33 Y:83 P:25 SP:F9 CYC:4337
F81C  60        RTS                             A:70 X:33 Y:83 P:25 SP:F9 CYC:4339
D2A8  45 78     EOR $78 = 70                    A:70 X:33 Y:83 P:25 SP:FB CYC:4345
D2AA  20 1D F8  JSR $F81D                       A:00 X:33 Y:83 P:27 SP:FB CYC:4348
F81D  D0 07     BNE $F826                       A:00 X:33 Y:83 P:27 SP:F9 CYC:4354
F81F  70 05     BVS $F826                       A:00 X:33 Y:83 P:27 SP:F9 CYC:4356
F821  90 03     BCC $F826                       A:00 X:33 Y:83 P:27 SP:F9 CYC:4358
F823  30 01     BMI $F826                       A:00 X:33 Y:83 P:27 SP:F9 CYC:4360
F825  60        RTS                             A:00 X:33 Y:83 P:27 SP:F9 CYC:4362
D2AD  C8        INY                             A:00 X:33 Y:83 P:27 SP:FB CYC:4368
D2AE  A9 69     LDA #$69                        A:00 X:33 Y:84 P:A5 SP:FB CYC:4370
D2B0  85 78     STA $78 = 70                    A:69 X:33 Y:84 P:25 SP:FB CYC:4372
D2B2  20 29 F8  JSR $F829                       A:69 X:33 Y:84 P:25 SP:FB CYC:4375
F829  18        CLC                             A:69 X:33 Y:84 P:25 SP:F9 CYC:4381
F82A  24 01     BIT $01 = FF                    A:69 X:33 Y:84 P:24 SP:F9 CYC:4383
F82C  A9 00     LDA #$00                        A:69 X:33 Y:84 P:E4 SP:F9 CYC:4386
F82E  60        RTS                             A:00 X:33 Y:84 P:66 SP:F9 CYC:4388
D2B5  65 78     ADC $78 = 69                    A:00 X:33 Y:84 P:66 SP:FB CYC:4394
D2B7  20 2F F8  JSR $F82F                       A:69 X:33 Y:84 P:24 SP:FB CYC:4397
F82F  30 09     BMI $F83A                       A:69 X:33 Y:84 P:24 SP:F9 CYC:4403
F831  B0 07     BCS $F83A                       A:69 X:33 Y:84 P:24 SP:F9 CYC:4405
F833  C9 69     CMP #$69                        A:69 X:33 Y:84 P:24 SP:F9 CYC:4407
F835  D0 03     BNE $F83A                       A:69 X:33 Y:84 P:27 SP:F9 CYC:4409
F837  70 01     BVS $F83A                       A:69 X:33 Y:84 P:27 SP:F9 CYC:4411
F839  60        RTS                             A:69 X:33 Y:84 P:27 SP:F9 CYC:4413
D2BA  C8        INY                             A:69 X:33 Y:84 P:27 SP:FB CYC:4419
D2BB  20 3D F8  JSR $F83D                       A:69 X:33 Y:85 P:A5 SP:FB CYC:4421
F83D  38        SEC                             A:69 X:33 Y:85 P:A5 SP:F9 CYC:4427
F83E  24 01     BIT $01 = FF                    A:69 X:33 Y:85 P:A5 SP:F9 CYC:4429
F840  A9 00     LDA #$00                        A:69 X:33 Y:85 P:E5 SP:F9 CYC:4432
F842  60        RTS                             A:00 X:33 Y:85 P:67 SP:F9 CYC:4434
D2BE  65 78     ADC $78 = 69                    A:00 X:33 Y:85 P:67 SP:FB CYC:4440
D2C0  20 43 F8  JSR $F843                       A:6A X:33 Y:85 P:24 SP:FB CYC:4443
F843  30 09     BMI $F84E                       A:6A X:33 Y:85 P:24 SP:F9 CYC:4449
F845  B0 07     BCS $F84E                       A:6A X:33 Y:85 P:24 SP:F9 CYC:4451
F847  C9 6A     CMP #$6A                        A:6A X:33 Y:85 P:24 SP:F9 CYC:4453
F849  D0 03     BNE $F84E                       A:6A X:33 Y:85 P:27 SP:F9 CYC:4455
F84B  70 01     BVS $F84E                       A:6A X:33 Y:85 P:27 SP:F9 CYC:4457
F84D  60        RTS                             A:6A X:33 Y:85 P:27 SP:F9 CYC:4459
D2C3  C8        INY                             A:6A X:33 Y:85 P:27 SP:FB CYC:4465
D2C4  A9 7F     LDA #$7F                        A:6A X:33 Y:86 P:A5 SP:FB CYC:4467
D2C6  85 78     STA $78 = 69                    A:7F X:33 Y:86 P:25 SP:FB CYC:4469
D2C8  20 51 F8  JSR $F851                       A:7F X:33 Y:86 P:25 SP:FB CYC:4472
F851  38        SEC                             A:7F X:33 Y:86 P:25 SP:F9 CYC:4478
F852  B8        CLV                             A:7F X:33 Y:86 P:25 SP:F9 CYC:4480
F853  A9 7F     LDA #$7F                        A:7F X:33 Y:86 P:25 SP:F9 CYC:4482
F855  60        RTS                             A:7F X:33 Y:86 P:25 SP:F9 CYC:4484
D2CB  65 78     ADC $78 = 7F                    A:7F X:33 Y:86 P:25 SP:FB CYC:4490
D2CD  20 56 F8  JSR $F856                       A:FF X:33 Y:86 P:E4 SP:FB CYC:4493
F856  10 09     BPL $F861                       A:FF X:33 Y:86 P:E4 SP:F9 CYC:4499
F858  B0 07     BCS $F861                       A:FF X:33 Y:86 P:E4 SP:F9 CYC:4501
F85A  C9 FF     CMP #$FF                        A:FF X:33 Y:86 P:E4 SP:F9 CYC:4503
F85C  D0 03     BNE $F861                       A:FF X:33 Y:86 P:67 SP:F9 CYC:4505
F85E  50 01     BVC $F861                       A:FF X:33 Y:86 P:67 SP:F9 CYC:4507
F860  60        RTS                             A:FF X:33 Y:86 P:67 SP:F9 CYC:4509
D2D0  C8        INY                             A:FF X:33 Y:86 P:67 SP:FB CYC:4515
D2D1  A9 80     LDA #$80                        A:FF X:33 Y:87 P:E5 SP:FB CYC:4517
D2D3  85 78     STA $78 = 7F                    A:80 X:33 Y:87 P:E5 SP:FB CYC:4519
D2D5  20 64 F8  JSR $F864                       A:80 X:33 Y:87 P:E5 SP:FB CYC:4522
F864  18        CLC                             A:80 X:33 Y:87 P:E5 SP:F9 CYC:4528
F865  24 01     BIT $01 = FF                    A:80 X:33 Y:87 P:E4 SP:F9 CYC:4530
F867  A9 7F     LDA #$7F                        A:80 X:33 Y:87 P:E4 SP:F9 CYC:4533
F869  60        RTS                             A:7F X:33 Y:87 P:64 SP:F9 CYC:4535
D2D8  65 78     ADC $78 = 80                    A:7F X:33 Y:87 P:64 SP:FB CYC:4541
D2DA  20 6A F8  JSR $F86A                       A:FF X:33 Y:87 P:A4 SP:FB CYC:4544
F86A  10 09     BPL $F875                       A:FF X:33 Y:87 P:A4 SP:F9 CYC:4550
F86C  B0 07     BCS $F875                       A:FF X:33 Y:87 P:A4 SP:F9 CYC:4552
F86E  C9 FF     CMP #$FF                        A:FF X:33 Y:87 P:A4 SP:F9 CYC:4554
F870  D0 03     BNE $F875                       A:FF X:33 Y:87 P:27 SP:F9 CYC:4556
F872  70 01     BVS $F875                       A:FF X:33 Y:87 P:27 SP:F9 CYC:4558
F874  60        RTS                             A:FF X:33 Y:87 P:27 SP:F9 CYC:4560
D2DD  C8        INY                             A:FF X:33 Y:87 P:27 SP:FB CYC:4566
D2DE  20 78 F8  JSR $F878                       A:FF X:33 Y:88 P:A5 SP:FB CYC:4568
F878  38        SEC                             A:FF X:33 Y:88 P:A5 SP:F9 CYC:4574
F879  B8        CLV                             A:FF X:33 Y:88 P:A5 SP:F9 CYC:4576
F87A  A9 7F     LDA #$7F                        A:FF X:33 Y:88 P:A5 SP:F9 CYC:4578
F87C  60        RTS                             A:7F X:33 Y:88 P:25 SP:F9 CYC:4580
D2E1  65 78     ADC $78 = 80                    A:7F X:33 Y:88 P:25 SP:FB CYC:4586
D2E3  20 7D F8  JSR $F87D                       A:00 X:33 Y:88 P:27 SP:FB CYC:4589
F87D  D0 07     BNE $F886                       A:00 X:33 Y:88 P:27 SP:F9 CYC:4595
F87F  30 05     BMI $F886                       A:00 X:33 Y:88 P:27 SP:F9 CYC:4597
F881  70 03     BVS $F886                       A:00 X:33 Y:88 P:27 SP:F9 CYC:4599
F883  90 01     BCC $F886                       A:00 X:33 Y:88 P:27 SP:F9 CYC:4601
F885  60        RTS                             A:00 X:33 Y:88 P:27 SP:F9 CYC:4603
D2E6  C8        INY                             A:00 X:33 Y:88 P:27 SP:FB CYC:4609
D2E7  A9 40     LDA #$40                        A:00 X:33 Y:89 P:A5 SP:FB CYC:4611
D2E9  85 78     STA $78 = 80                    A:40 X:33 Y:89 P:25 SP:FB CYC:4613
D2EB  20 89 F8  JSR $F889                       A:40 X:33 Y:89 P:25 SP:FB CYC:4616
F889  24 01     BIT $01 = FF                    A:40 X:33 Y:89 P:25 SP:F9 CYC:4622
F88B  A9 40     LDA #$40                        A:40 X:33 Y:89 P:E5 SP:F9 CYC:4625
F88D  60        RTS                             A:40 X:33 Y:89 P:65 SP:F9 CYC:4627
D2EE  C5 78     CMP $78 = 40                    A:40 X:33 Y:89 P:65 SP:FB CYC:4633
D2F0  20 8E F8  JSR $F88E                       A:40 X:33 Y:89 P:67 SP:FB CYC:4636
F88E  30 07     BMI $F897                       A:40 X:33 Y:89 P:67 SP:F9 CYC:4642
F890  90 05     BCC $F897                       A:40 X:33 Y:89 P:67 SP:F9 CYC:4644
F892  D0 03     BNE $F897                       A:40 X:33 Y:89 P:67 SP:F9 CYC:4646
F894  50 01     BVC $F897                       A:40 X:33 Y:89 P:67 SP:F9 CYC:4648
F896  60        RTS                             A:40 X:33 Y:89 P:67 SP:F9 CYC:4650
D2F3  C8        INY                             A:40 X:33 Y:89 P:67 SP:FB CYC:4656
D2F4  48        PHA                             A:40 X:33 Y:8A P:E5 SP:FB CYC:4658
D2F5  A9 3F     LDA #$3F                        A:40 X:33 Y:8A P:E5 SP:FA CYC:4661
D2F7  85 78     STA $78 = 40                    A:3F X:33 Y:8A P:65 SP:FA CYC:4663
D2F9  68        PLA                             A:3F X:33 Y:8A P:65 SP:FA CYC:4666
D2FA  20 9A F8  JSR $F89A                       A:40 X:33 Y:8A P:65 SP:FB CYC:4670
F89A  B8        CLV                             A:40 X:33 Y:8A P:65 SP:F9 CYC:4676
F89B  60        RTS                             A:40 X:33 Y:8A P:25 SP:F9 CYC:4678
D2FD  C5 78     CMP $78 = 3F                    A:40 X:33 Y:8A P:25 SP:FB CYC:4684
D2FF  20 9C F8  JSR $F89C                       A:40 X:33 Y:8A P:25 SP:FB CYC:4687
F89C  F0 07     BEQ $F8A5                       A:40 X:33 Y:8A P:25 SP:F9 CYC:4693
F89E  30 05     BMI $F8A5                       A:40 X:33 Y:8A P:25 SP:F9 CYC:4695
F8A0  90 03     BCC $F8A5                       A:40 X:33 Y:8A P:25 SP:F9 CYC:4697
F8A2  70 01     BVS $F8A5                       A:40 X:33 Y:8A P:25 SP:F9 CYC:4699
F8A4  60        RTS                             A:40 X:33 Y:8A P:25 SP:F9 CYC:4701
D302  C8        INY                             A:40 X:33 Y:8A P:25 SP:FB CYC:4707
D303  48        PHA                             A:40 X:33 Y:8B P:A5 SP:FB CYC:4709
D304  A9 41     LDA #$41                        A:40 X:33 Y:8B P:A5 SP:FA CYC:4712
D306  85 78     STA $78 = 3F                    A:41 X:33 Y:8B P:25 SP:FA CYC:4714
D308  68        PLA                             A:41 X:33 Y:8B P:25 SP:FA CYC:4717
D309  C5 78     CMP $78 = 41                    A:40 X:33 Y:8B P:25 SP:FB CYC:4721
D30B  20 A8 F8  JSR $F8A8                       A:40 X:33 Y:8B P:A4 SP:FB CYC:4724
F8A8  F0 05     BEQ $F8AF                       A:40 X:33 Y:8B P:A4 SP:F9 CYC:4730
F8AA  10 03     BPL $F8AF                       A:40 X:33 Y:8B P:A4 SP:F9 CYC:4732
F8AC  10 01     BPL $F8AF                       A:40 X:33 Y:8B P:A4 SP:F9 CYC:4734
F8AE  60        RTS                             A:40 X:33 Y:8B P:A4 SP:F9 CYC:4736
D30E  C8        INY                             A:40 X:33 Y:8B P:A4 SP:FB CYC:4742
D30F  48        PHA                             A:40 X:33 Y:8C P:A4 SP:FB CYC:4744
D310  A9 00     LDA #$00                        A:40 X:33 Y:8C P:A4 SP:FA CYC:4747
D312  85 78     STA $78 = 41                    A:00 X:33 Y:8C P:26 SP:FA CYC:4749
D314  68        PLA                             A:00 X:33 Y:8C P:26 SP:FA CYC:4752
D315  20 B2 F8  JSR $F8B2                       A:40 X:33 Y:8C P:24 SP:FB CYC:4756
F8B2  A9 80     LDA #$80                        A:40 X:33 Y:8C P:24 SP:F9 CYC:4762
F8B4  60        RTS                             A:80 X:33 Y:8C P:A4 SP:F9 CYC:4764
D318  C5 78     CMP $78 = 00                    A:80 X:33 Y:8C P:A4 SP:FB CYC:4770
D31A  20 B5 F8  JSR $F8B5                       A:80 X:33 Y:8C P:A5 SP:FB CYC:4773
F8B5  F0 05     BEQ $F8BC                       A:80 X:33 Y:8C P:A5 SP:F9 CYC:4779
F8B7  10 03     BPL $F8BC                       A:80 X:33 Y:8C P:A5 SP:F9 CYC:4781
F8B9  90 01     BCC $F8BC                       A:80 X:33 Y:8C P:A5 SP:F9 CYC:4783
F8BB  60        RTS                             A:80 X:33 Y:8C P:A5 SP:F9 CYC:4785
D31D  C8        INY                             A:80 X:33 Y:8C P:A5 SP:FB CYC:4791
D31E  48        PHA                             A:80 X:33 Y:8D P:A5 SP:FB CYC:4793
D31F  A9 80     LDA #$80                        A:80 X:33 Y:8D P:A5 SP:FA CYC:4796
D321  85 78     STA $78 = 00                    A:80 X:33 Y:8D P:A5 SP:FA CYC:4798
D323  68        PLA                             A:80 X:33 Y:8D P:A5 SP:FA CYC:4801
D324  C5 78     CMP $78 = 80                    A:80 X:33 Y:8D P:A5 SP:FB CYC:4805
D326  20 BF F8  JSR $F8BF                       A:80 X:33 Y:8D P:27 SP:FB CYC:4808
F8BF  D0 05     BNE $F8C6                       A:80 X:33 Y:8D P:27 SP:F9 CYC:4814
F8C1  30 03     BMI $F8C6                       A:80 X:33 Y:8D P:27 SP:F9 CYC:4816
F8C3  90 01     BCC $F8C6                       A:80 X:33 Y:8D P:27 SP:F9 CYC:4818
F8C5  60        RTS                             A:80 X:33 Y:8D P:27 SP:F9 CYC:4820
D329  C8        INY                             A:80 X:33 Y:8D P:27 SP:FB CYC:4826
D32A  48        PHA                             A:80 X:33 Y:8E P:A5 SP:FB CYC:4828
D32B  A9 81     LDA #$81                        A:80 X:33 Y:8E P:A5 SP:FA CYC:4831
D32D  85 78     STA $78 = 80                    A:81 X:33 Y:8E P:A5 SP:FA CYC:4833
D32F  68        PLA                             A:81 X:33 Y:8E P:A5 SP:FA CYC:4836
D330  C5 78     CMP $78 = 81                    A:80 X:33 Y:8E P:A5 SP:FB CYC:4840
D332  20 C9 F8  JSR $F8C9                       A:80 X:33 Y:8E P:A4 SP:FB CYC:4843
F8C9  B0 05     BCS $F8D0                       A:80 X:33 Y:8E P:A4 SP:F9 CYC:4849
F8CB  F0 03     BEQ $F8D0                       A:80 X:33 Y:8E P:A4 SP:F9 CYC:4851
F8CD  10 01     BPL $F8D0                       A:80 X:33 Y:8E P:A4 SP:F9 CYC:4853
F8CF  60        RTS                             A:80 X:33 Y:8E P:A4 SP:F9 CYC:4855
D335  C8        INY                             A:80 X:33 Y:8E P:A4 SP:FB CYC:4861
D336  48        PHA                             A:80 X:33 Y:8F P:A4 SP:FB CYC:4863
D337  A9 7F     LDA #$7F                        A:80 X:33 Y:8F P:A4 SP:FA CYC:4866
D339  85 78     STA $78 = 81                    A:7F X:33 Y:8F P:24 SP:FA CYC:4868
D33B  68        PLA                             A:7F X:33 Y:8F P:24 SP:FA CYC:4871
D33C  C5 78     CMP $78 = 7F                    A:80 X:33 Y:8F P:A4 SP:FB CYC:4875
D33E  20 D3 F8  JSR $F8D3                       A:80 X:33 Y:8F P:25 SP:FB CYC:4878
F8D3  90 05     BCC $F8DA                       A:80 X:33 Y:8F P:25 SP:F9 CYC:4884
F8D5  F0 03     BEQ $F8DA                       A:80 X:33 Y:8F P:25 SP:F9 CYC:4886
F8D7  30 01     BMI $F8DA                       A:80 X:33 Y:8F P:25 SP:F9 CYC:4888
F8D9  60        RTS                             A:80 X:33 Y:8F P:25 SP:F9 CYC:4890
D341  C8        INY                             A:80 X:33 Y:8F P:25 SP:FB CYC:4896
D342  A9 40     LDA #$40                        A:80 X:33 Y:90 P:A5 SP:FB CYC:4898
D344  85 78     STA $78 = 7F                    A:40 X:33 Y:90 P:25 SP:FB CYC:4900
D346  20 31 F9  JSR $F931                       A:40 X:33 Y:90 P:25 SP:FB CYC:4903
F931  24 01     BIT $01 = FF                    A:40 X:33 Y:90 P:25 SP:F9 CYC:4909
F933  A9 40     LDA #$40                        A:40 X:33 Y:90 P:E5 SP:F9 CYC:4912
F935  38        SEC                             A:40 X:33 Y:90 P:65 SP:F9 CYC:4914
F936  60        RTS                             A:40 X:33 Y:90 P:65 SP:F9 CYC:4916
D349  E5 78     SBC $78 = 40                    A:40 X:33 Y:90 P:65 SP:FB CYC:4922
D34B  20 37 F9  JSR $F937                       A:00 X:33 Y:90 P:27 SP:FB CYC:4925
F937  30 0B     BMI $F944                       A:00 X:33 Y:90 P:27 SP:F9 CYC:4931
F939  90 09     BCC $F944                       A:00 X:33 Y:90 P:27 SP:F9 CYC:4933
F93B  D0 07     BNE $F944                       A:00 X:33 Y:90 P:27 SP:F9 CYC:4935
F93D  70 05     BVS $F944                       A:00 X:33 Y:90 P:27 SP:F9 CYC:4937
F93F  C9 00     CMP #$00                        A:00 X:33 Y:90 P:27 SP:F9 CYC:4939
F941  D0 01     BNE $F944                       A:00 X:33 Y:90 P:27 SP:F9 CYC:4941
F943  60        RTS                             A:00 X:33 Y:90 P:27 SP:F9 CYC:4943
D34E  C8        INY                             A:00 X:33 Y:90 P:27 SP:FB CYC:4949
D34F  A9 3F     LDA #$3F                        A:00 X:33 Y:91 P:A5 SP:FB CYC:4951
D351  85 78     STA $78 = 40                    A:3F X:33 Y:91 P:25 SP:FB CYC:4953
D353  20 47 F9  JSR $F947                       A:3F X:33 Y:91 P:25 SP:FB CYC:4956
F947  B8        CLV                             A:3F X:33 Y:91 P:25 SP:F9 CYC:4962
F948  38        SEC                             A:3F X:33 Y:91 P:25 SP:F9 CYC:4964
F949  A9 40     LDA #$40                        A:3F X:33 Y:91 P:25 SP:F9 CYC:4966
F94B  60        RTS                             A:40 X:33 Y:91 P:25 SP:F9 CYC:4968
D356  E5 78     SBC $78 = 3F                    A:40 X:33 Y:91 P:25 SP:FB CYC:4974
D358  20 4C F9  JSR $F94C                       A:01 X:33 Y:91 P:25 SP:FB CYC:4977
F94C  F0 0B     BEQ $F959                       A:01 X:33 Y:91 P:25 SP:F9 CYC:4983
F94E  30 09     BMI $F959                       A:01 X:33 Y:91 P:25 SP:F9 CYC:4985
F950  90 07     BCC $F959                       A:01 X:33 Y:91 P:25 SP:F9 CYC:4987
F952  70 05     BVS $F959                       A:01 X:33 Y:91 P:25 SP:F9 CYC:4989
F954  C9 01     CMP #$01                        A:01 X:33 Y:91 P:25 SP:F9 CYC:4991
F956  D0 01     BNE $F959                       A:01 X:33 Y:91 P:27 SP:F9 CYC:4993
F958  60        RTS                             A:01 X:33 Y:91 P:27 SP:F9 CYC:4995
D35B  C8        INY                             A:01 X:33 Y:91 P:27 SP:FB CYC:5001
D35C  A9 41     LDA #$41                        A:01 X:33 Y:92 P:A5 SP:FB CYC:5003
D35E  85 78     STA $78 = 3F                    A:41 X:33 Y:92 P:25 SP:FB CYC:5005
D360  20 5C F9  JSR $F95C                       A:41 X:33 Y:92 P:25 SP:FB CYC:5008
F95C  A9 40     LDA #$40                        A:41 X:33 Y:92 P:25 SP:F9 CYC:5014
F95E  38        SEC                             A:40 X:33 Y:92 P:25 SP:F9 CYC:5016
F95F  24 01     BIT $01 = FF                    A:40 X:33 Y:92 P:25 SP:F9 CYC:5018
F961  60        RTS                             A:40 X:33 Y:92 P:E5 SP:F9 CYC:5021
D363  E5 78     SBC $78 = 41                    A:40 X:33 Y:92 P:E5 SP:FB CYC:5027
D365  20 62 F9  JSR $F962                       A:FF X:33 Y:92 P:A4 SP:FB CYC:5030
F962  B0 0B     BCS $F96F                       A:FF X:33 Y:92 P:A4 SP:F9 CYC:5036
F964  F0 09     BEQ $F96F                       A:FF X:33 Y:92 P:A4 SP:F9 CYC:5038
F966  10 07     BPL $F96F                       A:FF X:33 Y:92 P:A4 SP:F9 CYC:5040
F968  70 05     BVS $F96F                       A:FF X:33 Y:92 P:A4 SP:F9 CYC:5042
F96A  C9 FF     CMP #$FF                        A:FF X:33 Y:92 P:A4 SP:F9 CYC:5044
F96C  D0 01     BNE $F96F                       A:FF X:33 Y:92 P:27 SP:F9 CYC:5046
F96E  60        RTS                             A:FF X:33 Y:92 P:27 SP:F9 CYC:5048
D368  C8        INY                             A:FF X:33 Y:92 P:27 SP:FB CYC:5054
D369  A9 00     LDA #$00                        A:FF X:33 Y:93 P:A5 SP:FB CYC:5056
D36B  85 78     STA $78 = 41                    A:00 X:33 Y:93 P:27 SP:FB CYC:5058
D36D  20 72 F9  JSR $F972                       A:00 X:33 Y:93 P:27 SP:FB CYC:5061
F972  18        CLC                             A:00 X:33 Y:93 P:27 SP:F9 CYC:5067
F973  A9 80     LDA #$80                        A:00 X:33 Y:93 P:26 SP:F9 CYC:5069
F975  60        RTS                             A:80 X:33 Y:93 P:A4 SP:F9 CYC:5071
D370  E5 78     SBC $78 = 00                    A:80 X:33 Y:93 P:A4 SP:FB CYC:5077
D372  20 76 F9  JSR $F976                       A:7F X:33 Y:93 P:65 SP:FB CYC:5080
F976  90 05     BCC $F97D                       A:7F X:33 Y:93 P:65 SP:F9 CYC:5086
F978  C9 7F     CMP #$7F                        A:7F X:33 Y:93 P:65 SP:F9 CYC:5088
F97A  D0 01     BNE $F97D                       A:7F X:33 Y:93 P:67 SP:F9 CYC:5090
F97C  60        RTS                             A:7F X:33 Y:93 P:67 SP:F9 CYC:5092
D375  C8        INY                             A:7F X:33 Y:93 P:67 SP:FB CYC:5098
D376  A9 7F     LDA #$7F                        A:7F X:33 Y:94 P:E5 SP:FB CYC:5100
D378  85 78     STA $78 = 00                    A:7F X:33 Y:94 P:65 SP:FB CYC:5102
D37A  20 80 F9  JSR $F980                       A:7F X:33 Y:94 P:65 SP:FB CYC:5105
F980  38        SEC                             A:7F X:33 Y:94 P:65 SP:F9 CYC:5111
F981  A9 81     LDA #$81                        A:7F X:33 Y:94 P:65 SP:F9 CYC:5113
F983  60        RTS                             A:81 X:33 Y:94 P:E5 SP:F9 CYC:5115
D37D  E5 78     SBC $78 = 7F                    A:81 X:33 Y:94 P:E5 SP:FB CYC:5121
D37F  20 84 F9  JSR $F984                       A:02 X:33 Y:94 P:65 SP:FB CYC:5124
F984  50 07     BVC $F98D                       A:02 X:33 Y:94 P:65 SP:F9 CYC:5130
F986  90 05     BCC $F98D                       A:02 X:33 Y:94 P:65 SP:F9 CYC:5132
F988  C9 02     CMP #$02                        A:02 X:33 Y:94 P:65 SP:F9 CYC:5134
F98A  D0 01     BNE $F98D                       A:02 X:33 Y:94 P:67 SP:F9 CYC:5136
F98C  60        RTS                             A:02 X:33 Y:94 P:67 SP:F9 CYC:5138
D382  C8        INY                             A:02 X:33 Y:94 P:67 SP:FB CYC:5144
D383  A9 40     LDA #$40                        A:02 X:33 Y:95 P:E5 SP:FB CYC:5146
D385  85 78     STA $78 = 7F                    A:40 X:33 Y:95 P:65 SP:FB CYC:5148
D387  20 89 F8  JSR $F889                       A:40 X:33 Y:95 P:65 SP:FB CYC:5151
F889  24 01     BIT $01 = FF                    A:40 X:33 Y:95 P:65 SP:F9 CYC:5157
F88B  A9 40     LDA #$40                        A:40 X:33 Y:95 P:E5 SP:F9 CYC:5160
F88D  60        RTS                             A:40 X:33 Y:95 P:65 SP:F9 CYC:5162
D38A  AA        TAX                             A:40 X:33 Y:95 P:65 SP:FB CYC:5168
D38B  E4 78     CPX $78 = 40                    A:40 X:40 Y:95 P:65 SP:FB CYC:5170
D38D  20 8E F8  JSR $F88E                       A:40 X:40 Y:95 P:67 SP:FB CYC:5173
F88E  30 07     BMI $F897                       A:40 X:40 Y:95 P:67 SP:F9 CYC:5179
F890  90 05     BCC $F897                       A:40 X:40 Y:95 P:67 SP:F9 CYC:5181
F892  D0 03     BNE $F897                       A:40 X:40 Y:95 P:67 SP:F9 CYC:5183
F894  50 01     BVC $F897                       A:40 X:40 Y:95 P:67 SP:F9 CYC:5185
F896  60        RTS                             A:40 X:40 Y:95 P:67 SP:F9 CYC:5187
D390  C8        INY                             A:40 X:40 Y:95 P:67 SP:FB CYC:5193
D391  A9 3F     LDA #$3F                        A:40 X:40 Y:96 P:E5 SP:FB CYC:5195
D393  85 78     STA $78 = 40                    A:3F X:40 Y:96 P:65 SP:FB CYC:5197
D395  20 9A F8  JSR $F89A                       A:3F X:40 Y:96 P:65 SP:FB CYC:5200
F89A  B8        CLV                             A:3F X:40 Y:96 P:65 SP:F9 CYC:5206
F89B  60        RTS                             A:3F X:40 Y:96 P:25 SP:F9 CYC:5208
D398  E4 78     CPX $78 = 3F                    A:3F X:40 Y:96 P:25 SP:FB CYC:5214
D39A  20 9C F8  JSR $F89C                       A:3F X:40 Y:96 P:25 SP:FB CYC:5217
F89C  F0 07     BEQ $F8A5                       A:3F X:40 Y:96 P:25 SP:F9 CYC:5223
F89E  30 05     BMI $F8A5                       A:3F X:40 Y:96 P:25 SP:F9 CYC:5225
F8A0  90 03     BCC $F8A5                       A:3F X:40 Y:96 P:25 SP:F9 CYC:5227
F8A2  70 01     BVS $F8A5                       A:3F X:40 Y:96 P:25 SP:F9 CYC:5229
F8A4  60        RTS                             A:3F X:40 Y:96 P:25 SP:F9 CYC:5231
D39D  C8        INY                             A:3F X:40 Y:96 P:25 SP:FB CYC:5237
D39E  A9 41     LDA #$41                        A:3F X:40 Y:97 P:A5 SP:FB CYC:5239
D3A0  85 78     STA $78 = 3F                    A:41 X:40 Y:97 P:25 SP:FB CYC:5241
D3A2  E4 78     CPX $78 = 41                    A:41 X:40 Y:97 P:25 SP:FB CYC:5244
D3A4  20 A8 F8  JSR $F8A8                       A:41 X:40 Y:97 P:A4 SP:FB CYC:5247
F8A8  F0 05     BEQ $F8AF                       A:41 X:40 Y:97 P:A4 SP:F9 CYC:5253
F8AA  10 03     BPL $F8AF                       A:41 X:40 Y:97 P:A4 SP:F9 CYC:5255
F8AC  10 01     BPL $F8AF                       A:41 X:40 Y:97 P:A4 SP:F9 CYC:5257
F8AE  60        RTS                             A:41 X:40 Y:97 P:A4 SP:F9 CYC:5259
D3A7  C8        INY                             A:41 X:40 Y:97 P:A4 SP:FB CYC:5265
D3A8  A9 00     LDA #$00                        A:41 X:40 Y:98 P:A4 SP:FB CYC:5267
D3AA  85 78     STA $78 = 41                    A:00 X:40 Y:98 P:26 SP:FB CYC:5269
D3AC  20 B2 F8  JSR $F8B2                       A:00 X:40 Y:98 P:26 SP:FB CYC:5272
F8B2  A9 80     LDA #$80                        A:00 X:40 Y:98 P:26 SP:F9 CYC:5278
F8B4  60        RTS                             A:80 X:40 Y:98 P:A4 SP:F9 CYC:5280
D3AF  AA        TAX                             A:80 X:40 Y:98 P:A4 SP:FB CYC:5286
D3B0  E4 78     CPX $78 = 00                    A:80 X:80 Y:98 P:A4 SP:FB CYC:5288
D3B2  20 B5 F8  JSR $F8B5                       A:80 X:80 Y:98 P:A5 SP:FB CYC:5291
F8B5  F0 05     BEQ $F8BC                       A:80 X:80 Y:98 P:A5 SP:F9 CYC:5297
F8B7  10 03     BPL $F8BC                       A:80 X:80 Y:98 P:A5 SP:F9 CYC:5299
F8B9  90 01     BCC $F8BC                       A:80 X:80 Y:98 P:A5 SP:F9 CYC:5301
F8BB  60        RTS                             A:80 X:80 Y:98 P:A5 SP:F9 CYC:5303
D3B5  C8        INY                             A:80 X:80 Y:98 P:A5 SP:FB CYC:5309
D3B6  A9 80     LDA #$80                        A:80 X:80 Y:99 P:A5 SP:FB CYC:5311
D3B8  85 78     STA $78 = 00                    A:80 X:80 Y:99 P:A5 SP:FB CYC:5313
D3BA  E4 78     CPX $78 = 80                    A:80 X:80 Y:99 P:A5 SP:FB CYC:5316
D3BC  20 BF F8  JSR $F8BF                       A:80 X:80 Y:99 P:27 SP:FB CYC:5319
F8BF  D0 05     BNE $F8C6                       A:80 X:80 Y:99 P:27 SP:F9 CYC:5325
F8C1  30 03     BMI $F8C6                       A:80 X:80 Y:99 P:27 SP:F9 CYC:5327
F8C3  90 01     BCC $F8C6                       A:80 X:80 Y:99 P:27 SP:F9 CYC:5329
F8C5  60        RTS                             A:80 X:80 Y:99 P:27 SP:F9 CYC:5331
D3BF  C8        INY                             A:80 X:80 Y:99 P:27 SP:FB CYC:5337
D3C0  A9 81     LDA #$81                        A:80 X:80 Y:9A P:A5 SP:FB CYC:5339
D3C2  85 78     STA $78 = 80                    A:81 X:80 Y:9A P:A5 SP:FB CYC:5341
D3C4  E4 78     CPX $78 = 81                    A:81 X:80 Y:9A P:A5 SP:FB CYC:5344
D3C6  20 C9 F8  JSR $F8C9                       A:81 X:80 Y:9A P:A4 SP:FB CYC:5347
F8C9  B0 05     BCS $F8D0                       A:81 X:80 Y:9A P:A4 SP:F9 CYC:5353
F8CB  F0 03     BEQ $F8D0                       A:81 X:80 Y:9A P:A4 SP:F9 CYC:5355
F8CD  10 01     BPL $F8D0                       A:81 X:80 Y:9A P:A4 SP:F9 CYC:5357
F8CF  60        RTS                             A:81 X:80 Y:9A P:A4 SP:F9 CYC:5359
D3C9  C8        INY                             A:81 X:80 Y:9A P:A4 SP:FB CYC:5365
D3CA  A9 7F     LDA #$7F                        A:81 X:80 Y:9B P:A4 SP:FB CYC:5367
D3CC  85 78     STA $78 = 81                    A:7F X:80 Y:9B P:24 SP:FB CYC:5369
D3CE  E4 78     CPX $78 = 7F                    A:7F X:80 Y:9B P:24 SP:FB CYC:5372
D3D0  20 D3 F8  JSR $F8D3                       A:7F X:80 Y:9B P:25 SP:FB CYC:5375
F8D3  90 05     BCC $F8DA                       A:7F X:80 Y:9B P:25 SP:F9 CYC:5381
F8D5  F0 03     BEQ $F8DA                       A:7F X:80 Y:9B P:25 SP:F9 CYC:5383
F8D7  30 01     BMI $F8DA                       A:7F X:80 Y:9B P:25 SP:F9 CYC:5385
F8D9  60        RTS                             A:7F X:80 Y:9B P:25 SP:F9 CYC:5387
D3D3  C8        INY                             A:7F X:80 Y:9B P:25 SP:FB CYC:5393
D3D4  98        TYA                             A:7F X:80 Y:9C P:A5 SP:FB CYC:5395
D3D5  AA        TAX                             A:9C X:80 Y:9C P:A5 SP:FB CYC:5397
D3D6  A9 40     LDA #$40                        A:9C X:9C Y:9C P:A5 SP:FB CYC:5399
D3D8  85 78     STA $78 = 7F                    A:40 X:9C Y:9C P:25 SP:FB CYC:5401
D3DA  20 DD F8  JSR $F8DD                       A:40 X:9C Y:9C P:25 SP:FB CYC:5404
F8DD  24 01     BIT $01 = FF                    A:40 X:9C Y:9C P:25 SP:F9 CYC:5410
F8DF  A0 40     LDY #$40                        A:40 X:9C Y:9C P:E5 SP:F9 CYC:5413
F8E1  60        RTS                             A:40 X:9C Y:40 P:65 SP:F9 CYC:5415
D3DD  C4 78     CPY $78 = 40                    A:40 X:9C Y:40 P:65 SP:FB CYC:5421
D3DF  20 E2 F8  JSR $F8E2                       A:40 X:9C Y:40 P:67 SP:FB CYC:5424
F8E2  30 07     BMI $F8EB                       A:40 X:9C Y:40 P:67 SP:F9 CYC:5430
F8E4  90 05     BCC $F8EB                       A:40 X:9C Y:40 P:67 SP:F9 CYC:5432
F8E6  D0 03     BNE $F8EB                       A:40 X:9C Y:40 P:67 SP:F9 CYC:5434
F8E8  50 01     BVC $F8EB                       A:40 X:9C Y:40 P:67 SP:F9 CYC:5436
F8EA  60        RTS                             A:40 X:9C Y:40 P:67 SP:F9 CYC:5438
D3E2  E8        INX                             A:40 X:9C Y:40 P:67 SP:FB CYC:5444
D3E3  A9 3F     LDA #$3F                        A:40 X:9D Y:40 P:E5 SP:FB CYC:5446
D3E5  85 78     STA $78 = 40                    A:3F X:9D Y:40 P:65 SP:FB CYC:5448
D3E7  20 EE F8  JSR $F8EE                       A:3F X:9D Y:40 P:65 SP:FB CYC:5451
F8EE  B8        CLV                             A:3F X:9D Y:40 P:65 SP:F9 CYC:5457
F8EF  60        RTS                             A:3F X:9D Y:40 P:25 SP:F9 CYC:5459
D3EA  C4 78     CPY $78 = 3F                    A:3F X:9D Y:40 P:25 SP:FB CYC:5465
D3EC  20 F0 F8  JSR $F8F0                       A:3F X:9D Y:40 P:25 SP:FB CYC:5468
F8F0  F0 07     BEQ $F8F9                       A:3F X:9D Y:40 P:25 SP:F9 CYC:5474
F8F2  30 05     BMI $F8F9                       A:3F X:9D Y:40 P:25 SP:F9 CYC:5476
F8F4  90 03     BCC $F8F9                       A:3F X:9D Y:40 P:25 SP:F9 CYC:5478
F8F6  70 01     BVS $F8F9                       A:3F X:9D Y:40 P:25 SP:F9 CYC:5480
F8F8  60        RTS                             A:3F X:9D Y:40 P:25 SP:F9 CYC:5482
D3EF  E8        INX                             A:3F X:9D Y:40 P:25 SP:FB CYC:5488
D3F0  A9 41     LDA #$41                        A:3F X:9E Y:40 P:A5 SP:FB CYC:5490
D3F2  85 78     STA $78 = 3F                    A:41 X:9E Y:40 P:25 SP:FB CYC:5492
D3F4  C4 78     CPY $78 = 41                    A:41 X:9E Y:40 P:25 SP:FB CYC:5495
D3F6  20 FC F8  JSR $F8FC                       A:41 X:9E Y:40 P:A4 SP:FB CYC:5498
F8FC  F0 05     BEQ $F903                       A:41 X:9E Y:40 P:A4 SP:F9 CYC:5504
F8FE  10 03     BPL $F903                       A:41 X:9E Y:40 P:A4 SP:F9 CYC:5506
F900  10 01     BPL $F903                       A:41 X:9E Y:40 P:A4 SP:F9 CYC:5508
F902  60        RTS                             A:41 X:9E Y:40 P:A4 SP:F9 CYC:5510
D3F9  E8        INX                             A:41 X:9E Y:40 P:A4 SP:FB CYC:5516
D3FA  A9 00     LDA #$00                        A:41 X:9F Y:40 P:A4 SP:FB CYC:5518
D3FC  85 78     STA $78 = 41                    A:00 X:9F Y:40 P:26 SP:FB CYC:5520
D3FE  20 06 F9  JSR $F906                       A:00 X:9F Y:40 P:26 SP:FB CYC:5523
F906  A0 80     LDY #$80                        A:00 X:9F Y:40 P:26 SP:F9 CYC:5529
F908  60        RTS                             A:00 X:9F Y:80 P:A4 SP:F9 CYC:5531
D401  C4 78     CPY $78 = 00                    A:00 X:9F Y:80 P:A4 SP:FB CYC:5537
D403  20 09 F9  JSR $F909                       A:00 X:9F Y:80 P:A5 SP:FB CYC:5540
F909  F0 05     BEQ $F910                       A:00 X:9F Y:80 P:A5 SP:F9 CYC:5546
F90B  10 03     BPL $F910                       A:00 X:9F Y:80 P:A5 SP:F9 CYC:5548
F90D  90 01     BCC $F910                       A:00 X:9F Y:80 P:A5 SP:F9 CYC:5550
F90F  60        RTS                             A:00 X:9F Y:80 P:A5 SP:F9 CYC:5552
D406  E8        INX                             A:00 X:9F Y:80 P:A5 SP:FB CYC:5558
D407  A9 80     LDA #$80                        A:00 X:A0 Y:80 P:A5 SP:FB CYC:5560
D409  85 78     STA $78 = 00                    A:80 X:A0 Y:80 P:A5 SP:FB CYC:5562
D40B  C4 78     CPY $78 = 80                    A:80 X:A0 Y:80 P:A5 SP:FB CYC:5565
D40D  20 13 F9  JSR $F913                       A:80 X:A0 Y:80 P:27 SP:FB CYC:5568
F913  D0 05     BNE $F91A                       A:80 X:A0 Y:80 P:27 SP:F9 CYC:5574
F915  30 03     BMI $F91A                       A:80 X:A0 Y:80 P:27 SP:F9 CYC:5576
F917  90 01     BCC $F91A                       A:80 X:A0 Y:80 P:27 SP:F9 CYC:5578
F919  60        RTS                             A:80 X:A0 Y:80 P:27 SP:F9 CYC:5580
D410  E8        INX                             A:80 X:A0 Y:80 P:27 SP:FB CYC:5586
D411  A9 81     LDA #$81                        A:80 X:A1 Y:80 P:A5 SP:FB CYC:5588
D413  85 78     STA $78 = 80                    A:81 X:A1 Y:80 P:A5 SP:FB CYC:5590
D415  C4 78     CPY $78 = 81                    A:81 X:A1 Y:80 P:A5 SP:FB CYC:5593
D417  20 1D F9  JSR $F91D                       A:81 X:A1 Y:80 P:A4 SP:FB CYC:5596
F91D  B0 05     BCS $F924                       A:81 X:A1 Y:80 P:A4 SP:F9 CYC:5602
F91F  F0 03     BEQ $F924                       A:81 X:A1 Y:80 P:A4 SP:F9 CYC:5604
F921  10 01     BPL $F924                       A:81 X:A1 Y:80 P:A4 SP:F9 CYC:5606
F923  60        RTS                             A:81 X:A1 Y:80 P:A4 SP:F9 CYC:5608
D41A  E8        INX                             A:81 X:A1 Y:80 P:A4 SP:FB CYC:5614
D41B  A9 7F     LDA #$7F                        A:81 X:A2 Y:80 P:A4 SP:FB CYC:5616
D41D  85 78     STA $78 = 81                    A:7F X:A2 Y:80 P:24 SP:FB CYC:5618
D41F  C4 78     CPY $78 = 7F                    A:7F X:A2 Y:80 P:24 SP:FB CYC:5621
D421  20 27 F9  JSR $F927                       A:7F X:A2 Y:80 P:25 SP:FB CYC:5624
F927  90 05     BCC $F92E                       A:7F X:A2 Y:80 P:25 SP:F9 CYC:5630
F929  F0 03     BEQ $F92E                       A:7F X:A2 Y:80 P:25 SP:F9 CYC:5632
F92B  30 01     BMI $F92E                       A:7F X:A2 Y:80 P:25 SP:F9 CYC:5634
F92D  60        RTS                             A:7F X:A2 Y:80 P:25 SP:F9 CYC:5636
D424  E8        INX                             A:7F X:A2 Y:80 P:25 SP:FB CYC:5642
D425  8A        TXA                             A:7F X:A3 Y:80 P:A5 SP:FB CYC:5644
D426  A8        TAY                             A:A3 X:A3 Y:80 P:A5 SP:FB CYC:5646
D427  20 90 F9  JSR $F990                       A:A3 X:A3 Y:A3 P:A5 SP:FB CYC:5648
F990  A2 55     LDX #$55                        A:A3 X:A3 Y:A3 P:A5 SP:F9 CYC:5654
F992  A9 FF     LDA #$FF                        A:A3 X:55 Y:A3 P:25 SP:F9 CYC:5656
F994  85 01     STA $01 = FF                    A:FF X:55 Y:A3 P:A5 SP:F9 CYC:5658
F996  EA        NOP                             A:FF X:55 Y:A3 P:A5 SP:F9 CYC:5661
F997  24 01     BIT $01 = FF                    A:FF X:55 Y:A3 P:A5 SP:F9 CYC:5663
F999  38        SEC                             A:FF X:55 Y:A3 P:E5 SP:F9 CYC:5666
F99A  A9 01     LDA #$01                        A:FF X:55 Y:A3 P:E5 SP:F9 CYC:5668
F99C  60        RTS                             A:01 X:55 Y:A3 P:65 SP:F9 CYC:5670
D42A  85 78     STA $78 = 7F                    A:01 X:55 Y:A3 P:65 SP:FB CYC:5676
D42C  46 78     LSR $78 = 01                    A:01 X:55 Y:A3 P:65 SP:FB CYC:5679
D42E  A5 78     LDA $78 = 00                    A:01 X:55 Y:A3 P:67 SP:FB CYC:5684
D430  20 9D F9  JSR $F99D                       A:00 X:55 Y:A3 P:67 SP:FB CYC:5687
F99D  90 1B     BCC $F9BA                       A:00 X:55 Y:A3 P:67 SP:F9 CYC:5693
F99F  D0 19     BNE $F9BA                       A:00 X:55 Y:A3 P:67 SP:F9 CYC:5695
F9A1  30 17     BMI $F9BA                       A:00 X:55 Y:A3 P:67 SP:F9 CYC:5697
F9A3  50 15     BVC $F9BA                       A:00 X:55 Y:A3 P:67 SP:F9 CYC:5699
F9A5  C9 00     CMP #$00                        A:00 X:55 Y:A3 P:67 SP:F9 CYC:5701
F9A7  D0 11     BNE $F9BA                       A:00 X:55 Y:A3 P:67 SP:F9 CYC:5703
F9A9  B8        CLV                             A:00 X:55 Y:A3 P:67 SP:F9 CYC:5705
F9AA  A9 AA     LDA #$AA                        A:00 X:55 Y:A3 P:27 SP:F9 CYC:5707
F9AC  60        RTS                             A:AA X:55 Y:A3 P:A5 SP:F9 CYC:5709
D433  C8        INY                             A:AA X:55 Y:A3 P:A5 SP:FB CYC:5715
D434  85 78     STA $78 = 00                    A:AA X:55 Y:A4 P:A5 SP:FB CYC:5717
D436  46 78     LSR $78 = AA                    A:AA X:55 Y:A4 P:A5 SP:FB CYC:5720
D438  A5 78     LDA $78 = 55                    A:AA X:55 Y:A4 P:24 SP:FB CYC:5725
D43A  20 AD F9  JSR $F9AD                       A:55 X:55 Y:A4 P:24 SP:FB CYC:5728
F9AD  B0 0B     BCS $F9BA                       A:55 X:55 Y:A4 P:24 SP:F9 CYC:5734
F9AF  F0 09     BEQ $F9BA                       A:55 X:55 Y:A4 P:24 SP:F9 CYC:5736
F9B1  30 07     BMI $F9BA                       A:55 X:55 Y:A4 P:24 SP:F9 CYC:5738
F9B3  70 05     BVS $F9BA                       A:55 X:55 Y:A4 P:24 SP:F9 CYC:5740
F9B5  C9 55     CMP #$55                        A:55 X:55 Y:A4 P:24 SP:F9 CYC:5742
F9B7  D0 01     BNE $F9BA                       A:55 X:55 Y:A4 P:27 SP:F9 CYC:5744
F9B9  60        RTS                             A:55 X:55 Y:A4 P:27 SP:F9 CYC:5746
D43D  C8        INY                             A:55 X:55 Y:A4 P:27 SP:FB CYC:5752
D43E  20 BD F9  JSR $F9BD                       A:55 X:55 Y:A5 P:A5 SP:FB CYC:5754
F9BD  24 01     BIT $01 = FF                    A:55 X:55 Y:A5 P:A5 SP:F9 CYC:5760
F9BF  38        SEC                             A:55 X:55 Y:A5 P:E5 SP:F9 CYC:5763
F9C0  A9 80     LDA #$80                        A:55 X:55 Y:A5 P:E5 SP:F9 CYC:5765
F9C2  60        RTS                             A:80 X:55 Y:A5 P:E5 SP:F9 CYC:5767
D441  85 78     STA $78 = 55                    A:80 X:55 Y:A5 P:E5 SP:FB CYC:5773
D443  06 78     ASL $78 = 80                    A:80 X:55 Y:A5 P:E5 SP:FB CYC:5776
D445  A5 78     LDA $78 = 00                    A:80 X:55 Y:A5 P:67 SP:FB CYC:5781
D447  20 C3 F9  JSR $F9C3                       A:00 X:55 Y:A5 P:67 SP:FB CYC:5784
F9C3  90 1C     BCC $F9E1                       A:00 X:55 Y:A5 P:67 SP:F9 CYC:5790
F9C5  D0 1A     BNE $F9E1                       A:00 X:55 Y:A5 P:67 SP:F9 CYC:5792
F9C7  30 18     BMI $F9E1                       A:00 X:55 Y:A5 P:67 SP:F9 CYC:5794
F9C9  50 16     BVC $F9E1                       A:00 X:55 Y:A5 P:67 SP:F9 CYC:5796
F9CB  C9 00     CMP #$00                        A:00 X:55 Y:A5 P:67 SP:F9 CYC:5798
F9CD  D0 12     BNE $F9E1                       A:00 X:55 Y:A5 P:67 SP:F9 CYC:5800
F9CF  B8        CLV                             A:00 X:55 Y:A5 P:67 SP:F9 CYC:5802
F9D0  A9 55     LDA #$55                        A:00 X:55 Y:A5 P:27 SP:F9 CYC:5804
F9D2  38        SEC                             A:55 X:55 Y:A5 P:25 SP:F9 CYC:5806
F9D3  60        RTS                             A:55 X:55 Y:A5 P:25 SP:F9 CYC:5808
D44A  C8        INY                             A:55 X:55 Y:A5 P:25 SP:FB CYC:5814
D44B  85 78     STA $78 = 00                    A:55 X:55 Y:A6 P:A5 SP:FB CYC:5816
D44D  06 78     ASL $78 = 55                    A:55 X:55 Y:A6 P:A5 SP:FB CYC:5819
D44F  A5 78     LDA $78 = AA                    A:55 X:55 Y:A6 P:A4 SP:FB CYC:5824
D451  20 D4 F9  JSR $F9D4                       A:AA X:55 Y:A6 P:A4 SP:FB CYC:5827
F9D4  B0 0B     BCS $F9E1                       A:AA X:55 Y:A6 P:A4 SP:F9 CYC:5833
F9D6  F0 09     BEQ $F9E1                       A:AA X:55 Y:A6 P:A4 SP:F9 CYC:5835
F9D8  10 07     BPL $F9E1                       A:AA X:55 Y:A6 P:A4 SP:F9 CYC:5837
F9DA  70 05     BVS $F9E1                       A:AA X:55 Y:A6 P:A4 SP:F9 CYC:5839
F9DC  C9 AA     CMP #$AA                        A:AA X:55 Y:A6 P:A4 SP:F9 CYC:5841
F9DE  D0 01     BNE $F9E1                       A:AA X:55 Y:A6 P:27 SP:F9 CYC:5843
F9E0  60        RTS                             A:AA X:55 Y:A6 P:27 SP:F9 CYC:5845
D454  C8        INY                             A:AA X:55 Y:A6 P:27 SP:FB CYC:5851
D455  20 E4 F9  JSR $F9E4                       A:AA X:55 Y:A7 P:A5 SP:FB CYC:5853
F9E4  24 01     BIT $01 = FF                    A:AA X:55 Y:A7 P:A5 SP:F9 CYC:5859
F9E6  38        SEC                             A:AA X:55 Y:A7 P:E5 SP:F9 CYC:5862
F9E7  A9 01     LDA #$01                        A:AA X:55 Y:A7 P:E5 SP:F9 CYC:5864
F9E9  60        RTS                             A:01 X:55 Y:A7 P:65 SP:F9 CYC:5866
D458  85 78     STA $78 = AA                    A:01 X:55 Y:A7 P:65 SP:FB CYC:5872
D45A  66 78     ROR $78 = 01                    A:01 X:55 Y:A7 P:65 SP:FB CYC:5875
D45C  A5 78     LDA $78 = 80                    A:01 X:55 Y:A7 P:E5 SP:FB CYC:5880
D45E  20 EA F9  JSR $F9EA                       A:80 X:55 Y:A7 P:E5 SP:FB CYC:5883
F9EA  90 1C     BCC $FA08                       A:80 X:55 Y:A7 P:E5 SP:F9 CYC:5889
F9EC  F0 1A     BEQ $FA08                       A:80 X:55 Y:A7 P:E5 SP:F9 CYC:5891
F9EE  10 18     BPL $FA08                       A:80 X:55 Y:A7 P:E5 SP:F9 CYC:5893
F9F0  50 16     BVC $FA08                       A:80 X:55 Y:A7 P:E5 SP:F9 CYC:5895
F9F2  C9 80     CMP #$80                        A:80 X:55 Y:A7 P:E5 SP:F9 CYC:5897
F9F4  D0 12     BNE $FA08                       A:80 X:55 Y:A7 P:67 SP:F9 CYC:5899
F9F6  B8        CLV                             A:80 X:55 Y:A7 P:67 SP:F9 CYC:5901
F9F7  18        CLC                             A:80 X:55 Y:A7 P:27 SP:F9 CYC:5903
F9F8  A9 55     LDA #$55                        A:80 X:55 Y:A7 P:26 SP:F9 CYC:5905
F9FA  60        RTS                             A:55 X:55 Y:A7 P:24 SP:F9 CYC:5907
D461  C8        INY                             A:55 X:55 Y:A7 P:24 SP:FB CYC:5913
D462  85 78     STA $78 = 80                    A:55 X:55 Y:A8 P:A4 SP:FB CYC:5915
D464  66 78     ROR $78 = 55                    A:55 X:55 Y:A8 P:A4 SP:FB CYC:5918
D466  A5 78     LDA $78 = 2A                    A:55 X:55 Y:A8 P:25 SP:FB CYC:5923
D468  20 FB F9  JSR $F9FB                       A:2A X:55 Y:A8 P:25 SP:FB CYC:5926
F9FB  90 0B     BCC $FA08                       A:2A X:55 Y:A8 P:25 SP:F9 CYC:5932
F9FD  F0 09     BEQ $FA08                       A:2A X:55 Y:A8 P:25 SP:F9 CYC:5934
F9FF  30 07     BMI $FA08                       A:2A X:55 Y:A8 P:25 SP:F9 CYC:5936
FA01  70 05     BVS $FA08                       A:2A X:55 Y:A8 P:25 SP:F9 CYC:5938
FA03  C9 2A     CMP #$2A                        A:2A X:55 Y:A8 P:25 SP:F9 CYC:5940
FA05  D0 01     BNE $FA08                       A:2A X:55 Y:A8 P:27 SP:F9 CYC:5942
FA07  60        RTS                             A:2A X:55 Y:A8 P:27 SP:F9 CYC:5944
D46B  C8        INY                             A:2A X:55 Y:A8 P:27 SP:FB CYC:5950
D46C  20 0A FA  JSR $FA0A                       A:2A X:55 Y:A9 P:A5 SP:FB CYC:5952
FA0A  24 01     BIT $01 = FF                    A:2A X:55 Y:A9 P:A5 SP:F9 CYC:5958
FA0C  38        SEC                             A:2A X:55 Y:A9 P:E5 SP:F9 CYC:5961
FA0D  A9 80     LDA #$80                        A:2A X:55 Y:A9 P:E5 SP:F9 CYC:5963
FA0F  60        RTS                             A:80 X:55 Y:A9 P:E5 SP:F9 CYC:5965
D46F  85 78     STA $78 = 2A                    A:80 X:55 Y:A9 P:E5 SP:FB CYC:5971
D471  26 78     ROL $78 = 80                    A:80 X:55 Y:A9 P:E5 SP:FB CYC:5974
D473  A5 78     LDA $78 = 01                    A:80 X:55 Y:A9 P:65 SP:FB CYC:5979
D475  20 10 FA  JSR $FA10                       A:01 X:55 Y:A9 P:65 SP:FB CYC:5982
FA10  90 1C     BCC $FA2E                       A:01 X:55 Y:A9 P:65 SP:F9 CYC:5988
FA12  F0 1A     BEQ $FA2E                       A:01 X:55 Y:A9 P:65 SP:F9 CYC:5990
FA14  30 18     BMI $FA2E                       A:01 X:55 Y:A9 P:65 SP:F9 CYC:5992
FA16  50 16     BVC $FA2E                       A:01 X:55 Y:A9 P:65 SP:F9 CYC:5994
FA18  C9 01     CMP #$01                        A:01 X:55 Y:A9 P:65 SP:F9 CYC:5996
FA1A  D0 12     BNE $FA2E                       A:01 X:55 Y:A9 P:67 SP:F9 CYC:5998
FA1C  B8        CLV                             A:01 X:55 Y:A9 P:67 SP:F9 CYC:6000
FA1D  18        CLC                             A:01 X:55 Y:A9 P:27 SP:F9 CYC:6002
FA1E  A9 55     LDA #$55                        A:01 X:55 Y:A9 P:26 SP:F9 CYC:6004
FA20  60        RTS                             A:55 X:55 Y:A9 P:24 SP:F9 CYC:6006
D478  C8        INY                             A:55 X:55 Y:A9 P:24 SP:FB CYC:6012
D479  85 78     STA $78 = 01                    A:55 X:55 Y:AA P:A4 SP:FB CYC:6014
D47B  26 78     ROL $78 = 55                    A:55 X:55 Y:AA P:A4 SP:FB CYC:6017
D47D  A5 78     LDA $78 = AA                    A:55 X:55 Y:AA P:A4 SP:FB CYC:6022
D47F  20 21 FA  JSR $FA21                       A:AA X:55 Y:AA P:A4 SP:FB CYC:6025
FA21  B0 0B     BCS $FA2E                       A:AA X:55 Y:AA P:A4 SP:F9 CYC:6031
FA23  F0 09     BEQ $FA2E                       A:AA X:55 Y:AA P:A4 SP:F9 CYC:6033
FA25  10 07     BPL $FA2E                       A:AA X:55 Y:AA P:A4 SP:F9 CYC:6035
FA27  70 05     BVS $FA2E                       A:AA X:55 Y:AA P:A4 SP:F9 CYC:6037
FA29  C9 AA     CMP #$AA                        A:AA X:55 Y:AA P:A4 SP:F9 CYC:6039
FA2B  D0 01     BNE $FA2E                       A:AA X:55 Y:AA P:27 SP:F9 CYC:6041
FA2D  60        RTS                             A:AA X:55 Y:AA P:27 SP:F9 CYC:6043
D482  A9 FF     LDA #$FF                        A:AA X:55 Y:AA P:27 SP:FB CYC:6049
D484  85 78     STA $78 = AA                    A:FF X:55 Y:AA P:A5 SP:FB CYC:6051
D486  85 01     STA $01 = FF                    A:FF X:55 Y:AA P:A5 SP:FB CYC:6054
D488  24 01     BIT $01 = FF                    A:FF X:55 Y:AA P:A5 SP:FB CYC:6057
D48A  38        SEC                             A:FF X:55 Y:AA P:E5 SP:FB CYC:6060
D48B  E6 78     INC $78 = FF                    A:FF X:55 Y:AA P:E5 SP:FB CYC:6062
D48D  D0 0C     BNE $D49B                       A:FF X:55 Y:AA P:67 SP:FB CYC:6067
D48F  30 0A     BMI $D49B                       A:FF X:55 Y:AA P:67 SP:FB CYC:6069
D491  50 08     BVC $D49B                       A:FF X:55 Y:AA P:67 SP:FB CYC:6071
D493  90 06     BCC $D49B                       A:FF X:55 Y:AA P:67 SP:FB CYC:6073
D495  A5 78     LDA $78 = 00                    A:FF X:55 Y:AA P:67 SP:FB CYC:6075
D497  C9 00     CMP #$00                        A:00 X:55 Y:AA P:67 SP:FB CYC:6078
D499  F0 04     BEQ $D49F                       A:00 X:55 Y:AA P:67 SP:FB CYC:6080
D49F  A9 7F     LDA #$7F                        A:00 X:55 Y:AA P:67 SP:FB CYC:6082
D4A1  85 78     STA $78 = 00                    A:7F X:55 Y:AA P:65 SP:FB CYC:6084
D4A3  B8        CLV                             A:7F X:55 Y:AA P:65 SP:FB CYC:6087
D4A4  18        CLC                             A:7F X:55 Y:AA P:25 SP:FB CYC:6089
D4A5  E6 78     INC $78 = 7F                    A:7F X:55 Y:AA P:24 SP:FB CYC:6091
D4A7  F0 0C     BEQ $D4B5                       A:7F X:55 Y:AA P:A4 SP:FB CYC:6096
D4A9  10 0A     BPL $D4B5                       A:7F X:55 Y:AA P:A4 SP:FB CYC:6098
D4AB  70 08     BVS $D4B5                       A:7F X:55 Y:AA P:A4 SP:FB CYC:6100
D4AD  B0 06     BCS $D4B5                       A:7F X:55 Y:AA P:A4 SP:FB CYC:6102
D4AF  A5 78     LDA $78 = 80                    A:7F X:55 Y:AA P:A4 SP:FB CYC:6104
D4B1  C9 80     CMP #$80                        A:80 X:55 Y:AA P:A4 SP:FB CYC:6107
D4B3  F0 04     BEQ $D4B9                       A:80 X:55 Y:AA P:27 SP:FB CYC:6109
D4B9  A9 00     LDA #$00                        A:80 X:55 Y:AA P:27 SP:FB CYC:6111
D4BB  85 78     STA $78 = 80                    A:00 X:55 Y:AA P:27 SP:FB CYC:6113
D4BD  24 01     BIT $01 = FF                    A:00 X:55 Y:AA P:27 SP:FB CYC:6116
D4BF  38        SEC                             A:00 X:55 Y:AA P:E7 SP:FB CYC:6119
D4C0  C6 78     DEC $78 = 00                    A:00 X:55 Y:AA P:E7 SP:FB CYC:6121
D4C2  F0 0C     BEQ $D4D0                       A:00 X:55 Y:AA P:E5 SP:FB CYC:6126
D4C4  10 0A     BPL $D4D0                       A:00 X:55 Y:AA P:E5 SP:FB CYC:6128
D4C6  50 08     BVC $D4D0                       A:00 X:55 Y:AA P:E5 SP:FB CYC:6130
D4C8  90 06     BCC $D4D0                       A:00 X:55 Y:AA P:E5 SP:FB CYC:6132
D4CA  A5 78     LDA $78 = FF                    A:00 X:55 Y:AA P:E5 SP:FB CYC:6134
D4CC  C9 FF     CMP #$FF                        A:FF X:55 Y:AA P:E5 SP:FB CYC:6137
D4CE  F0 04     BEQ $D4D4                       A:FF X:55 Y:AA P:67 SP:FB CYC:6139
D4D4  A9 80     LDA #$80                        A:FF X:55 Y:AA P:67 SP:FB CYC:6141
D4D6  85 78     STA $78 = FF                    A:80 X:55 Y:AA P:E5 SP:FB CYC:6143
D4D8  B8        CLV                             A:80 X:55 Y:AA P:E5 SP:FB CYC:6146
D4D9  18        CLC                             A:80 X:55 Y:AA P:A5 SP:FB CYC:6148
D4DA  C6 78     DEC $78 = 80                    A:80 X:55 Y:AA P:A4 SP:FB CYC:6150
D4DC  F0 0C     BEQ $D4EA                       A:80 X:55 Y:AA P:24 SP:FB CYC:6155
D4DE  30 0A     BMI $D4EA                       A:80 X:55 Y:AA P:24 SP:FB CYC:6157
D4E0  70 08     BVS $D4EA                       A:80 X:55 Y:AA P:24 SP:FB CYC:6159
D4E2  B0 06     BCS $D4EA                       A:80 X:55 Y:AA P:24 SP:FB CYC:6161
D4E4  A5 78     LDA $78 = 7F                    A:80 X:55 Y:AA P:24 SP:FB CYC:6163
D4E6  C9 7F     CMP #$7F                        A:7F X:55 Y:AA P:24 SP:FB CYC:6166
D4E8  F0 04     BEQ $D4EE                       A:7F X:55 Y:AA P:27 SP:FB CYC:6168
D4EE  A9 01     LDA #$01                        A:7F X:55 Y:AA P:27 SP:FB CYC:6170
D4F0  85 78     STA $78 = 7F                    A:01 X:55 Y:AA P:25 SP:FB CYC:6172
D4F2  C6 78     DEC $78 = 01                    A:01 X:55 Y:AA P:25 SP:FB CYC:6175
D4F4  F0 04     BEQ $D4FA                       A:01 X:55 Y:AA P:27 SP:FB CYC:6180
D4FA  60        RTS                             A:01 X:55 Y:AA P:27 SP:FB CYC:6182
C615  20 FB D4  JSR $D4FB                       A:01 X:55 Y:AA P:27 SP:FD CYC:6188
D4FB  A9 55     LDA #$55                        A:01 X:55 Y:AA P:27 SP:FB CYC:6194
D4FD  8D 78 06  STA $0678 = 00                  A:55 X:55 Y:AA P:25 SP:FB CYC:6196
D500  A9 FF     LDA #$FF                        A:55 X:55 Y:AA P:25 SP:FB CYC:6200
D502  85 01     STA $01 = FF                    A:FF X:55 Y:AA P:A5 SP:FB CYC:6202
D504  24 01     BIT $01 = FF                    A:FF X:55 Y:AA P:A5 SP:FB CYC:6205
D506  A0 11     LDY #$11                        A:FF X:55 Y:AA P:E5 SP:FB CYC:6208
D508  A2 23     LDX #$23                        A:FF X:55 Y:11 P:65 SP:FB CYC:6210
D50A  A9 00     LDA #$00                        A:FF X:23 Y:11 P:65 SP:FB CYC:6212
D50C  AD 78 06  LDA $0678 = 55                  A:00 X:23 Y:11 P:67 SP:FB CYC:6214
D50F  F0 10     BEQ $D521                       A:55 X:23 Y:11 P:65 SP:FB CYC:6218
D511  30 0E     BMI $D521                       A:55 X:23 Y:11 P:65 SP:FB CYC:6220
D513  C9 55     CMP #$55                        A:55 X:23 Y:11 P:65 SP:FB CYC:6222
D515  D0 0A     BNE $D521                       A:55 X:23 Y:11 P:67 SP:FB CYC:6224
D517  C0 11     CPY #$11                        A:55 X:23 Y:11 P:67 SP:FB CYC:6226
D519  D0 06     BNE $D521                       A:55 X:23 Y:11 P:67 SP:FB CYC:6228
D51B  E0 23     CPX #$23                        A:55 X:23 Y:11 P:67 SP:FB CYC:6230
D51D  50 02     BVC $D521                       A:55 X:23 Y:11 P:67 SP:FB CYC:6232
D51F  F0 04     BEQ $D525                       A:55 X:23 Y:11 P:67 SP:FB CYC:6234
D525  A9 46     LDA #$46                        A:55 X:23 Y:11 P:67 SP:FB CYC:6236
D527  24 01     BIT $01 = FF                    A:46 X:23 Y:11 P:65 SP:FB CYC:6238
D529  8D 78 06  STA $0678 = 55                  A:46 X:23 Y:11 P:E5 SP:FB CYC:6241
D52C  F0 0B     BEQ $D539                       A:46 X:23 Y:11 P:E5 SP:FB CYC:6245
D52E  10 09     BPL $D539                       A:46 X:23 Y:11 P:E5 SP:FB CYC:6247
D530  50 07     BVC $D539                       A:46 X:23 Y:11 P:E5 SP:FB CYC:6249
D532  AD 78 06  LDA $0678 = 46                  A:46 X:23 Y:11 P:E5 SP:FB CYC:6251
D535  C9 46     CMP #$46                        A:46 X:23 Y:11 P:65 SP:FB CYC:6255
D537  F0 04     BEQ $D53D                       A:46 X:23 Y:11 P:67 SP:FB CYC:6257
D53D  A9 55     LDA #$55                        A:46 X:23 Y:11 P:67 SP:FB CYC:6259
D53F  8D 78 06  STA $0678 = 46                  A:55 X:23 Y:11 P:65 SP:FB CYC:6261
D542  24 01     BIT $01 = FF                    A:55 X:23 Y:11 P:65 SP:FB CYC:6265
D544  A9 11     LDA #$11                        A:55 X:23 Y:11 P:E5 SP:FB CYC:6268
D546  A2 23     LDX #$23                        A:11 X:23 Y:11 P:65 SP:FB CYC:6270
D548  A0 00     LDY #$00                        A:11 X:23 Y:11 P:65 SP:FB CYC:6272
D54A  AC 78 06  LDY $0678 = 55                  A:11 X:23 Y:00 P:67 SP:FB CYC:6274
D54D  F0 10     BEQ $D55F                       A:11 X:23 Y:55 P:65 SP:FB CYC:6278
D54F  30 0E     BMI $D55F                       A:11 X:23 Y:55 P:65 SP:FB CYC:6280
D551  C0 55     CPY #$55                        A:11 X:23 Y:55 P:65 SP:FB CYC:6282
D553  D0 0A     BNE $D55F                       A:11 X:23 Y:55 P:67 SP:FB CYC:6284
D555  C9 11     CMP #$11                        A:11 X:23 Y:55 P:67 SP:FB CYC:6286
D557  D0 06     BNE $D55F                       A:11 X:23 Y:55 P:67 SP:FB CYC:6288
D559  E0 23     CPX #$23                        A:11 X:23 Y:55 P:67 SP:FB CYC:6290
D55B  50 02     BVC $D55F                       A:11 X:23 Y:55 P:67 SP:FB CYC:6292
D55D  F0 04     BEQ $D563                       A:11 X:23 Y:55 P:67 SP:FB CYC:6294
D563  A0 46     LDY #$46                        A:11 X:23 Y:55 P:67 SP:FB CYC:6296
D565  24 01     BIT $01 = FF                    A:11 X:23 Y:46 P:65 SP:FB CYC:6298
D567  8C 78 06  STY $0678 = 55                  A:11 X:23 Y:46 P:E5 SP:FB CYC:6301
D56A  F0 0B     BEQ $D577                       A:11 X:23 Y:46 P:E5 SP:FB CYC:6305
D56C  10 09     BPL $D577                       A:11 X:23 Y:46 P:E5 SP:FB CYC:6307
D56E  50 07     BVC $D577                       A:11 X:23 Y:46 P:E5 SP:FB CYC:6309
D570  AC 78 06  LDY $0678 = 46                  A:11 X:23 Y:46 P:E5 SP:FB CYC:6311
D573  C0 46     CPY #$46                        A:11 X:23 Y:46 P:65 SP:FB CYC:6315
D575  F0 04     BEQ $D57B                       A:11 X:23 Y:46 P:67 SP:FB CYC:6317
D57B  24 01     BIT $01 = FF                    A:11 X:23 Y:46 P:67 SP:FB CYC:6319
D57D  A9 55     LDA #$55                        A:11 X:23 Y:46 P:E5 SP:FB CYC:6322
D57F  8D 78 06  STA $0678 = 46                  A:55 X:23 Y:46 P:65 SP:FB CYC:6324
D582  A0 11     LDY #$11                        A:55 X:23 Y:46 P:65 SP:FB CYC:6328
D584  A9 23     LDA #$23                        A:55 X:23 Y:11 P:65 SP:FB CYC:6330
D586  A2 00     LDX #$00                        A:23 X:23 Y:11 P:65 SP:FB CYC:6332
D588  AE 78 06  LDX $0678 = 55                  A:23 X:00 Y:11 P:67 SP:FB CYC:6334
D58B  F0 10     BEQ $D59D                       A:23 X:55 Y:11 P:65 SP:FB CYC:6338
D58D  30 0E     BMI $D59D                       A:23 X:55 Y:11 P:65 SP:FB CYC:6340
D58F  E0 55     CPX #$55                        A:23 X:55 Y:11 P:65 SP:FB CYC:6342
D591  D0 0A     BNE $D59D                       A:23 X:55 Y:11 P:67 SP:FB CYC:6344
D593  C0 11     CPY #$11                        A:23 X:55 Y:11 P:67 SP:FB CYC:6346
D595  D0 06     BNE $D59D                       A:23 X:55 Y:11 P:67 SP:FB CYC:6348
D597  C9 23     CMP #$23                        A:23 X:55 Y:11 P:67 SP:FB CYC:6350
D599  50 02     BVC $D59D                       A:23 X:55 Y:11 P:67 SP:FB CYC:6352
D59B  F0 04     BEQ $D5A1                       A:23 X:55 Y:11 P:67 SP:FB CYC:6354
D5A1  A2 46     LDX #$46                        A:23 X:55 Y:11 P:67 SP:FB CYC:6356
D5A3  24 01     BIT $01 = FF                    A:23 X:46 Y:11 P:65 SP:FB CYC:6358
D5A5  8E 78 06  STX $0678 = 55                  A:23 X:46 Y:11 P:E5 SP:FB CYC:6361
D5A8  F0 0B     BEQ $D5B5                       A:23 X:46 Y:11 P:E5 SP:FB CYC:6365
D5AA  10 09     BPL $D5B5                       A:23 X:46 Y:11 P:E5 SP:FB CYC:6367
D5AC  50 07     BVC $D5B5                       A:23 X:46 Y:11 P:E5 SP:FB CYC:6369
D5AE  AE 78 06  LDX $0678 = 46                  A:23 X:46 Y:11 P:E5 SP:FB CYC:6371
D5B1  E0 46     CPX #$46                        A:23 X:46 Y:11 P:65 SP:FB CYC:6375
D5B3  F0 04     BEQ $D5B9                       A:23 X:46 Y:11 P:67 SP:FB CYC:6377
D5B9  A9 C0     LDA #$C0                        A:23 X:46 Y:11 P:67 SP:FB CYC:6379
D5BB  8D 78 06  STA $0678 = 46                  A:C0 X:46 Y:11 P:E5 SP:FB CYC:6381
D5BE  A2 33     LDX #$33                        A:C0 X:46 Y:11 P:E5 SP:FB CYC:6385
D5C0  A0 88     LDY #$88                        A:C0 X:33 Y:11 P:65 SP:FB CYC:6387
D5C2  A9 05     LDA #$05                        A:C0 X:33 Y:88 P:E5 SP:FB CYC:6389
D5C4  2C 78 06  BIT $0678 = C0                  A:05 X:33 Y:88 P:65 SP:FB CYC:6391
D5C7  10 10     BPL $D5D9                       A:05 X:33 Y:88 P:E7 SP:FB CYC:6394
D5C9  50 0E     BVC $D5D9                       A:05 X:33 Y:88 P:E7 SP:FB CYC:6396
D5CB  D0 0C     BNE $D5D9                       A:05 X:33 Y:88 P:E7 SP:FB CYC:6398
D5CD  C9 05     CMP #$05                        A:05 X:33 Y:88 P:E7 SP:FB CYC:6400
D5CF  D0 08     BNE $D5D9                       A:05 X:33 Y:88 P:67 SP:FB CYC:6402
D5D1  E0 33     CPX #$33                        A:05 X:33 Y:88 P:67 SP:FB CYC:6404
D5D3  D0 04     BNE $D5D9                       A:05 X:33 Y:88 P:67 SP:FB CYC:6406
D5D5  C0 88     CPY #$88                        A:05 X:33 Y:88 P:67 SP:FB CYC:6408
D5D7  F0 04     BEQ $D5DD                       A:05 X:33 Y:88 P:67 SP:FB CYC:6410
D5DD  A9 03     LDA #$03                        A:05 X:33 Y:88 P:67 SP:FB CYC:6412
D5DF  8D 78 06  STA $0678 = C0                  A:03 X:33 Y:88 P:65 SP:FB CYC:6414
D5E2  A9 01     LDA #$01                        A:03 X:33 Y:88 P:65 SP:FB CYC:6418
D5E4  2C 78 06  BIT $0678 = 03                  A:01 X:33 Y:88 P:65 SP:FB CYC:6420
D5E7  30 08     BMI $D5F1                       A:01 X:33 Y:88 P:25 SP:FB CYC:6423
D5E9  70 06     BVS $D5F1                       A:01 X:33 Y:88 P:25 SP:FB CYC:6425
D5EB  F0 04     BEQ $D5F1                       A:01 X:33 Y:88 P:25 SP:FB CYC:6427
D5ED  C9 01     CMP #$01                        A:01 X:33 Y:88 P:25 SP:FB CYC:6429
D5EF  F0 04     BEQ $D5F5                       A:01 X:33 Y:88 P:27 SP:FB CYC:6431
D5F5  A0 B8     LDY #$B8                        A:01 X:33 Y:88 P:27 SP:FB CYC:6433
D5F7  A9 AA     LDA #$AA                        A:01 X:33 Y:B8 P:A5 SP:FB CYC:6435
D5F9  8D 78 06  STA $0678 = 03                  A:AA X:33 Y:B8 P:A5 SP:FB CYC:6437
D5FC  20 B6 F7  JSR $F7B6                       A:AA X:33 Y:B8 P:A5 SP:FB CYC:6441
F7B6  18        CLC                             A:AA X:33 Y:B8 P:A5 SP:F9 CYC:6447
F7B7  A9 FF     LDA #$FF                        A:AA X:33 Y:B8 P:A4 SP:F9 CYC:6449
F7B9  85 01     STA $01 = FF                    A:FF X:33 Y:B8 P:A4 SP:F9 CYC:6451
F7BB  24 01     BIT $01 = FF                    A:FF X:33 Y:B8 P:A4 SP:F9 CYC:6454
F7BD  A9 55     LDA #$55                        A:FF X:33 Y:B8 P:E4 SP:F9 CYC:6457
F7BF  60        RTS                             A:55 X:33 Y:B8 P:64 SP:F9 CYC:6459
D5FF  0D 78 06  ORA $0678 = AA                  A:55 X:33 Y:B8 P:64 SP:FB CYC:6465
D602  20 C0 F7  JSR $F7C0                       A:FF X:33 Y:B8 P:E4 SP:FB CYC:6469
F7C0  B0 09     BCS $F7CB                       A:FF X:33 Y:B8 P:E4 SP:F9 CYC:6475
F7C2  10 07     BPL $F7CB                       A:FF X:33 Y:B8 P:E4 SP:F9 CYC:6477
F7C4  C9 FF     CMP #$FF                        A:FF X:33 Y:B8 P:E4 SP:F9 CYC:6479
F7C6  D0 03     BNE $F7CB                       A:FF X:33 Y:B8 P:67 SP:F9 CYC:6481
F7C8  50 01     BVC $F7CB                       A:FF X:33 Y:B8 P:67 SP:F9 CYC:6483
F7CA  60        RTS                             A:FF X:33 Y:B8 P:67 SP:F9 CYC:6485
D605  C8        INY                             A:FF X:33 Y:B8 P:67 SP:FB CYC:6491
D606  A9 00     LDA #$00                        A:FF X:33 Y:B9 P:E5 SP:FB CYC:6493
D608  8D 78 06  STA $0678 = AA                  A:00 X:33 Y:B9 P:67 SP:FB CYC:6495
D60B  20 CE F7  JSR $F7CE                       A:00 X:33 Y:B9 P:67 SP:FB CYC:6499
F7CE  38        SEC                             A:00 X:33 Y:B9 P:67 SP:F9 CYC:6505
F7CF  B8        CLV                             A:00 X:33 Y:B9 P:67 SP:F9 CYC:6507
F7D0  A9 00     LDA #$00                        A:00 X:33 Y:B9 P:27 SP:F9 CYC:6509
F7D2  60        RTS                             A:00 X:33 Y:B9 P:27 SP:F9 CYC:6511
D60E  0D 78 06  ORA $0678 = 00                  A:00 X:33 Y:B9 P:27 SP:FB CYC:6517
D611  20 D3 F7  JSR $F7D3                       A:00 X:33 Y:B9 P:27 SP:FB CYC:6521
F7D3  D0 07     BNE $F7DC                       A:00 X:33 Y:B9 P:27 SP:F9 CYC:6527
F7D5  70 05     BVS $F7DC                       A:00 X:33 Y:B9 P:27 SP:F9 CYC:6529
F7D7  90 03     BCC $F7DC                       A:00 X:33 Y:B9 P:27 SP:F9 CYC:6531
F7D9  30 01     BMI $F7DC                       A:00 X:33 Y:B9 P:27 SP:F9 CYC:6533
F7DB  60        RTS                             A:00 X:33 Y:B9 P:27 SP:F9 CYC:6535
D614  C8        INY                             A:00 X:33 Y:B9 P:27 SP:FB CYC:6541
D615  A9 AA     LDA #$AA                        A:00 X:33 Y:BA P:A5 SP:FB CYC:6543
D617  8D 78 06  STA $0678 = 00                  A:AA X:33 Y:BA P:A5 SP:FB CYC:6545
D61A  20 DF F7  JSR $F7DF                       A:AA X:33 Y:BA P:A5 SP:FB CYC:6549
F7DF  18        CLC                             A:AA X:33 Y:BA P:A5 SP:F9 CYC:6555
F7E0  24 01     BIT $01 = FF                    A:AA X:33 Y:BA P:A4 SP:F9 CYC:6557
F7E2  A9 55     LDA #$55                        A:AA X:33 Y:BA P:E4 SP:F9 CYC:6560
F7E4  60        RTS                             A:55 X:33 Y:BA P:64 SP:F9 CYC:6562
D61D  2D 78 06  AND $0678 = AA                  A:55 X:33 Y:BA P:64 SP:FB CYC:6568
D620  20 E5 F7  JSR $F7E5                       A:00 X:33 Y:BA P:66 SP:FB CYC:6572
F7E5  D0 07     BNE $F7EE                       A:00 X:33 Y:BA P:66 SP:F9 CYC:6578
F7E7  50 05     BVC $F7EE                       A:00 X:33 Y:BA P:66 SP:F9 CYC:6580
F7E9  B0 03     BCS $F7EE                       A:00 X:33 Y:BA P:66 SP:F9 CYC:6582
F7EB  30 01     BMI $F7EE                       A:00 X:33 Y:BA P:66 SP:F9 CYC:6584
F7ED  60        RTS                             A:00 X:33 Y:BA P:66 SP:F9 CYC:6586
D623  C8        INY                             A:00 X:33 Y:BA P:66 SP:FB CYC:6592
D624  A9 EF     LDA #$EF                        A:00 X:33 Y:BB P:E4 SP:FB CYC:6594
D626  8D 78 06  STA $0678 = AA                  A:EF X:33 Y:BB P:E4 SP:FB CYC:6596
D629  20 F1 F7  JSR $F7F1                       A:EF X:33 Y:BB P:E4 SP:FB CYC:6600
F7F1  38        SEC                             A:EF X:33 Y:BB P:E4 SP:F9 CYC:6606
F7F2  B8        CLV                             A:EF X:33 Y:BB P:E5 SP:F9 CYC:6608
F7F3  A9 F8     LDA #$F8                        A:EF X:33 Y:BB P:A5 SP:F9 CYC:6610
F7F5  60        RTS                             A:F8 X:33 Y:BB P:A5 SP:F9 CYC:6612
D62C  2D 78 06  AND $0678 = EF                  A:F8 X:33 Y:BB P:A5 SP:FB CYC:6618
D62F  20 F6 F7  JSR $F7F6                       A:E8 X:33 Y:BB P:A5 SP:FB CYC:6622
F7F6  90 09     BCC $F801                       A:E8 X:33 Y:BB P:A5 SP:F9 CYC:6628
F7F8  10 07     BPL $F801                       A:E8 X:33 Y:BB P:A5 SP:F9 CYC:6630
F7FA  C9 E8     CMP #$E8                        A:E8 X:33 Y:BB P:A5 SP:F9 CYC:6632
F7FC  D0 03     BNE $F801                       A:E8 X:33 Y:BB P:27 SP:F9 CYC:6634
F7FE  70 01     BVS $F801                       A:E8 X:33 Y:BB P:27 SP:F9 CYC:6636
F800  60        RTS                             A:E8 X:33 Y:BB P:27 SP:F9 CYC:6638
D632  C8        INY                             A:E8 X:33 Y:BB P:27 SP:FB CYC:6644
D633  A9 AA     LDA #$AA                        A:E8 X:33 Y:BC P:A5 SP:FB CYC:6646
D635  8D 78 06  STA $0678 = EF                  A:AA X:33 Y:BC P:A5 SP:FB CYC:6648
D638  20 04 F8  JSR $F804                       A:AA X:33 Y:BC P:A5 SP:FB CYC:6652
F804  18        CLC                             A:AA X:33 Y:BC P:A5 SP:F9 CYC:6658
F805  24 01     BIT $01 = FF                    A:AA X:33 Y:BC P:A4 SP:F9 CYC:6660
F807  A9 5F     LDA #$5F                        A:AA X:33 Y:BC P:E4 SP:F9 CYC:6663
F809  60        RTS                             A:5F X:33 Y:BC P:64 SP:F9 CYC:6665
D63B  4D 78 06  EOR $0678 = AA                  A:5F X:33 Y:BC P:64 SP:FB CYC:6671
D63E  20 0A F8  JSR $F80A                       A:F5 X:33 Y:BC P:E4 SP:FB CYC:6675
F80A  B0 09     BCS $F815                       A:F5 X:33 Y:BC P:E4 SP:F9 CYC:6681
F80C  10 07     BPL $F815                       A:F5 X:33 Y:BC P:E4 SP:F9 CYC:6683
F80E  C9 F5     CMP #$F5                        A:F5 X:33 Y:BC P:E4 SP:F9 CYC:6685
F810  D0 03     BNE $F815                       A:F5 X:33 Y:BC P:67 SP:F9 CYC:6687
F812  50 01     BVC $F815                       A:F5 X:33 Y:BC P:67 SP:F9 CYC:6689
F814  60        RTS                             A:F5 X:33 Y:BC P:67 SP:F9 CYC:6691
D641  C8        INY                             A:F5 X:33 Y:BC P:67 SP:FB CYC:6697
D642  A9 70     LDA #$70                        A:F5 X:33 Y:BD P:E5 SP:FB CYC:6699
D644  8D 78 06  STA $0678 = AA                  A:70 X:33 Y:BD P:65 SP:FB CYC:6701
D647  20 18 F8  JSR $F818                       A:70 X:33 Y:BD P:65 SP:FB CYC:6705
F818  38        SEC                             A:70 X:33 Y:BD P:65 SP:F9 CYC:6711
F819  B8        CLV                             A:70 X:33 Y:BD P:65 SP:F9 CYC:6713
F81A  A9 70     LDA #$70                        A:70 X:33 Y:BD P:25 SP:F9 CYC:6715
F81C  60        RTS                             A:70 X:33 Y:BD P:25 SP:F9 CYC:6717
D64A  4D 78 06  EOR $0678 = 70                  A:70 X:33 Y:BD P:25 SP:FB CYC:6723
D64D  20 1D F8  JSR $F81D                       A:00 X:33 Y:BD P:27 SP:FB CYC:6727
F81D  D0 07     BNE $F826                       A:00 X:33 Y:BD P:27 SP:F9 CYC:6733
F81F  70 05     BVS $F826                       A:00 X:33 Y:BD P:27 SP:F9 CYC:6735
F821  90 03     BCC $F826                       A:00 X:33 Y:BD P:27 SP:F9 CYC:6737
F823  30 01     BMI $F826                       A:00 X:33 Y:BD P:27 SP:F9 CYC:6739
F825  60        RTS                             A:00 X:33 Y:BD P:27 SP:F9 CYC:6741
D650  C8        INY                             A:00 X:33 Y:BD P:27 SP:FB CYC:6747
D651  A9 69     LDA #$69                        A:00 X:33 Y:BE P:A5 SP:FB CYC:6749
D653  8D 78 06  STA $0678 = 70                  A:69 X:33 Y:BE P:25 SP:FB CYC:6751
D656  20 29 F8  JSR $F829                       A:69 X:33 Y:BE P:25 SP:FB CYC:6755
F829  18        CLC                             A:69 X:33 Y:BE P:25 SP:F9 CYC:6761
F82A  24 01     BIT $01 = FF                    A:69 X:33 Y:BE P:24 SP:F9 CYC:6763
F82C  A9 00     LDA #$00                        A:69 X:33 Y:BE P:E4 SP:F9 CYC:6766
F82E  60        RTS                             A:00 X:33 Y:BE P:66 SP:F9 CYC:6768
D659  6D 78 06  ADC $0678 = 69                  A:00 X:33 Y:BE P:66 SP:FB CYC:6774
D65C  20 2F F8  JSR $F82F                       A:69 X:33 Y:BE P:24 SP:FB CYC:6778
F82F  30 09     BMI $F83A                       A:69 X:33 Y:BE P:24 SP:F9 CYC:6784
F831  B0 07     BCS $F83A                       A:69 X:33 Y:BE P:24 SP:F9 CYC:6786
F833  C9 69     CMP #$69                        A:69 X:33 Y:BE P:24 SP:F9 CYC:6788
F835  D0 03     BNE $F83A                       A:69 X:33 Y:BE P:27 SP:F9 CYC:6790
F837  70 01     BVS $F83A                       A:69 X:33 Y:BE P:27 SP:F9 CYC:6792
F839  60        RTS                             A:69 X:33 Y:BE P:27 SP:F9 CYC:6794
D65F  C8        INY                             A:69 X:33 Y:BE P:27 SP:FB CYC:6800
D660  20 3D F8  JSR $F83D                       A:69 X:33 Y:BF P:A5 SP:FB CYC:6802
F83D  38        SEC                             A:69 X:33 Y:BF P:A5 SP:F9 CYC:6808
F83E  24 01     BIT $01 = FF                    A:69 X:33 Y:BF P:A5 SP:F9 CYC:6810
F840  A9 00     LDA #$00                        A:69 X:33 Y:BF P:E5 SP:F9 CYC:6813
F842  60        RTS                             A:00 X:33 Y:BF P:67 SP:F9 CYC:6815
D663  6D 78 06  ADC $0678 = 69                  A:00 X:33 Y:BF P:67 SP:FB CYC:6821
D666  20 43 F8  JSR $F843                       A:6A X:33 Y:BF P:24 SP:FB CYC:6825
F843  30 09     BMI $F84E                       A:6A X:33 Y:BF P:24 SP:F9 CYC:6831
F845  B0 07     BCS $F84E                       A:6A X:33 Y:BF P:24 SP:F9 CYC:6833
F847  C9 6A     CMP #$6A                        A:6A X:33 Y:BF P:24 SP:F9 CYC:6835
F849  D0 03     BNE $F84E                       A:6A X:33 Y:BF P:27 SP:F9 CYC:6837
F84B  70 01     BVS $F84E                       A:6A X:33 Y:BF P:27 SP:F9 CYC:6839
F84D  60        RTS                             A:6A X:33 Y:BF P:27 SP:F9 CYC:6841
D669  C8        INY                             A:6A X:33 Y:BF P:27 SP:FB CYC:6847
D66A  A9 7F     LDA #$7F                        A:6A X:33 Y:C0 P:A5 SP:FB CYC:6849
D66C  8D 78 06  STA $0678 = 69                  A:7F X:33 Y:C0 P:25 SP:FB CYC:6851
D66F  20 51 F8  JSR $F851                       A:7F X:33 Y:C0 P:25 SP:FB CYC:6855
F851  38        SEC                             A:7F X:33 Y:C0 P:25 SP:F9 CYC:6861
F852  B8        CLV                             A:7F X:33 Y:C0 P:25 SP:F9 CYC:6863
F853  A9 7F     LDA #$7F                        A:7F X:33 Y:C0 P:25 SP:F9 CYC:6865
F855  60        RTS                             A:7F X:33 Y:C0 P:25 SP:F9 CYC:6867
D672  6D 78 06  ADC $0678 = 7F                  A:7F X:33 Y:C0 P:25 SP:FB CYC:6873
D675  20 56 F8  JSR $F856                       A:FF X:33 Y:C0 P:E4 SP:FB CYC:6877
F856  10 09     BPL $F861                       A:FF X:33 Y:C0 P:E4 SP:F9 CYC:6883
F858  B0 07     BCS $F861                       A:FF X:33 Y:C0 P:E4 SP:F9 CYC:6885
F85A  C9 FF     CMP #$FF                        A:FF X:33 Y:C0 P:E4 SP:F9 CYC:6887
F85C  D0 03     BNE $F861                       A:FF X:33 Y:C0 P:67 SP:F9 CYC:6889
F85E  50 01     BVC $F861                       A:FF X:33 Y:C0 P:67 SP:F9 CYC:6891
F860  60        RTS                             A:FF X:33 Y:C0 P:67 SP:F9 CYC:6893
D678  C8        INY                             A:FF X:33 Y:C0 P:67 SP:FB CYC:6899
D679  A9 80     LDA #$80                        A:FF X:33 Y:C1 P:E5 SP:FB CYC:6901
D67B  8D 78 06  STA $0678 = 7F                  A:80 X:33 Y:C1 P:E5 SP:FB CYC:6903
D67E  20 64 F8  JSR $F864                       A:80 X:33 Y:C1 P:E5 SP:FB CYC:6907
F864  18        CLC                             A:80 X:33 Y:C1 P:E5 SP:F9 CYC:6913
F865  24 01     BIT $01 = FF                    A:80 X:33 Y:C1 P:E4 SP:F9 CYC:6915
F867  A9 7F     LDA #$7F                        A:80 X:33 Y:C1 P:E4 SP:F9 CYC:6918
F869  60        RTS                             A:7F X:33 Y:C1 P:64 SP:F9 CYC:6920
D681  6D 78 06  ADC $0678 = 80                  A:7F X:33 Y:C1 P:64 SP:FB CYC:6926
D684  20 6A F8  JSR $F86A                       A:FF X:33 Y:C1 P:A4 SP:FB CYC:6930
F86A  10 09     BPL $F875                       A:FF X:33 Y:C1 P:A4 SP:F9 CYC:6936
F86C  B0 07     BCS $F875                       A:FF X:33 Y:C1 P:A4 SP:F9 CYC:6938
F86E  C9 FF     CMP #$FF                        A:FF X:33 Y:C1 P:A4 SP:F9 CYC:6940
F870  D0 03     BNE $F875                       A:FF X:33 Y:C1 P:27 SP:F9 CYC:6942
F872  70 01     BVS $F875                       A:FF X:33 Y:C1 P:27 SP:F9 CYC:6944
F874  60        RTS                             A:FF X:33 Y:C1 P:27 SP:F9 CYC:6946
D687  C8        INY                             A:FF X:33 Y:C1 P:27 SP:FB CYC:6952
D688  20 78 F8  JSR $F878                       A:FF X:33 Y:C2 P:A5 SP:FB CYC:6954
F878  38        SEC                             A:FF X:33 Y:C2 P:A5 SP:F9 CYC:6960
F879  B8        CLV                             A:FF X:33 Y:C2 P:A5 SP:F9 CYC:6962
F87A  A9 7F     LDA #$7F                        A:FF X:33 Y:C2 P:A5 SP:F9 CYC:6964
F87C  60        RTS                             A:7F X:33 Y:C2 P:25 SP:F9 CYC:6966
D68B  6D 78 06  ADC $0678 = 80                  A:7F X:33 Y:C2 P:25 SP:FB CYC:6972
D68E  20 7D F8  JSR $F87D                       A:00 X:33 Y:C2 P:27 SP:FB CYC:6976
F87D  D0 07     BNE $F886                       A:00 X:33 Y:C2 P:27 SP:F9 CYC:6982
F87F  30 05     BMI $F886                       A:00 X:33 Y:C2 P:27 SP:F9 CYC:6984
F881  70 03     BVS $F886                       A:00 X:33 Y:C2 P:27 SP:F9 CYC:6986
F883  90 01     BCC $F886                       A:00 X:33 Y:C2 P:27 SP:F9 CYC:6988
F885  60        RTS                             A:00 X:33 Y:C2 P:27 SP:F9 CYC:6990
D691  C8        INY                             A:00 X:33 Y:C2 P:27 SP:FB CYC:6996
D692  A9 40     LDA #$40                        A:00 X:33 Y:C3 P:A5 SP:FB CYC:6998
D694  8D 78 06  STA $0678 = 80                  A:40 X:33 Y:C3 P:25 SP:FB CYC:7000
D697  20 89 F8  JSR $F889                       A:40 X:33 Y:C3 P:25 SP:FB CYC:7004
F889  24 01     BIT $01 = FF                    A:40 X:33 Y:C3 P:25 SP:F9 CYC:7010
F88B  A9 40     LDA #$40                        A:40 X:33 Y:C3 P:E5 SP:F9 CYC:7013
F88D  60        RTS                             A:40 X:33 Y:C3 P:65 SP:F9 CYC:7015
D69A  CD 78 06  CMP $0678 = 40                  A:40 X:33 Y:C3 P:65 SP:FB CYC:7021
D69D  20 8E F8  JSR $F88E                       A:40 X:33 Y:C3 P:67 SP:FB CYC:7026
F88E  30 07     BMI $F897                       A:40 X:33 Y:C3 P:67 SP:F9 CYC:7032
F890  90 05     BCC $F897                       A:40 X:33 Y:C3 P:67 SP:F9 CYC:7034
F892  D0 03     BNE $F897                       A:40 X:33 Y:C3 P:67 SP:F9 CYC:7036
F894  50 01     BVC $F897                       A:40 X:33 Y:C3 P:67 SP:F9 CYC:7038
F896  60        RTS                             A:40 X:33 Y:C3 P:67 SP:F9 CYC:7040
D6A0  C8        INY                             A:40 X:33 Y:C3 P:67 SP:FB CYC:7046
D6A1  48        PHA                             A:40 X:33 Y:C4 P:E5 SP:FB CYC:7048
D6A2  A9 3F     LDA #$3F                        A:40 X:33 Y:C4 P:E5 SP:FA CYC:7051
D6A4  8D 78 06  STA $0678 = 40                  A:3F X:33 Y:C4 P:65 SP:FA CYC:7053
D6A7  68        PLA                             A:3F X:33 Y:C4 P:65 SP:FA CYC:7057
D6A8  20 9A F8  JSR $F89A                       A:40 X:33 Y:C4 P:65 SP:FB CYC:7061
F89A  B8        CLV                             A:40 X:33 Y:C4 P:65 SP:F9 CYC:7067
F89B  60        RTS                             A:40 X:33 Y:C4 P:25 SP:F9 CYC:7069
D6AB  CD 78 06  CMP $0678 = 3F                  A:40 X:33 Y:C4 P:25 SP:FB CYC:7075
D6AE  20 9C F8  JSR $F89C                       A:40 X:33 Y:C4 P:25 SP:FB CYC:7080
F89C  F0 07     BEQ $F8A5                       A:40 X:33 Y:C4 P:25 SP:F9 CYC:7086
F89E  30 05     BMI $F8A5                       A:40 X:33 Y:C4 P:25 SP:F9 CYC:7088
F8A0  90 03     BCC $F8A5                       A:40 X:33 Y:C4 P:25 SP:F9 CYC:7090
F8A2  70 01     BVS $F8A5                       A:40 X:33 Y:C4 P:25 SP:F9 CYC:7092
F8A4  60        RTS                             A:40 X:33 Y:C4 P:25 SP:F9 CYC:7094
D6B1  C8        INY                             A:40 X:33 Y:C4 P:25 SP:FB CYC:7100
D6B2  48        PHA                             A:40 X:33 Y:C5 P:A5 SP:FB CYC:7102
D6B3  A9 41     LDA #$41                        A:40 X:33 Y:C5 P:A5 SP:FA CYC:7105
D6B5  8D 78 06  STA $0678 = 3F                  A:41 X:33 Y:C5 P:25 SP:FA CYC:7107
D6B8  68        PLA                             A:41 X:33 Y:C5 P:25 SP:FA CYC:7111
D6B9  CD 78 06  CMP $0678 = 41                  A:40 X:33 Y:C5 P:25 SP:FB CYC:7115
D6BC  20 A8 F8  JSR $F8A8                       A:40 X:33 Y:C5 P:A4 SP:FB CYC:7120
F8A8  F0 05     BEQ $F8AF                       A:40 X:33 Y:C5 P:A4 SP:F9 CYC:7126
F8AA  10 03     BPL $F8AF                       A:40 X:33 Y:C5 P:A4 SP:F9 CYC:7128
F8AC  10 01     BPL $F8AF                       A:40 X:33 Y:C5 P:A4 SP:F9 CYC:7130
F8AE  60        RTS                             A:40 X:33 Y:C5 P:A4 SP:F9 CYC:7132
D6BF  C8        INY                             A:40 X:33 Y:C5 P:A4 SP:FB CYC:7138
D6C0  48        PHA                             A:40 X:33 Y:C6 P:A4 SP:FB CYC:7140
D6C1  A9 00     LDA #$00                        A:40 X:33 Y:C6 P:A4 SP:FA CYC:7143
D6C3  8D 78 06  STA $0678 = 41                  A:00 X:33 Y:C6 P:26 SP:FA CYC:7145
D6C6  68        PLA                             A:00 X:33 Y:C6 P:26 SP:FA CYC:7149
D6C7  20 B2 F8  JSR $F8B2                       A:40 X:33 Y:C6 P:24 SP:FB CYC:7153
F8B2  A9 80     LDA #$80                        A:40 X:33 Y:C6 P:24 SP:F9 CYC:7159
F8B4  60        RTS                             A:80 X:33 Y:C6 P:A4 SP:F9 CYC:7161
D6CA  CD 78 06  CMP $0678 = 00                  A:80 X:33 Y:C6 P:A4 SP:FB CYC:7167
D6CD  20 B5 F8  JSR $F8B5                       A:80 X:33 Y:C6 P:A5 SP:FB CYC:7172
F8B5  F0 05     BEQ $F8BC                       A:80 X:33 Y:C6 P:A5 SP:F9 CYC:7178
F8B7  10 03     BPL $F8BC                       A:80 X:33 Y:C6 P:A5 SP:F9 CYC:7180
F8B9  90 01     BCC $F8BC                       A:80 X:33 Y:C6 P:A5 SP:F9 CYC:7182
F8BB  60        RTS                             A:80 X:33 Y:C6 P:A5 SP:F9 CYC:7184
D6D0  C8        INY                             A:80 X:33 Y:C6 P:A5 SP:FB CYC:7190
D6D1  48        PHA                             A:80 X:33 Y:C7 P:A5 SP:FB CYC:7192
D6D2  A9 80     LDA #$80                        A:80 X:33 Y:C7 P:A5 SP:FA CYC:7195
D6D4  8D 78 06  STA $0678 = 00                  A:80 X:33 Y:C7 P:A5 SP:FA CYC:7197
D6D7  68        PLA                             A:80 X:33 Y:C7 P:A5 SP:FA CYC:7201
D6D8  CD 78 06  CMP $0678 = 80                  A:80 X:33 Y:C7 P:A5 SP:FB CYC:7205
D6DB  20 BF F8  JSR $F8BF                       A:80 X:33 Y:C7 P:27 SP:FB CYC:7210
F8BF  D0 05     BNE $F8C6                       A:80 X:33 Y:C7 P:27 SP:F9 CYC:7216
F8C1  30 03     BMI $F8C6                       A:80 X:33 Y:C7 P:27 SP:F9 CYC:7218
F8C3  90 01     BCC $F8C6                       A:80 X:33 Y:C7 P:27 SP:F9 CYC:7220
F8C5  60        RTS                             A:80 X:33 Y:C7 P:27 SP:F9 CYC:7222
D6DE  C8        INY                             A:80 X:33 Y:C7 P:27 SP:FB CYC:7228
D6DF  48        PHA                             A:80 X:33 Y:C8 P:A5 SP:FB CYC:7230
D6E0  A9 81     LDA #$81                        A:80 X:33 Y:C8 P:A5 SP:FA CYC:7233
D6E2  8D 78 06  STA $0678 = 80                  A:81 X:33 Y:C8 P:A5 SP:FA CYC:7235
D6E5  68        PLA                             A:81 X:33 Y:C8 P:A5 SP:FA CYC:7239
D6E6  CD 78 06  CMP $0678 = 81                  A:80 X:33 Y:C8 P:A5 SP:FB CYC:7243
D6E9  20 C9 F8  JSR $F8C9                       A:80 X:33 Y:C8 P:A4 SP:FB CYC:7248
F8C9  B0 05     BCS $F8D0                       A:80 X:33 Y:C8 P:A4 SP:F9 CYC:7254
F8CB  F0 03     BEQ $F8D0                       A:80 X:33 Y:C8 P:A4 SP:F9 CYC:7256
F8CD  10 01     BPL $F8D0                       A:80 X:33 Y:C8 P:A4 SP:F9 CYC:7258
F8CF  60        RTS                             A:80 X:33 Y:C8 P:A4 SP:F9 CYC:7260
D6EC  C8        INY                             A:80 X:33 Y:C8 P:A4 SP:FB CYC:7266
D6ED  48        PHA                             A:80 X:33 Y:C9 P:A4 SP:FB CYC:7268
D6EE  A9 7F     LDA #$7F                        A:80 X:33 Y:C9 P:A4 SP:FA CYC:7271
D6F0  8D 78 06  STA $0678 = 81                  A:7F X:33 Y:C9 P:24 SP:FA CYC:7273
D6F3  68        PLA                             A:7F X:33 Y:C9 P:24 SP:FA CYC:7277
D6F4  CD 78 06  CMP $0678 = 7F                  A:80 X:33 Y:C9 P:A4 SP:FB CYC:7281
D6F7  20 D3 F8  JSR $F8D3                       A:80 X:33 Y:C9 P:25 SP:FB CYC:7286
F8D3  90 05     BCC $F8DA                       A:80 X:33 Y:C9 P:25 SP:F9 CYC:7292
F8D5  F0 03     BEQ $F8DA                       A:80 X:33 Y:C9 P:25 SP:F9 CYC:7294
F8D7  30 01     BMI $F8DA                       A:80 X:33 Y:C9 P:25 SP:F9 CYC:7296
F8D9  60        RTS                             A:80 X:33 Y:C9 P:25 SP:F9 CYC:7298
D6FA  C8        INY                             A:80 X:33 Y:C9 P:25 SP:FB CYC:7304
D6FB  A9 40     LDA #$40                        A:80 X:33 Y:CA P:A5 SP:FB CYC:7306
D6FD  8D 78 06  STA $0678 = 7F                  A:40 X:33 Y:CA P:25 SP:FB CYC:7308
D700  20 31 F9  JSR $F931                       A:40 X:33 Y:CA P:25 SP:FB CYC:7312
F931  24 01     BIT $01 = FF                    A:40 X:33 Y:CA P:25 SP:F9 CYC:7318
F933  A9 40     LDA #$40                        A:40 X:33 Y:CA P:E5 SP:F9 CYC:7321
F935  38        SEC                             A:40 X:33 Y:CA P:65 SP:F9 CYC:7323
F936  60        RTS                             A:40 X:33 Y:CA P:65 SP:F9 CYC:7325
D703  ED 78 06  SBC $0678 = 40                  A:40 X:33 Y:CA P:65 SP:FB CYC:7331
D706  20 37 F9  JSR $F937                       A:00 X:33 Y:CA P:27 SP:FB CYC:7335
F937  30 0B     BMI $F944                       A:00 X:33 Y:CA P:27 SP:F9 CYC:7341
F939  90 09     BCC $F944                       A:00 X:33 Y:CA P:27 SP:F9 CYC:7343
F93B  D0 07     BNE $F944                       A:00 X:33 Y:CA P:27 SP:F9 CYC:7345
F93D  70 05     BVS $F944                       A:00 X:33 Y:CA P:27 SP:F9 CYC:7347
F93F  C9 00     CMP #$00                        A:00 X:33 Y:CA P:27 SP:F9 CYC:7349
F941  D0 01     BNE $F944                       A:00 X:33 Y:CA P:27 SP:F9 CYC:7351
F943  60        RTS                             A:00 X:33 Y:CA P:27 SP:F9 CYC:7353
D709  C8        INY                             A:00 X:33 Y:CA P:27 SP:FB CYC:7359
D70A  A9 3F     LDA #$3F                        A:00 X:33 Y:CB P:A5 SP:FB CYC:7361
D70C  8D 78 06  STA $0678 = 40                  A:3F X:33 Y:CB P:25 SP:FB CYC:7363
D70F  20 47 F9  JSR $F947                       A:3F X:33 Y:CB P:25 SP:FB CYC:7367
F947  B8        CLV                             A:3F X:33 Y:CB P:25 SP:F9 CYC:7373
F948  38        SEC                             A:3F X:33 Y:CB P:25 SP:F9 CYC:7375
F949  A9 40     LDA #$40                        A:3F X:33 Y:CB P:25 SP:F9 CYC:7377
F94B  60        RTS                             A:40 X:33 Y:CB P:25 SP:F9 CYC:7379
D712  ED 78 06  SBC $0678 = 3F                  A:40 X:33 Y:CB P:25 SP:FB CYC:7385
D715  20 4C F9  JSR $F94C                       A:01 X:33 Y:CB P:25 SP:FB CYC:7389
F94C  F0 0B     BEQ $F959                       A:01 X:33 Y:CB P:25 SP:F9 CYC:7395
F94E  30 09     BMI $F959                       A:01 X:33 Y:CB P:25 SP:F9 CYC:7397
F950  90 07     BCC $F959                       A:01 X:33 Y:CB P:25 SP:F9 CYC:7399
F952  70 05     BVS $F959                       A:01 X:33 Y:CB P:25 SP:F9 CYC:7401
F954  C9 01     CMP #$01                        A:01 X:33 Y:CB P:25 SP:F9 CYC:7403
F956  D0 01     BNE $F959                       A:01 X:33 Y:CB P:27 SP:F9 CYC:7405
F958  60        RTS                             A:01 X:33 Y:CB P:27 SP:F9 CYC:7407
D718  C8        INY                             A:01 X:33 Y:CB P:27 SP:FB CYC:7413
D719  A9 41     LDA #$41                        A:01 X:33 Y:CC P:A5 SP:FB CYC:7415
D71B  8D 78 06  STA $0678 = 3F                  A:41 X:33 Y:CC P:25 SP:FB CYC:7417
D71E  20 5C F9  JSR $F95C                       A:41 X:33 Y:CC P:25 SP:FB CYC:7421
F95C  A9 40     LDA #$40                        A:41 X:33 Y:CC P:25 SP:F9 CYC:7427
F95E  38        SEC                             A:40 X:33 Y:CC P:25 SP:F9 CYC:7429
F95F  24 01     BIT $01 = FF                    A:40 X:33 Y:CC P:25 SP:F9 CYC:7431
F961  60        RTS                             A:40 X:33 Y:CC P:E5 SP:F9 CYC:7434
D721  ED 78 06  SBC $0678 = 41                  A:40 X:33 Y:CC P:E5 SP:FB CYC:7440
D724  20 62 F9  JSR $F962                       A:FF X:33 Y:CC P:A4 SP:FB CYC:7444
F962  B0 0B     BCS $F96F                       A:FF X:33 Y:CC P:A4 SP:F9 CYC:7450
F964  F0 09     BEQ $F96F                       A:FF X:33 Y:CC P:A4 SP:F9 CYC:7452
F966  10 07     BPL $F96F                       A:FF X:33 Y:CC P:A4 SP:F9 CYC:7454
F968  70 05     BVS $F96F                       A:FF X:33 Y:CC P:A4 SP:F9 CYC:7456
F96A  C9 FF     CMP #$FF                        A:FF X:33 Y:CC P:A4 SP:F9 CYC:7458
F96C  D0 01     BNE $F96F                       A:FF X:33 Y:CC P:27 SP:F9 CYC:7460
F96E  60        RTS                             A:FF X:33 Y:CC P:27 SP:F9 CYC:7462
D727  C8        INY                             A:FF X:33 Y:CC P:27 SP:FB CYC:7468
D728  A9 00     LDA #$00                        A:FF X:33 Y:CD P:A5 SP:FB CYC:7470
D72A  8D 78 06  STA $0678 = 41                  A:00 X:33 Y:CD P:27 SP:FB CYC:7472
D72D  20 72 F9  JSR $F972                       A:00 X:33 Y:CD P:27 SP:FB CYC:7476
F972  18        CLC                             A:00 X:33 Y:CD P:27 SP:F9 CYC:7482
F973  A9 80     LDA #$80                        A:00 X:33 Y:CD P:26 SP:F9 CYC:7484
F975  60        RTS                             A:80 X:33 Y:CD P:A4 SP:F9 CYC:7486
D730  ED 78 06  SBC $0678 = 00                  A:80 X:33 Y:CD P:A4 SP:FB CYC:7492
D733  20 76 F9  JSR $F976                       A:7F X:33 Y:CD P:65 SP:FB CYC:7496
F976  90 05     BCC $F97D                       A:7F X:33 Y:CD P:65 SP:F9 CYC:7502
F978  C9 7F     CMP #$7F                        A:7F X:33 Y:CD P:65 SP:F9 CYC:7504
F97A  D0 01     BNE $F97D                       A:7F X:33 Y:CD P:67 SP:F9 CYC:7506
F97C  60        RTS                             A:7F X:33 Y:CD P:67 SP:F9 CYC:7508
D736  C8        INY                             A:7F X:33 Y:CD P:67 SP:FB CYC:7514
D737  A9 7F     LDA #$7F                        A:7F X:33 Y:CE P:E5 SP:FB CYC:7516
D739  8D 78 06  STA $0678 = 00                  A:7F X:33 Y:CE P:65 SP:FB CYC:7518
D73C  20 80 F9  JSR $F980                       A:7F X:33 Y:CE P:65 SP:FB CYC:7522
F980  38        SEC                             A:7F X:33 Y:CE P:65 SP:F9 CYC:7528
F981  A9 81     LDA #$81                        A:7F X:33 Y:CE P:65 SP:F9 CYC:7530
F983  60        RTS                             A:81 X:33 Y:CE P:E5 SP:F9 CYC:7532
D73F  ED 78 06  SBC $0678 = 7F                  A:81 X:33 Y:CE P:E5 SP:FB CYC:7538
D742  20 84 F9  JSR $F984                       A:02 X:33 Y:CE P:65 SP:FB CYC:7542
F984  50 07     BVC $F98D                       A:02 X:33 Y:CE P:65 SP:F9 CYC:7548
F986  90 05     BCC $F98D                       A:02 X:33 Y:CE P:65 SP:F9 CYC:7550
F988  C9 02     CMP #$02                        A:02 X:33 Y:CE P:65 SP:F9 CYC:7552
F98A  D0 01     BNE $F98D                       A:02 X:33 Y:CE P:67 SP:F9 CYC:7554
F98C  60        RTS                             A:02 X:33 Y:CE P:67 SP:F9 CYC:7556
D745  C8        INY                             A:02 X:33 Y:CE P:67 SP:FB CYC:7562
D746  A9 40     LDA #$40                        A:02 X:33 Y:CF P:E5 SP:FB CYC:7564
D748  8D 78 06  STA $0678 = 7F                  A:40 X:33 Y:CF P:65 SP:FB CYC:7566
D74B  20 89 F8  JSR $F889                       A:40 X:33 Y:CF P:65 SP:FB CYC:7570
F889  24 01     BIT $01 = FF                    A:40 X:33 Y:CF P:65 SP:F9 CYC:7576
F88B  A9 40     LDA #$40                        A:40 X:33 Y:CF P:E5 SP:F9 CYC:7579
F88D  60        RTS                             A:40 X:33 Y:CF P:65 SP:F9 CYC:7581
D74E  AA        TAX                             A:40 X:33 Y:CF P:65 SP:FB CYC:7587
D74F  EC 78 06  CPX $0678 = 40                  A:40 X:40 Y:CF P:65 SP:FB CYC:7589
D752  20 8E F8  JSR $F88E                       A:40 X:40 Y:CF P:67 SP:FB CYC:7593
F88E  30 07     BMI $F897                       A:40 X:40 Y:CF P:67 SP:F9 CYC:7599
F890  90 05     BCC $F897                       A:40 X:40 Y:CF P:67 SP:F9 CYC:7601
F892  D0 03     BNE $F897                       A:40 X:40 Y:CF P:67 SP:F9 CYC:7603
F894  50 01     BVC $F897                       A:40 X:40 Y:CF P:67 SP:F9 CYC:7605
F896  60        RTS                             A:40 X:40 Y:CF P:67 SP:F9 CYC:7607
D755  C8        INY                             A:40 X:40 Y:CF P:67 SP:FB CYC:7613
D756  A9 3F     LDA #$3F                        A:40 X:40 Y:D0 P:E5 SP:FB CYC:7615
D758  8D 78 06  STA $0678 = 40                  A:3F X:40 Y:D0 P:65 SP:FB CYC:7617
D75B  20 9A F8  JSR $F89A                       A:3F X:40 Y:D0 P:65 SP:FB CYC:7621
F89A  B8        CLV                             A:3F X:40 Y:D0 P:65 SP:F9 CYC:7627
F89B  60        RTS                             A:3F X:40 Y:D0 P:25 SP:F9 CYC:7629
D75E  EC 78 06  CPX $0678 = 3F                  A:3F X:40 Y:D0 P:25 SP:FB CYC:7635
D761  20 9C F8  JSR $F89C                       A:3F X:40 Y:D0 P:25 SP:FB CYC:7639
F89C  F0 07     BEQ $F8A5                       A:3F X:40 Y:D0 P:25 SP:F9 CYC:7645
F89E  30 05     BMI $F8A5                       A:3F X:40 Y:D0 P:25 SP:F9 CYC:7647
F8A0  90 03     BCC $F8A5                       A:3F X:40 Y:D0 P:25 SP:F9 CYC:7649
F8A2  70 01     BVS $F8A5                       A:3F X:40 Y:D0 P:25 SP:F9 CYC:7651
F8A4  60        RTS                             A:3F X:40 Y:D0 P:25 SP:F9 CYC:7653
D764  C8        INY                             A:3F X:40 Y:D0 P:25 SP:FB CYC:7659
D765  A9 41     LDA #$41                        A:3F X:40 Y:D1 P:A5 SP:FB CYC:7661
D767  8D 78 06  STA $0678 = 3F                  A:41 X:40 Y:D1 P:25 SP:FB CYC:7663
D76A  EC 78 06  CPX $0678 = 41                  A:41 X:40 Y:D1 P:25 SP:FB CYC:7667
D76D  20 A8 F8  JSR $F8A8                       A:41 X:40 Y:D1 P:A4 SP:FB CYC:7671
F8A8  F0 05     BEQ $F8AF                       A:41 X:40 Y:D1 P:A4 SP:F9 CYC:7677
F8AA  10 03     BPL $F8AF                       A:41 X:40 Y:D1 P:A4 SP:F9 CYC:7679
F8AC  10 01     BPL $F8AF                       A:41 X:40 Y:D1 P:A4 SP:F9 CYC:7681
F8AE  60        RTS                             A:41 X:40 Y:D1 P:A4 SP:F9 CYC:7683
D770  C8        INY                             A:41 X:40 Y:D1 P:A4 SP:FB CYC:7689
D771  A9 00     LDA #$00                        A:41 X:40 Y:D2 P:A4 SP:FB CYC:7691
D773  8D 78 06  STA $0678 = 41                  A:00 X:40 Y:D2 P:26 SP:FB CYC:7693
D776  20 B2 F8  JSR $F8B2                       A:00 X:40 Y:D2 P:26 SP:FB CYC:7697
F8B2  A9 80     LDA #$80                        A:00 X:40 Y:D2 P:26 SP:F9 CYC:7703
F8B4  60        RTS                             A:80 X:40 Y:D2 P:A4 SP:F9 CYC:7705
D779  AA        TAX                             A:80 X:40 Y:D2 P:A4 SP:FB CYC:7711
D77A  EC 78 06  CPX $0678 = 00                  A:80 X:80 Y:D2 P:A4 SP:FB CYC:7713
D77D  20 B5 F8  JSR $F8B5                       A:80 X:80 Y:D2 P:A5 SP:FB CYC:7717
F8B5  F0 05     BEQ $F8BC                       A:80 X:80 Y:D2 P:A5 SP:F9 CYC:7723
F8B7  10 03     BPL $F8BC                       A:80 X:80 Y:D2 P:A5 SP:F9 CYC:7725
F8B9  90 01     BCC $F8BC                       A:80 X:80 Y:D2 P:A5 SP:F9 CYC:7727
F8BB  60        RTS                             A:80 X:80 Y:D2 P:A5 SP:F9 CYC:7729
D780  C8        INY                             A:80 X:80 Y:D2 P:A5 SP:FB CYC:7735
D781  A9 80     LDA #$80                        A:80 X:80 Y:D3 P:A5 SP:FB CYC:7737
D783  8D 78 06  STA $0678 = 00                  A:80 X:80 Y:D3 P:A5 SP:FB CYC:7739
D786  EC 78 06  CPX $0678 = 80                  A:80 X:80 Y:D3 P:A5 SP:FB CYC:7743
D789  20 BF F8  JSR $F8BF                       A:80 X:80 Y:D3 P:27 SP:FB CYC:7747
F8BF  D0 05     BNE $F8C6                       A:80 X:80 Y:D3 P:27 SP:F9 CYC:7753
F8C1  30 03     BMI $F8C6                       A:80 X:80 Y:D3 P:27 SP:F9 CYC:7755
F8C3  90 01     BCC $F8C6                       A:80 X:80 Y:D3 P:27 SP:F9 CYC:7757
F8C5  60        RTS                             A:80 X:80 Y:D3 P:27 SP:F9 CYC:7759
D78C  C8        INY                             A:80 X:80 Y:D3 P:27 SP:FB CYC:7765
D78D  A9 81     LDA #$81                        A:80 X:80 Y:D4 P:A5 SP:FB CYC:7767
D78F  8D 78 06  STA $0678 = 80                  A:81 X:80 Y:D4 P:A5 SP:FB CYC:7769
D792  EC 78 06  CPX $0678 = 81                  A:81 X:80 Y:D4 P:A5 SP:FB CYC:7773
D795  20 C9 F8  JSR $F8C9                       A:81 X:80 Y:D4 P:A4 SP:FB CYC:7777
F8C9  B0 05     BCS $F8D0                       A:81 X:80 Y:D4 P:A4 SP:F9 CYC:7783
F8CB  F0 03     BEQ $F8D0                       A:81 X:80 Y:D4 P:A4 SP:F9 CYC:7785
F8CD  10 01     BPL $F8D0                       A:81 X:80 Y:D4 P:A4 SP:F9 CYC:7787
F8CF  60        RTS                             A:81 X:80 Y:D4 P:A4 SP:F9 CYC:7789
D798  C8        INY                             A:81 X:80 Y:D4 P:A4 SP:FB CYC:7795
D799  A9 7F     LDA #$7F                        A:81 X:80 Y:D5 P:A4 SP:FB CYC:7797
D79B  8D 78 06  STA $0678 = 81                  A:7F X:80 Y:D5 P:24 SP:FB CYC:7799
D79E  EC 78 06  CPX $0678 = 7F                  A:7F X:80 Y:D5 P:24 SP:FB CYC:7803
D7A1  20 D3 F8  JSR $F8D3                       A:7F X:80 Y:D5 P:25 SP:FB CYC:7807
F8D3  90 05     BCC $F8DA                       A:7F X:80 Y:D5 P:25 SP:F9 CYC:7813
F8D5  F0 03     BEQ $F8DA                       A:7F X:80 Y:D5 P:25 SP:F9 CYC:7815
F8D7  30 01     BMI $F8DA                       A:7F X:80 Y:D5 P:25 SP:F9 CYC:7817
F8D9  60        RTS                             A:7F X:80 Y:D5 P:25 SP:F9 CYC:7819
D7A4  C8        INY                             A:7F X:80 Y:D5 P:25 SP:FB CYC:7825
D7A5  98        TYA                             A:7F X:80 Y:D6 P:A5 SP:FB CYC:7827
D7A6  AA        TAX                             A:D6 X:80 Y:D6 P:A5 SP:FB CYC:7829
D7A7  A9 40     LDA #$40                        A:D6 X:D6 Y:D6 P:A5 SP:FB CYC:7831
D7A9  8D 78 06  STA $0678 = 7F                  A:40 X:D6 Y:D6 P:25 SP:FB CYC:7833
D7AC  20 DD F8  JSR $F8DD                       A:40 X:D6 Y:D6 P:25 SP:FB CYC:7837
F8DD  24 01     BIT $01 = FF                    A:40 X:D6 Y:D6 P:25 SP:F9 CYC:7843
F8DF  A0 40     LDY #$40                        A:40 X:D6 Y:D6 P:E5 SP:F9 CYC:7846
F8E1  60        RTS                             A:40 X:D6 Y:40 P:65 SP:F9 CYC:7848
D7AF  CC 78 06  CPY $0678 = 40                  A:40 X:D6 Y:40 P:65 SP:FB CYC:7854
D7B2  20 E2 F8  JSR $F8E2                       A:40 X:D6 Y:40 P:67 SP:FB CYC:7858
F8E2  30 07     BMI $F8EB                       A:40 X:D6 Y:40 P:67 SP:F9 CYC:7864
F8E4  90 05     BCC $F8EB                       A:40 X:D6 Y:40 P:67 SP:F9 CYC:7866
F8E6  D0 03     BNE $F8EB                       A:40 X:D6 Y:40 P:67 SP:F9 CYC:7868
F8E8  50 01     BVC $F8EB                       A:40 X:D6 Y:40 P:67 SP:F9 CYC:7870
F8EA  60        RTS                             A:40 X:D6 Y:40 P:67 SP:F9 CYC:7872
D7B5  E8        INX                             A:40 X:D6 Y:40 P:67 SP:FB CYC:7878
D7B6  A9 3F     LDA #$3F                        A:40 X:D7 Y:40 P:E5 SP:FB CYC:7880
D7B8  8D 78 06  STA $0678 = 40                  A:3F X:D7 Y:40 P:65 SP:FB CYC:7882
D7BB  20 EE F8  JSR $F8EE                       A:3F X:D7 Y:40 P:65 SP:FB CYC:7886
F8EE  B8        CLV                             A:3F X:D7 Y:40 P:65 SP:F9 CYC:7892
F8EF  60        RTS                             A:3F X:D7 Y:40 P:25 SP:F9 CYC:7894
D7BE  CC 78 06  CPY $0678 = 3F                  A:3F X:D7 Y:40 P:25 SP:FB CYC:7900
D7C1  20 F0 F8  JSR $F8F0                       A:3F X:D7 Y:40 P:25 SP:FB CYC:7904
F8F0  F0 07     BEQ $F8F9                       A:3F X:D7 Y:40 P:25 SP:F9 CYC:7910
F8F2  30 05     BMI $F8F9                       A:3F X:D7 Y:40 P:25 SP:F9 CYC:7912
F8F4  90 03     BCC $F8F9                       A:3F X:D7 Y:40 P:25 SP:F9 CYC:7914
F8F6  70 01     BVS $F8F9                       A:3F X:D7 Y:40 P:25 SP:F9 CYC:7916
F8F8  60        RTS                             A:3F X:D7 Y:40 P:25 SP:F9 CYC:7918
D7C4  E8        INX                             A:3F X:D7 Y:40 P:25 SP:FB CYC:7924
D7C5  A9 41     LDA #$41                        A:3F X:D8 Y:40 P:A5 SP:FB CYC:7926
D7C7  8D 78 06  STA $0678 = 3F                  A:41 X:D8 Y:40 P:25 SP:FB CYC:7928
D7CA  CC 78 06  CPY $0678 = 41                  A:41 X:D8 Y:40 P:25 SP:FB CYC:7932
D7CD  20 FC F8  JSR $F8FC                       A:41 X:D8 Y:40 P:A4 SP:FB CYC:7936
F8FC  F0 05     BEQ $F903                       A:41 X:D8 Y:40 P:A4 SP:F9 CYC:7942
F8FE  10 03     BPL $F903                       A:41 X:D8 Y:40 P:A4 SP:F9 CYC:7944
F900  10 01     BPL $F903                       A:41 X:D8 Y:40 P:A4 SP:F9 CYC:7946
F902  60        RTS                             A:41 X:D8 Y:40 P:A4 SP:F9 CYC:7948
D7D0  E8        INX                             A:41 X:D8 Y:40 P:A4 SP:FB CYC:7954
D7D1  A9 00     LDA #$00                        A:41 X:D9 Y:40 P:A4 SP:FB CYC:7956
D7D3  8D 78 06  STA $0678 = 41                  A:00 X:D9 Y:40 P:26 SP:FB CYC:7958
D7D6  20 06 F9  JSR $F906                       A:00 X:D9 Y:40 P:26 SP:FB CYC:7962
F906  A0 80     LDY #$80                        A:00 X:D9 Y:40 P:26 SP:F9 CYC:7968
F908  60        RTS                             A:00 X:D9 Y:80 P:A4 SP:F9 CYC:7970
D7D9  CC 78 06  CPY $0678 = 00                  A:00 X:D9 Y:80 P:A4 SP:FB CYC:7976
D7DC  20 09 F9  JSR $F909                       A:00 X:D9 Y:80 P:A5 SP:FB CYC:7980
F909  F0 05     BEQ $F910                       A:00 X:D9 Y:80 P:A5 SP:F9 CYC:7986
F90B  10 03     BPL $F910                       A:00 X:D9 Y:80 P:A5 SP:F9 CYC:7988
F90D  90 01     BCC $F910                       A:00 X:D9 Y:80 P:A5 SP:F9 CYC:7990
F90F  60        RTS                             A:00 X:D9 Y:80 P:A5 SP:F9 CYC:7992
D7DF  E8        INX                             A:00 X:D9 Y:80 P:A5 SP:FB CYC:7998
D7E0  A9 80     LDA #$80                        A:00 X:DA Y:80 P:A5 SP:FB CYC:8000
D7E2  8D 78 06  STA $0678 = 00                  A:80 X:DA Y:80 P:A5 SP:FB CYC:8002
D7E5  CC 78 06  CPY $0678 = 80                  A:80 X:DA Y:80 P:A5 SP:FB CYC:8006
D7E8  20 13 F9  JSR $F913                       A:80 X:DA Y:80 P:27 SP:FB CYC:8010
F913  D0 05     BNE $F91A                       A:80 X:DA Y:80 P:27 SP:F9 CYC:8016
F915  30 03     BMI $F91A                       A:80 X:DA Y:80 P:27 SP:F9 CYC:8018
F917  90 01     BCC $F91A                       A:80 X:DA Y:80 P:27 SP:F9 CYC:8020
F919  60        RTS                             A:80 X:DA Y:80 P:27 SP:F9 CYC:8022
D7EB  E8        INX                             A:80 X:DA Y:80 P:27 SP:FB CYC:8028
D7EC  A9 81     LDA #$81                        A:80 X:DB Y:80 P:A5 SP:FB CYC:8030
D7EE  8D 78 06  STA $0678 = 80                  A:81 X:DB Y:80 P:A5 SP:FB CYC:8032
D7F1  CC 78 06  CPY $0678 = 81                  A:81 X:DB Y:80 P:A5 SP:FB CYC:8036
D7F4  20 1D F9  JSR $F91D                       A:81 X:DB Y:80 P:A4 SP:FB CYC:8040
F91D  B0 05     BCS $F924                       A:81 X:DB Y:80 P:A4 SP:F9 CYC:8046
F91F  F0 03     BEQ $F924                       A:81 X:DB Y:80 P:A4 SP:F9 CYC:8048
F921  10 01     BPL $F924                       A:81 X:DB Y:80 P:A4 SP:F9 CYC:8050
F923  60        RTS                             A:81 X:DB Y:80 P:A4 SP:F9 CYC:8052
D7F7  E8        INX                             A:81 X:DB Y:80 P:A4 SP:FB CYC:8058
D7F8  A9 7F     LDA #$7F                        A:81 X:DC Y:80 P:A4 SP:FB CYC:8060
D7FA  8D 78 06  STA $0678 = 81                  A:7F X:DC Y:80 P:24 SP:FB CYC:8062
D7FD  CC 78 06  CPY $0678 = 7F                  A:7F X:DC Y:80 P:24 SP:FB CYC:8066
D800  20 27 F9  JSR $F927                       A:7F X:DC Y:80 P:25 SP:FB CYC:8070
F927  90 05     BCC $F92E                       A:7F X:DC Y:80 P:25 SP:F9 CYC:8076
F929  F0 03     BEQ $F92E                       A:7F X:DC Y:80 P:25 SP:F9 CYC:8078
F92B  30 01     BMI $F92E                       A:7F X:DC Y:80 P:25 SP:F9 CYC:8080
F92D  60        RTS                             A:7F X:DC Y:80 P:25 SP:F9 CYC:8082
D803  E8        INX                             A:7F X:DC Y:80 P:25 SP:FB CYC:8088
D804  8A        TXA                             A:7F X:DD Y:80 P:A5 SP:FB CYC:8090
D805  A8        TAY                             A:DD X:DD Y:80 P:A5 SP:FB CYC:8092
D806  20 90 F9  JSR $F990                       A:DD X:DD Y:DD P:A5 SP:FB CYC:8094
F990  A2 55     LDX #$55                        A:DD X:DD Y:DD P:A5 SP:F9 CYC:8100
F992  A9 FF     LDA #$FF                        A:DD X:55 Y:DD P:25 SP:F9 CYC:8102
F994  85 01     STA $01 = FF                    A:FF X:55 Y:DD P:A5 SP:F9 CYC:8104
F996  EA        NOP                             A:FF X:55 Y:DD P:A5 SP:F9 CYC:8107
F997  24 01     BIT $01 = FF                    A:FF X:55 Y:DD P:A5 SP:F9 CYC:8109
F999  38        SEC                             A:FF X:55 Y:DD P:E5 SP:F9 CYC:8112
F99A  A9 01     LDA #$01                        A:FF X:55 Y:DD P:E5 SP:F9 CYC:8114
F99C  60        RTS                             A:01 X:55 Y:DD P:65 SP:F9 CYC:8116
D809  8D 78 06  STA $0678 = 7F                  A:01 X:55 Y:DD P:65 SP:FB CYC:8122
D80C  4E 78 06  LSR $0678 = 01                  A:01 X:55 Y:DD P:65 SP:FB CYC:8126
D80F  AD 78 06  LDA $0678 = 00                  A:01 X:55 Y:DD P:67 SP:FB CYC:8132
D812  20 9D F9  JSR $F99D                       A:00 X:55 Y:DD P:67 SP:FB CYC:8136
F99D  90 1B     BCC $F9BA                       A:00 X:55 Y:DD P:67 SP:F9 CYC:8142
F99F  D0 19     BNE $F9BA                       A:00 X:55 Y:DD P:67 SP:F9 CYC:8144
F9A1  30 17     BMI $F9BA                       A:00 X:55 Y:DD P:67 SP:F9 CYC:8146
F9A3  50 15     BVC $F9BA                       A:00 X:55 Y:DD P:67 SP:F9 CYC:8148
F9A5  C9 00     CMP #$00                        A:00 X:55 Y:DD P:67 SP:F9 CYC:8150
F9A7  D0 11     BNE $F9BA                       A:00 X:55 Y:DD P:67 SP:F9 CYC:8152
F9A9  B8        CLV                             A:00 X:55 Y:DD P:67 SP:F9 CYC:8154
F9AA  A9 AA     LDA #$AA                        A:00 X:55 Y:DD P:27 SP:F9 CYC:8156
F9AC  60        RTS                             A:AA X:55 Y:DD P:A5 SP:F9 CYC:8158
D815  C8        INY                             A:AA X:55 Y:DD P:A5 SP:FB CYC:8164
D816  8D 78 06  STA $0678 = 00                  A:AA X:55 Y:DE P:A5 SP:FB CYC:8166
D819  4E 78 06  LSR $0678 = AA                  A:AA X:55 Y:DE P:A5 SP:FB CYC:8170
D81C  AD 78 06  LDA $0678 = 55                  A:AA X:55 Y:DE P:24 SP:FB CYC:8176
D81F  20 AD F9  JSR $F9AD                       A:55 X:55 Y:DE P:24 SP:FB CYC:8180
F9AD  B0 0B     BCS $F9BA                       A:55 X:55 Y:DE P:24 SP:F9 CYC:8186
F9AF  F0 09     BEQ $F9BA                       A:55 X:55 Y:DE P:24 SP:F9 CYC:8188
F9B1  30 07     BMI $F9BA                       A:55 X:55 Y:DE P:24 SP:F9 CYC:8190
F9B3  70 05     BVS $F9BA                       A:55 X:55 Y:DE P:24 SP:F9 CYC:8192
F9B5  C9 55     CMP #$55                        A:55 X:55 Y:DE P:24 SP:F9 CYC:8194
F9B7  D0 01     BNE $F9BA                       A:55 X:55 Y:DE P:27 SP:F9 CYC:8196
F9B9  60        RTS                             A:55 X:55 Y:DE P:27 SP:F9 CYC:8198
D822  C8        INY                             A:55 X:55 Y:DE P:27 SP:FB CYC:8204
D823  20 BD F9  JSR $F9BD                       A:55 X:55 Y:DF P:A5 SP:FB CYC:8206
F9BD  24 01     BIT $01 = FF                    A:55 X:55 Y:DF P:A5 SP:F9 CYC:8212
F9BF  38        SEC                             A:55 X:55 Y:DF P:E5 SP:F9 CYC:8215
F9C0  A9 80     LDA #$80                        A:55 X:55 Y:DF P:E5 SP:F9 CYC:8217
F9C2  60        RTS                             A:80 X:55 Y:DF P:E5 SP:F9 CYC:8219
D826  8D 78 06  STA $0678 = 55                  A:80 X:55 Y:DF P:E5 SP:FB CYC:8225
D829  0E 78 06  ASL $0678 = 80                  A:80 X:55 Y:DF P:E5 SP:FB CYC:8229
D82C  AD 78 06  LDA $0678 = 00                  A:80 X:55 Y:DF P:67 SP:FB CYC:8235
D82F  20 C3 F9  JSR $F9C3                       A:00 X:55 Y:DF P:67 SP:FB CYC:8239
F9C3  90 1C     BCC $F9E1                       A:00 X:55 Y:DF P:67 SP:F9 CYC:8245
F9C5  D0 1A     BNE $F9E1                       A:00 X:55 Y:DF P:67 SP:F9 CYC:8247
F9C7  30 18     BMI $F9E1                       A:00 X:55 Y:DF P:67 SP:F9 CYC:8249
F9C9  50 16     BVC $F9E1                       A:00 X:55 Y:DF P:67 SP:F9 CYC:8251
F9CB  C9 00     CMP #$00                        A:00 X:55 Y:DF P:67 SP:F9 CYC:8253
F9CD  D0 12     BNE $F9E1                       A:00 X:55 Y:DF P:67 SP:F9 CYC:8255
F9CF  B8        CLV                             A:00 X:55 Y:DF P:67 SP:F9 CYC:8257
F9D0  A9 55     LDA #$55                        A:00 X:55 Y:DF P:27 SP:F9 CYC:8259
F9D2  38        SEC                             A:55 X:55 Y:DF P:25 SP:F9 CYC:8261
F9D3  60        RTS                             A:55 X:55 Y:DF P:25 SP:F9 CYC:8263
D832  C8        INY                             A:55 X:55 Y:DF P:25 SP:FB CYC:8269
D833  8D 78 06  STA $0678 = 00                  A:55 X:55 Y:E0 P:A5 SP:FB CYC:8271
D836  0E 78 06  ASL $0678 = 55                  A:55 X:55 Y:E0 P:A5 SP:FB CYC:8275
D839  AD 78 06  LDA $0678 = AA                  A:55 X:55 Y:E0 P:A4 SP:FB CYC:8281
D83C  20 D4 F9  JSR $F9D4                       A:AA X:55 Y:E0 P:A4 SP:FB CYC:8285
F9D4  B0 0B     BCS $F9E1                       A:AA X:55 Y:E0 P:A4 SP:F9 CYC:8291
F9D6  F0 09     BEQ $F9E1                       A:AA X:55 Y:E0 P:A4 SP:F9 CYC:8293
F9D8  10 07     BPL $F9E1                       A:AA X:55 Y:E0 P:A4 SP:F9 CYC:8295
F9DA  70 05     BVS $F9E1                       A:AA X:55 Y:E0 P:A4 SP:F9 CYC:8297
F9DC  C9 AA     CMP #$AA                        A:AA X:55 Y:E0 P:A4 SP:F9 CYC:8299
F9DE  D0 01     BNE $F9E1                       A:AA X:55 Y:E0 P:27 SP:F9 CYC:8301
F9E0  60        RTS                             A:AA X:55 Y:E0 P:27 SP:F9 CYC:8303
D83F  C8        INY                             A:AA X:55 Y:E0 P:27 SP:FB CYC:8309
D840  20 E4 F9  JSR $F9E4                       A:AA X:55 Y:E1 P:A5 SP:FB CYC:8311
F9E4  24 01     BIT $01 = FF                    A:AA X:55 Y:E1 P:A5 SP:F9 CYC:8317
F9E6  38        SEC                             A:AA X:55 Y:E1 P:E5 SP:F9 CYC:8320
F9E7  A9 01     LDA #$01                        A:AA X:55 Y:E1 P:E5 SP:F9 CYC:8322
F9E9  60        RTS                             A:01 X:55 Y:E1 P:65 SP:F9 CYC:8324
D843  8D 78 06  STA $0678 = AA                  A:01 X:55 Y:E1 P:65 SP:FB CYC:8330
D846  6E 78 06  ROR $0678 = 01                  A:01 X:55 Y:E1 P:65 SP:FB CYC:8334
D849  AD 78 06  LDA $0678 = 80                  A:01 X:55 Y:E1 P:E5 SP:FB CYC:8340
D84C  20 EA F9  JSR $F9EA                       A:80 X:55 Y:E1 P:E5 SP:FB CYC:8344
F9EA  90 1C     BCC $FA08                       A:80 X:55 Y:E1 P:E5 SP:F9 CYC:8350
F9EC  F0 1A     BEQ $FA08                       A:80 X:55 Y:E1 P:E5 SP:F9 CYC:8352
F9EE  10 18     BPL $FA08                       A:80 X:55 Y:E1 P:E5 SP:F9 CYC:8354
F9F0  50 16     BVC $FA08                       A:80 X:55 Y:E1 P:E5 SP:F9 CYC:8356
F9F2  C9 80     CMP #$80                        A:80 X:55 Y:E1 P:E5 SP:F9 CYC:8358
F9F4  D0 12     BNE $FA08                       A:80 X:55 Y:E1 P:67 SP:F9 CYC:8360
F9F6  B8        CLV                             A:80 X:55 Y:E1 P:67 SP:F9 CYC:8362
F9F7  18        CLC                             A:80 X:55 Y:E1 P:27 SP:F9 CYC:8364
F9F8  A9 55     LDA #$55                        A:80 X:55 Y:E1 P:26 SP:F9 CYC:8366
F9FA  60        RTS                             A:55 X:55 Y:E1 P:24 SP:F9 CYC:8368
D84F  C8        INY                             A:55 X:55 Y:E1 P:24 SP:FB CYC:8374
D850  8D 78 06  STA $0678 = 80                  A:55 X:55 Y:E2 P:A4 SP:FB CYC:8376
D853  6E 78 06  ROR $0678 = 55                  A:55 X:55 Y:E2 P:A4 SP:FB CYC:8380
D856  AD 78 06  LDA $0678 = 2A                  A:55 X:55 Y:E2 P:25 SP:FB CYC:8386
D859  20 FB F9  JSR $F9FB                       A:2A X:55 Y:E2 P:25 SP:FB CYC:8390
F9FB  90 0B     BCC $FA08                       A:2A X:55 Y:E2 P:25 SP:F9 CYC:8396
F9FD  F0 09     BEQ $FA08                       A:2A X:55 Y:E2 P:25 SP:F9 CYC:8398
F9FF  30 07     BMI $FA08                       A:2A X:55 Y:E2 P:25 SP:F9 CYC:8400
FA01  70 05     BVS $FA08                       A:2A X:55 Y:E2 P:25 SP:F9 CYC:8402
FA03  C9 2A     CMP #$2A                        A:2A X:55 Y:E2 P:25 SP:F9 CYC:8404
FA05  D0 01     BNE $FA08                       A:2A X:55 Y:E2 P:27 SP:F9 CYC:8406
FA07  60        RTS                             A:2A X:55 Y:E2 P:27 SP:F9 CYC:8408
D85C  C8        INY                             A:2A X:55 Y:E2 P:27 SP:FB CYC:8414
D85D  20 0A FA  JSR $FA0A                       A:2A X:55 Y:E3 P:A5 SP:FB CYC:8416
FA0A  24 01     BIT $01 = FF                    A:2A X:55 Y:E3 P:A5 SP:F9 CYC:8422
FA0C  38        SEC                             A:2A X:55 Y:E3 P:E5 SP:F9 CYC:8425
FA0D  A9 80     LDA #$80                        A:2A X:55 Y:E3 P:E5 SP:F9 CYC:8427
FA0F  60        RTS                             A:80 X:55 Y:E3 P:E5 SP:F9 CYC:8429
D860  8D 78 06  STA $0678 = 2A                  A:80 X:55 Y:E3 P:E5 SP:FB CYC:8435
D863  2E 78 06  ROL $0678 = 80                  A:80 X:55 Y:E3 P:E5 SP:FB CYC:8439
D866  AD 78 06  LDA $0678 = 01                  A:80 X:55 Y:E3 P:65 SP:FB CYC:8445
D869  20 10 FA  JSR $FA10                       A:01 X:55 Y:E3 P:65 SP:FB CYC:8449
FA10  90 1C     BCC $FA2E                       A:01 X:55 Y:E3 P:65 SP:F9 CYC:8455
FA12  F0 1A     BEQ $FA2E                       A:01 X:55 Y:E3 P:65 SP:F9 CYC:8457
FA14  30 18     BMI $FA2E                       A:01 X:55 Y:E3 P:65 SP:F9 CYC:8459
FA16  50 16     BVC $FA2E                       A:01 X:55 Y:E3 P:65 SP:F9 CYC:8461
FA18  C9 01     CMP #$01                        A:01 X:55 Y:E3 P:65 SP:F9 CYC:8463
FA1A  D0 12     BNE $FA2E                       A:01 X:55 Y:E3 P:67 SP:F9 CYC:8465
FA1C  B8        CLV                             A:01 X:55 Y:E3 P:67 SP:F9 CYC:8467
FA1D  18        CLC                             A:01 X:55 Y:E3 P:27 SP:F9 CYC:8469
FA1E  A9 55     LDA #$55                        A:01 X:55 Y:E3 P:26 SP:F9 CYC:8471
FA20  60        RTS                             A:55 X:55 Y:E3 P:24 SP:F9 CYC:8473
D86C  C8        INY                             A:55 X:55 Y:E3 P:24 SP:FB CYC:8479
D86D  8D 78 06  STA $0678 = 01                  A:55 X:55 Y:E4 P:A4 SP:FB CYC:8481
D870  2E 78 06  ROL $0678 = 55                  A:55 X:55 Y:E4 P:A4 SP:FB CYC:8485
D873  AD 78 06  LDA $0678 = AA                  A:55 X:55 Y:E4 P:A4 SP:FB CYC:8491
D876  20 21 FA  JSR $FA21                       A:AA X:55 Y:E4 P:A4 SP:FB CYC:8495
FA21  B0 0B     BCS $FA2E                       A:AA X:55 Y:E4 P:A4 SP:F9 CYC:8501
FA23  F0 09     BEQ $FA2E                       A:AA X:55 Y:E4 P:A4 SP:F9 CYC:8503
FA25  10 07     BPL $FA2E                       A:AA X:55 Y:E4 P:A4 SP:F9 CYC:8505
FA27  70 05     BVS $FA2E                       A:AA X:55 Y:E4 P:A4 SP:F9 CYC:8507
FA29  C9 AA     CMP #$AA                        A:AA X:55 Y:E4 P:A4 SP:F9 CYC:8509
FA2B  D0 01     BNE $FA2E                       A:AA X:55 Y:E4 P:27 SP:F9 CYC:8511
FA2D  60        RTS                             A:AA X:55 Y:E4 P:27 SP:F9 CYC:8513
D879  A9 FF     LDA #$FF                        A:AA X:55 Y:E4 P:27 SP:FB CYC:8519
D87B  8D 78 06  STA $0678 = AA                  A:FF X:55 Y:E4 P:A5 SP:FB CYC:8521
D87E  85 01     STA $01 = FF                    A:FF X:55 Y:E4 P:A5 SP:FB CYC:8525
D880  24 01     BIT $01 = FF                    A:FF X:55 Y:E4 P:A5 SP:FB CYC:8528
D882  38        SEC                             A:FF X:55 Y:E4 P:E5 SP:FB CYC:8531
D883  EE 78 06  INC $0678 = FF                  A:FF X:55 Y:E4 P:E5 SP:FB CYC:8533
D886  D0 0D     BNE $D895                       A:FF X:55 Y:E4 P:67 SP:FB CYC:8539
D888  30 0B     BMI $D895                       A:FF X:55 Y:E4 P:67 SP:FB CYC:8541
D88A  50 09     BVC $D895                       A:FF X:55 Y:E4 P:67 SP:FB CYC:8543
D88C  90 07     BCC $D895                       A:FF X:55 Y:E4 P:67 SP:FB CYC:8545
D88E  AD 78 06  LDA $0678 = 00                  A:FF X:55 Y:E4 P:67 SP:FB CYC:8547
D891  C9 00     CMP #$00                        A:00 X:55 Y:E4 P:67 SP:FB CYC:8551
D893  F0 04     BEQ $D899                       A:00 X:55 Y:E4 P:67 SP:FB CYC:8553
D899  A9 7F     LDA #$7F                        A:00 X:55 Y:E4 P:67 SP:FB CYC:8555
D89B  8D 78 06  STA $0678 = 00                  A:7F X:55 Y:E4 P:65 SP:FB CYC:8557
D89E  B8        CLV                             A:7F X:55 Y:E4 P:65 SP:FB CYC:8561
D89F  18        CLC                             A:7F X:55 Y:E4 P:25 SP:FB CYC:8563
D8A0  EE 78 06  INC $0678 = 7F                  A:7F X:55 Y:E4 P:24 SP:FB CYC:8565
D8A3  F0 0D     BEQ $D8B2                       A:7F X:55 Y:E4 P:A4 SP:FB CYC:8571
D8A5  10 0B     BPL $D8B2                       A:7F X:55 Y:E4 P:A4 SP:FB CYC:8573
D8A7  70 09     BVS $D8B2                       A:7F X:55 Y:E4 P:A4 SP:FB CYC:8575
D8A9  B0 07     BCS $D8B2                       A:7F X:55 Y:E4 P:A4 SP:FB CYC:8577
D8AB  AD 78 06  LDA $0678 = 80                  A:7F X:55 Y:E4 P:A4 SP:FB CYC:8579
D8AE  C9 80     CMP #$80                        A:80 X:55 Y:E4 P:A4 SP:FB CYC:8583
D8B0  F0 04     BEQ $D8B6                       A:80 X:55 Y:E4 P:27 SP:FB CYC:8585
D8B6  A9 00     LDA #$00                        A:80 X:55 Y:E4 P:27 SP:FB CYC:8587
D8B8  8D 78 06  STA $0678 = 80                  A:00 X:55 Y:E4 P:27 SP:FB CYC:8589
D8BB  24 01     BIT $01 = FF                    A:00 X:55 Y:E4 P:27 SP:FB CYC:8593
D8BD  38        SEC                             A:00 X:55 Y:E4 P:E7 SP:FB CYC:8596
D8BE  CE 78 06  DEC $0678 = 00                  A:00 X:55 Y:E4 P:E7 SP:FB CYC:8598
D8C1  F0 0D     BEQ $D8D0                       A:00 X:55 Y:E4 P:E5 SP:FB CYC:8604
D8C3  10 0B     BPL $D8D0                       A:00 X:55 Y:E4 P:E5 SP:FB CYC:8606
D8C5  50 09     BVC $D8D0                       A:00 X:55 Y:E4 P:E5 SP:FB CYC:8608
D8C7  90 07     BCC $D8D0                       A:00 X:55 Y:E4 P:E5 SP:FB CYC:8610
D8C9  AD 78 06  LDA $0678 = FF                  A:00 X:55 Y:E4 P:E5 SP:FB CYC:8612
D8CC  C9 FF     CMP #$FF                        A:FF X:55 Y:E4 P:E5 SP:FB CYC:8616
D8CE  F0 04     BEQ $D8D4                       A:FF X:55 Y:E4 P:67 SP:FB CYC:8618
D8D4  A9 80     LDA #$80                        A:FF X:55 Y:E4 P:67 SP:FB CYC:8620
D8D6  8D 78 06  STA $0678 = FF                  A:80 X:55 Y:E4 P:E5 SP:FB CYC:8622
D8D9  B8        CLV                             A:80 X:55 Y:E4 P:E5 SP:FB CYC:8626
D8DA  18        CLC                             A:80 X:55 Y:E4 P:A5 SP:FB CYC:8628
D8DB  CE 78 06  DEC $0678 = 80                  A:80 X:55 Y:E4 P:A4 SP:FB CYC:8630
D8DE  F0 0D     BEQ $D8ED                       A:80 X:55 Y:E4 P:24 SP:FB CYC:8636
D8E0  30 0B     BMI $D8ED                       A:80 X:55 Y:E4 P:24 SP:FB CYC:8638
D8E2  70 09     BVS $D8ED                       A:80 X:55 Y:E4 P:24 SP:FB CYC:8640
D8E4  B0 07     BCS $D8ED                       A:80 X:55 Y:E4 P:24 SP:FB CYC:8642
D8E6  AD 78 06  LDA $0678 = 7F                  A:80 X:55 Y:E4 P:24 SP:FB CYC:8644
D8E9  C9 7F     CMP #$7F                        A:7F X:55 Y:E4 P:24 SP:FB CYC:8648
D8EB  F0 04     BEQ $D8F1                       A:7F X:55 Y:E4 P:27 SP:FB CYC:8650
D8F1  A9 01     LDA #$01                        A:7F X:55 Y:E4 P:27 SP:FB CYC:8652
D8F3  8D 78 06  STA $0678 = 7F                  A:01 X:55 Y:E4 P:25 SP:FB CYC:8654
D8F6  CE 78 06  DEC $0678 = 01                  A:01 X:55 Y:E4 P:25 SP:FB CYC:8658
D8F9  F0 04     BEQ $D8FF                       A:01 X:55 Y:E4 P:27 SP:FB CYC:8664
D8FF  60        RTS                             A:01 X:55 Y:E4 P:27 SP:FB CYC:8666
C618  20 00 D9  JSR $D900                       A:01 X:55 Y:E4 P:27 SP:FD CYC:8672
D900  A9 A3     LDA #$A3                        A:01 X:55 Y:E4 P:27 SP:FB CYC:8678
D902  85 33     STA $33 = 00                    A:A3 X:55 Y:E4 P:A5 SP:FB CYC:8680
D904  A9 89     LDA #$89                        A:A3 X:55 Y:E4 P:A5 SP:FB CYC:8683
D906  8D 00 03  STA $0300 = 70                  A:89 X:55 Y:E4 P:A5 SP:FB CYC:8685
D909  A9 12     LDA #$12                        A:89 X:55 Y:E4 P:A5 SP:FB CYC:8689
D90B  8D 45 02  STA $0245 = 00                  A:12 X:55 Y:E4 P:25 SP:FB CYC:8691
D90E  A9 FF     LDA #$FF                        A:12 X:55 Y:E4 P:25 SP:FB CYC:8695
D910  85 01     STA $01 = FF                    A:FF X:55 Y:E4 P:A5 SP:FB CYC:8697
D912  A2 65     LDX #$65                        A:FF X:55 Y:E4 P:A5 SP:FB CYC:8700
D914  A9 00     LDA #$00                        A:FF X:65 Y:E4 P:25 SP:FB CYC:8702
D916  85 89     STA $89 = 00                    A:00 X:65 Y:E4 P:27 SP:FB CYC:8704
D918  A9 03     LDA #$03                        A:00 X:65 Y:E4 P:27 SP:FB CYC:8707
D91A  85 8A     STA $8A = 00                    A:03 X:65 Y:E4 P:25 SP:FB CYC:8709
D91C  A0 00     LDY #$00                        A:03 X:65 Y:E4 P:25 SP:FB CYC:8712
D91E  38        SEC                             A:03 X:65 Y:00 P:27 SP:FB CYC:8714
D91F  A9 00     LDA #$00                        A:03 X:65 Y:00 P:27 SP:FB CYC:8716
D921  B8        CLV                             A:00 X:65 Y:00 P:27 SP:FB CYC:8718
D922  B1 89     LDA ($89),Y = 0300 @ 0300 = 89  A:00 X:65 Y:00 P:27 SP:FB CYC:8720
D924  F0 0C     BEQ $D932                       A:89 X:65 Y:00 P:A5 SP:FB CYC:8725
D926  90 0A     BCC $D932                       A:89 X:65 Y:00 P:A5 SP:FB CYC:8727
D928  70 08     BVS $D932                       A:89 X:65 Y:00 P:A5 SP:FB CYC:8729
D92A  C9 89     CMP #$89                        A:89 X:65 Y:00 P:A5 SP:FB CYC:8731
D92C  D0 04     BNE $D932                       A:89 X:65 Y:00 P:27 SP:FB CYC:8733
D92E  E0 65     CPX #$65                        A:89 X:65 Y:00 P:27 SP:FB CYC:8735
D930  F0 04     BEQ $D936                       A:89 X:65 Y:00 P:27 SP:FB CYC:8737
D936  A9 FF     LDA #$FF                        A:89 X:65 Y:00 P:27 SP:FB CYC:8739
D938  85 97     STA $97 = 00                    A:FF X:65 Y:00 P:A5 SP:FB CYC:8741
D93A  85 98     STA $98 = 00                    A:FF X:65 Y:00 P:A5 SP:FB CYC:8744
D93C  24 98     BIT $98 = FF                    A:FF X:65 Y:00 P:A5 SP:FB CYC:8747
D93E  A0 34     LDY #$34                        A:FF X:65 Y:00 P:E5 SP:FB CYC:8750
D940  B1 97     LDA ($97),Y = FFFF @ 0033 = A3  A:FF X:65 Y:34 P:65 SP:FB CYC:8752
D942  C9 A3     CMP #$A3                        A:A3 X:65 Y:34 P:E5 SP:FB CYC:8757
D944  D0 02     BNE $D948                       A:A3 X:65 Y:34 P:67 SP:FB CYC:8759
D946  B0 04     BCS $D94C                       A:A3 X:65 Y:34 P:67 SP:FB CYC:8761
D94C  A5 00     LDA $00 = 00                    A:A3 X:65 Y:34 P:67 SP:FB CYC:8763
D94E  48        PHA                             A:00 X:65 Y:34 P:67 SP:FB CYC:8766
D94F  A9 46     LDA #$46                        A:00 X:65 Y:34 P:67 SP:FA CYC:8769
D951  85 FF     STA $FF = 00                    A:46 X:65 Y:34 P:65 SP:FA CYC:8771
D953  A9 01     LDA #$01                        A:46 X:65 Y:34 P:65 SP:FA CYC:8774
D955  85 00     STA $00 = 00                    A:01 X:65 Y:34 P:65 SP:FA CYC:8776
D957  A0 FF     LDY #$FF                        A:01 X:65 Y:34 P:65 SP:FA CYC:8779
D959  B1 FF     LDA ($FF),Y = 0146 @ 0245 = 12  A:01 X:65 Y:FF P:E5 SP:FA CYC:8781
D95B  C9 12     CMP #$12                        A:12 X:65 Y:FF P:65 SP:FA CYC:8786
D95D  F0 04     BEQ $D963                       A:12 X:65 Y:FF P:67 SP:FA CYC:8788
D963  68        PLA                             A:12 X:65 Y:FF P:67 SP:FA CYC:8790
D964  85 00     STA $00 = 01                    A:00 X:65 Y:FF P:67 SP:FB CYC:8794
D966  A2 ED     LDX #$ED                        A:00 X:65 Y:FF P:67 SP:FB CYC:8797
D968  A9 00     LDA #$00                        A:00 X:ED Y:FF P:E5 SP:FB CYC:8799
D96A  85 33     STA $33 = A3                    A:00 X:ED Y:FF P:67 SP:FB CYC:8801
D96C  A9 04     LDA #$04                        A:00 X:ED Y:FF P:67 SP:FB CYC:8804
D96E  85 34     STA $34 = 00                    A:04 X:ED Y:FF P:65 SP:FB CYC:8806
D970  A0 00     LDY #$00                        A:04 X:ED Y:FF P:65 SP:FB CYC:8809
D972  18        CLC                             A:04 X:ED Y:00 P:67 SP:FB CYC:8811
D973  A9 FF     LDA #$FF                        A:04 X:ED Y:00 P:66 SP:FB CYC:8813
D975  85 01     STA $01 = FF                    A:FF X:ED Y:00 P:E4 SP:FB CYC:8815
D977  24 01     BIT $01 = FF                    A:FF X:ED Y:00 P:E4 SP:FB CYC:8818
D979  A9 AA     LDA #$AA                        A:FF X:ED Y:00 P:E4 SP:FB CYC:8821
D97B  8D 00 04  STA $0400 = AD                  A:AA X:ED Y:00 P:E4 SP:FB CYC:8823
D97E  A9 55     LDA #$55                        A:AA X:ED Y:00 P:E4 SP:FB CYC:8827
D980  11 33     ORA ($33),Y = 0400 @ 0400 = AA  A:55 X:ED Y:00 P:64 SP:FB CYC:8829
D982  B0 08     BCS $D98C                       A:FF X:ED Y:00 P:E4 SP:FB CYC:8834
D984  10 06     BPL $D98C                       A:FF X:ED Y:00 P:E4 SP:FB CYC:8836
D986  C9 FF     CMP #$FF                        A:FF X:ED Y:00 P:E4 SP:FB CYC:8838
D988  D0 02     BNE $D98C                       A:FF X:ED Y:00 P:67 SP:FB CYC:8840
D98A  70 02     BVS $D98E                       A:FF X:ED Y:00 P:67 SP:FB CYC:8842
D98E  E8        INX                             A:FF X:ED Y:00 P:67 SP:FB CYC:8844
D98F  38        SEC                             A:FF X:EE Y:00 P:E5 SP:FB CYC:8846
D990  B8        CLV                             A:FF X:EE Y:00 P:E5 SP:FB CYC:8848
D991  A9 00     LDA #$00                        A:FF X:EE Y:00 P:A5 SP:FB CYC:8850
D993  11 33     ORA ($33),Y = 0400 @ 0400 = AA  A:00 X:EE Y:00 P:27 SP:FB CYC:8852
D995  F0 06     BEQ $D99D                       A:AA X:EE Y:00 P:A5 SP:FB CYC:8857
D997  70 04     BVS $D99D                       A:AA X:EE Y:00 P:A5 SP:FB CYC:8859
D999  90 02     BCC $D99D                       A:AA X:EE Y:00 P:A5 SP:FB CYC:8861
D99B  30 02     BMI $D99F                       A:AA X:EE Y:00 P:A5 SP:FB CYC:8863
D99F  E8        INX                             A:AA X:EE Y:00 P:A5 SP:FB CYC:8865
D9A0  18        CLC                             A:AA X:EF Y:00 P:A5 SP:FB CYC:8867
D9A1  24 01     BIT $01 = FF                    A:AA X:EF Y:00 P:A4 SP:FB CYC:8869
D9A3  A9 55     LDA #$55                        A:AA X:EF Y:00 P:E4 SP:FB CYC:8872
D9A5  31 33     AND ($33),Y = 0400 @ 0400 = AA  A:55 X:EF Y:00 P:64 SP:FB CYC:8874
D9A7  D0 06     BNE $D9AF                       A:00 X:EF Y:00 P:66 SP:FB CYC:8879
D9A9  50 04     BVC $D9AF                       A:00 X:EF Y:00 P:66 SP:FB CYC:8881
D9AB  B0 02     BCS $D9AF                       A:00 X:EF Y:00 P:66 SP:FB CYC:8883
D9AD  10 02     BPL $D9B1                       A:00 X:EF Y:00 P:66 SP:FB CYC:8885
D9B1  E8        INX                             A:00 X:EF Y:00 P:66 SP:FB CYC:8887
D9B2  38        SEC                             A:00 X:F0 Y:00 P:E4 SP:FB CYC:8889
D9B3  B8        CLV                             A:00 X:F0 Y:00 P:E5 SP:FB CYC:8891
D9B4  A9 EF     LDA #$EF                        A:00 X:F0 Y:00 P:A5 SP:FB CYC:8893
D9B6  8D 00 04  STA $0400 = AA                  A:EF X:F0 Y:00 P:A5 SP:FB CYC:8895
D9B9  A9 F8     LDA #$F8                        A:EF X:F0 Y:00 P:A5 SP:FB CYC:8899
D9BB  31 33     AND ($33),Y = 0400 @ 0400 = EF  A:F8 X:F0 Y:00 P:A5 SP:FB CYC:8901
D9BD  90 08     BCC $D9C7                       A:E8 X:F0 Y:00 P:A5 SP:FB CYC:8906
D9BF  10 06     BPL $D9C7                       A:E8 X:F0 Y:00 P:A5 SP:FB CYC:8908
D9C1  C9 E8     CMP #$E8                        A:E8 X:F0 Y:00 P:A5 SP:FB CYC:8910
D9C3  D0 02     BNE $D9C7                       A:E8 X:F0 Y:00 P:27 SP:FB CYC:8912
D9C5  50 02     BVC $D9C9                       A:E8 X:F0 Y:00 P:27 SP:FB CYC:8914
D9C9  E8        INX                             A:E8 X:F0 Y:00 P:27 SP:FB CYC:8916
D9CA  18        CLC                             A:E8 X:F1 Y:00 P:A5 SP:FB CYC:8918
D9CB  24 01     BIT $01 = FF                    A:E8 X:F1 Y:00 P:A4 SP:FB CYC:8920
D9CD  A9 AA     LDA #$AA                        A:E8 X:F1 Y:00 P:E4 SP:FB CYC:8923
D9CF  8D 00 04  STA $0400 = EF                  A:AA X:F1 Y:00 P:E4 SP:FB CYC:8925
D9D2  A9 5F     LDA #$5F                        A:AA X:F1 Y:00 P:E4 SP:FB CYC:8929
D9D4  51 33     EOR ($33),Y = 0400 @ 0400 = AA  A:5F X:F1 Y:00 P:64 SP:FB CYC:8931
D9D6  B0 08     BCS $D9E0                       A:F5 X:F1 Y:00 P:E4 SP:FB CYC:8936
D9D8  10 06     BPL $D9E0                       A:F5 X:F1 Y:00 P:E4 SP:FB CYC:8938
D9DA  C9 F5     CMP #$F5                        A:F5 X:F1 Y:00 P:E4 SP:FB CYC:8940
D9DC  D0 02     BNE $D9E0                       A:F5 X:F1 Y:00 P:67 SP:FB CYC:8942
D9DE  70 02     BVS $D9E2                       A:F5 X:F1 Y:00 P:67 SP:FB CYC:8944
D9E2  E8        INX                             A:F5 X:F1 Y:00 P:67 SP:FB CYC:8946
D9E3  38        SEC                             A:F5 X:F2 Y:00 P:E5 SP:FB CYC:8948
D9E4  B8        CLV                             A:F5 X:F2 Y:00 P:E5 SP:FB CYC:8950
D9E5  A9 70     LDA #$70                        A:F5 X:F2 Y:00 P:A5 SP:FB CYC:8952
D9E7  8D 00 04  STA $0400 = AA                  A:70 X:F2 Y:00 P:25 SP:FB CYC:8954
D9EA  51 33     EOR ($33),Y = 0400 @ 0400 = 70  A:70 X:F2 Y:00 P:25 SP:FB CYC:8958
D9EC  D0 06     BNE $D9F4                       A:00 X:F2 Y:00 P:27 SP:FB CYC:8963
D9EE  70 04     BVS $D9F4                       A:00 X:F2 Y:00 P:27 SP:FB CYC:8965
D9F0  90 02     BCC $D9F4                       A:00 X:F2 Y:00 P:27 SP:FB CYC:8967
D9F2  10 02     BPL $D9F6                       A:00 X:F2 Y:00 P:27 SP:FB CYC:8969
D9F6  E8        INX                             A:00 X:F2 Y:00 P:27 SP:FB CYC:8971
D9F7  18        CLC                             A:00 X:F3 Y:00 P:A5 SP:FB CYC:8973
D9F8  24 01     BIT $01 = FF                    A:00 X:F3 Y:00 P:A4 SP:FB CYC:8975
D9FA  A9 69     LDA #$69                        A:00 X:F3 Y:00 P:E6 SP:FB CYC:8978
D9FC  8D 00 04  STA $0400 = 70                  A:69 X:F3 Y:00 P:64 SP:FB CYC:8980
D9FF  A9 00     LDA #$00                        A:69 X:F3 Y:00 P:64 SP:FB CYC:8984
DA01  71 33     ADC ($33),Y = 0400 @ 0400 = 69  A:00 X:F3 Y:00 P:66 SP:FB CYC:8986
DA03  30 08     BMI $DA0D                       A:69 X:F3 Y:00 P:24 SP:FB CYC:8991
DA05  B0 06     BCS $DA0D                       A:69 X:F3 Y:00 P:24 SP:FB CYC:8993
DA07  C9 69     CMP #$69                        A:69 X:F3 Y:00 P:24 SP:FB CYC:8995
DA09  D0 02     BNE $DA0D                       A:69 X:F3 Y:00 P:27 SP:FB CYC:8997
DA0B  50 02     BVC $DA0F                       A:69 X:F3 Y:00 P:27 SP:FB CYC:8999
DA0F  E8        INX                             A:69 X:F3 Y:00 P:27 SP:FB CYC:9001
DA10  38        SEC                             A:69 X:F4 Y:00 P:A5 SP:FB CYC:9003
DA11  24 01     BIT $01 = FF                    A:69 X:F4 Y:00 P:A5 SP:FB CYC:9005
DA13  A9 00     LDA #$00                        A:69 X:F4 Y:00 P:E5 SP:FB CYC:9008
DA15  71 33     ADC ($33),Y = 0400 @ 0400 = 69  A:00 X:F4 Y:00 P:67 SP:FB CYC:9010
DA17  30 08     BMI $DA21                       A:6A X:F4 Y:00 P:24 SP:FB CYC:9015
DA19  B0 06     BCS $DA21                       A:6A X:F4 Y:00 P:24 SP:FB CYC:9017
DA1B  C9 6A     CMP #$6A                        A:6A X:F4 Y:00 P:24 SP:FB CYC:9019
DA1D  D0 02     BNE $DA21                       A:6A X:F4 Y:00 P:27 SP:FB CYC:9021
DA1F  50 02     BVC $DA23                       A:6A X:F4 Y:00 P:27 SP:FB CYC:9023
DA23  E8        INX                             A:6A X:F4 Y:00 P:27 SP:FB CYC:9025
DA24  38        SEC                             A:6A X:F5 Y:00 P:A5 SP:FB CYC:9027
DA25  B8        CLV                             A:6A X:F5 Y:00 P:A5 SP:FB CYC:9029
DA26  A9 7F     LDA #$7F                        A:6A X:F5 Y:00 P:A5 SP:FB CYC:9031
DA28  8D 00 04  STA $0400 = 69                  A:7F X:F5 Y:00 P:25 SP:FB CYC:9033
DA2B  71 33     ADC ($33),Y = 0400 @ 0400 = 7F  A:7F X:F5 Y:00 P:25 SP:FB CYC:9037
DA2D  10 08     BPL $DA37                       A:FF X:F5 Y:00 P:E4 SP:FB CYC:9042
DA2F  B0 06     BCS $DA37                       A:FF X:F5 Y:00 P:E4 SP:FB CYC:9044
DA31  C9 FF     CMP #$FF                        A:FF X:F5 Y:00 P:E4 SP:FB CYC:9046
DA33  D0 02     BNE $DA37                       A:FF X:F5 Y:00 P:67 SP:FB CYC:9048
DA35  70 02     BVS $DA39                       A:FF X:F5 Y:00 P:67 SP:FB CYC:9050
DA39  E8        INX                             A:FF X:F5 Y:00 P:67 SP:FB CYC:9052
DA3A  18        CLC                             A:FF X:F6 Y:00 P:E5 SP:FB CYC:9054
DA3B  24 01     BIT $01 = FF                    A:FF X:F6 Y:00 P:E4 SP:FB CYC:9056
DA3D  A9 80     LDA #$80                        A:FF X:F6 Y:00 P:E4 SP:FB CYC:9059
DA3F  8D 00 04  STA $0400 = 7F                  A:80 X:F6 Y:00 P:E4 SP:FB CYC:9061
DA42  A9 7F     LDA #$7F                        A:80 X:F6 Y:00 P:E4 SP:FB CYC:9065
DA44  71 33     ADC ($33),Y = 0400 @ 0400 = 80  A:7F X:F6 Y:00 P:64 SP:FB CYC:9067
DA46  10 08     BPL $DA50                       A:FF X:F6 Y:00 P:A4 SP:FB CYC:9072
DA48  B0 06     BCS $DA50                       A:FF X:F6 Y:00 P:A4 SP:FB CYC:9074
DA4A  C9 FF     CMP #$FF                        A:FF X:F6 Y:00 P:A4 SP:FB CYC:9076
DA4C  D0 02     BNE $DA50                       A:FF X:F6 Y:00 P:27 SP:FB CYC:9078
DA4E  50 02     BVC $DA52                       A:FF X:F6 Y:00 P:27 SP:FB CYC:9080
DA52  E8        INX                             A:FF X:F6 Y:00 P:27 SP:FB CYC:9082
DA53  38        SEC                             A:FF X:F7 Y:00 P:A5 SP:FB CYC:9084
DA54  B8        CLV                             A:FF X:F7 Y:00 P:A5 SP:FB CYC:9086
DA55  A9 80     LDA #$80                        A:FF X:F7 Y:00 P:A5 SP:FB CYC:9088
DA57  8D 00 04  STA $0400 = 80                  A:80 X:F7 Y:00 P:A5 SP:FB CYC:9090
DA5A  A9 7F     LDA #$7F                        A:80 X:F7 Y:00 P:A5 SP:FB CYC:9094
DA5C  71 33     ADC ($33),Y = 0400 @ 0400 = 80  A:7F X:F7 Y:00 P:25 SP:FB CYC:9096
DA5E  D0 06     BNE $DA66                       A:00 X:F7 Y:00 P:27 SP:FB CYC:9101
DA60  30 04     BMI $DA66                       A:00 X:F7 Y:00 P:27 SP:FB CYC:9103
DA62  70 02     BVS $DA66                       A:00 X:F7 Y:00 P:27 SP:FB CYC:9105
DA64  B0 02     BCS $DA68                       A:00 X:F7 Y:00 P:27 SP:FB CYC:9107
DA68  E8        INX                             A:00 X:F7 Y:00 P:27 SP:FB CYC:9109
DA69  24 01     BIT $01 = FF                    A:00 X:F8 Y:00 P:A5 SP:FB CYC:9111
DA6B  A9 40     LDA #$40                        A:00 X:F8 Y:00 P:E7 SP:FB CYC:9114
DA6D  8D 00 04  STA $0400 = 80                  A:40 X:F8 Y:00 P:65 SP:FB CYC:9116
DA70  D1 33     CMP ($33),Y = 0400 @ 0400 = 40  A:40 X:F8 Y:00 P:65 SP:FB CYC:9120
DA72  30 06     BMI $DA7A                       A:40 X:F8 Y:00 P:67 SP:FB CYC:9125
DA74  90 04     BCC $DA7A                       A:40 X:F8 Y:00 P:67 SP:FB CYC:9127
DA76  D0 02     BNE $DA7A                       A:40 X:F8 Y:00 P:67 SP:FB CYC:9129
DA78  70 02     BVS $DA7C                       A:40 X:F8 Y:00 P:67 SP:FB CYC:9131
DA7C  E8        INX                             A:40 X:F8 Y:00 P:67 SP:FB CYC:9133
DA7D  B8        CLV                             A:40 X:F9 Y:00 P:E5 SP:FB CYC:9135
DA7E  CE 00 04  DEC $0400 = 40                  A:40 X:F9 Y:00 P:A5 SP:FB CYC:9137
DA81  D1 33     CMP ($33),Y = 0400 @ 0400 = 3F  A:40 X:F9 Y:00 P:25 SP:FB CYC:9143
DA83  F0 06     BEQ $DA8B                       A:40 X:F9 Y:00 P:25 SP:FB CYC:9148
DA85  30 04     BMI $DA8B                       A:40 X:F9 Y:00 P:25 SP:FB CYC:9150
DA87  90 02     BCC $DA8B                       A:40 X:F9 Y:00 P:25 SP:FB CYC:9152
DA89  50 02     BVC $DA8D                       A:40 X:F9 Y:00 P:25 SP:FB CYC:9154
DA8D  E8        INX                             A:40 X:F9 Y:00 P:25 SP:FB CYC:9156
DA8E  EE 00 04  INC $0400 = 3F                  A:40 X:FA Y:00 P:A5 SP:FB CYC:9158
DA91  EE 00 04  INC $0400 = 40                  A:40 X:FA Y:00 P:25 SP:FB CYC:9164
DA94  D1 33     CMP ($33),Y = 0400 @ 0400 = 41  A:40 X:FA Y:00 P:25 SP:FB CYC:9170
DA96  F0 02     BEQ $DA9A                       A:40 X:FA Y:00 P:A4 SP:FB CYC:9175
DA98  30 02     BMI $DA9C                       A:40 X:FA Y:00 P:A4 SP:FB CYC:9177
DA9C  E8        INX                             A:40 X:FA Y:00 P:A4 SP:FB CYC:9179
DA9D  A9 00     LDA #$00                        A:40 X:FB Y:00 P:A4 SP:FB CYC:9181
DA9F  8D 00 04  STA $0400 = 41                  A:00 X:FB Y:00 P:26 SP:FB CYC:9183
DAA2  A9 80     LDA #$80                        A:00 X:FB Y:00 P:26 SP:FB CYC:9187
DAA4  D1 33     CMP ($33),Y = 0400 @ 0400 = 00  A:80 X:FB Y:00 P:A4 SP:FB CYC:9189
DAA6  F0 04     BEQ $DAAC                       A:80 X:FB Y:00 P:A5 SP:FB CYC:9194
DAA8  10 02     BPL $DAAC                       A:80 X:FB Y:00 P:A5 SP:FB CYC:9196
DAAA  B0 02     BCS $DAAE                       A:80 X:FB Y:00 P:A5 SP:FB CYC:9198
DAAE  E8        INX                             A:80 X:FB Y:00 P:A5 SP:FB CYC:9200
DAAF  A0 80     LDY #$80                        A:80 X:FC Y:00 P:A5 SP:FB CYC:9202
DAB1  8C 00 04  STY $0400 = 00                  A:80 X:FC Y:80 P:A5 SP:FB CYC:9204
DAB4  A0 00     LDY #$00                        A:80 X:FC Y:80 P:A5 SP:FB CYC:9208
DAB6  D1 33     CMP ($33),Y = 0400 @ 0400 = 80  A:80 X:FC Y:00 P:27 SP:FB CYC:9210
DAB8  D0 04     BNE $DABE                       A:80 X:FC Y:00 P:27 SP:FB CYC:9215
DABA  30 02     BMI $DABE                       A:80 X:FC Y:00 P:27 SP:FB CYC:9217
DABC  B0 02     BCS $DAC0                       A:80 X:FC Y:00 P:27 SP:FB CYC:9219
DAC0  E8        INX                             A:80 X:FC Y:00 P:27 SP:FB CYC:9221
DAC1  EE 00 04  INC $0400 = 80                  A:80 X:FD Y:00 P:A5 SP:FB CYC:9223
DAC4  D1 33     CMP ($33),Y = 0400 @ 0400 = 81  A:80 X:FD Y:00 P:A5 SP:FB CYC:9229
DAC6  B0 04     BCS $DACC                       A:80 X:FD Y:00 P:A4 SP:FB CYC:9234
DAC8  F0 02     BEQ $DACC                       A:80 X:FD Y:00 P:A4 SP:FB CYC:9236
DACA  30 02     BMI $DACE                       A:80 X:FD Y:00 P:A4 SP:FB CYC:9238
DACE  E8        INX                             A:80 X:FD Y:00 P:A4 SP:FB CYC:9240
DACF  CE 00 04  DEC $0400 = 81                  A:80 X:FE Y:00 P:A4 SP:FB CYC:9242
DAD2  CE 00 04  DEC $0400 = 80                  A:80 X:FE Y:00 P:A4 SP:FB CYC:9248
DAD5  D1 33     CMP ($33),Y = 0400 @ 0400 = 7F  A:80 X:FE Y:00 P:24 SP:FB CYC:9254
DAD7  90 04     BCC $DADD                       A:80 X:FE Y:00 P:25 SP:FB CYC:9259
DAD9  F0 02     BEQ $DADD                       A:80 X:FE Y:00 P:25 SP:FB CYC:9261
DADB  10 02     BPL $DADF                       A:80 X:FE Y:00 P:25 SP:FB CYC:9263
DADF  60        RTS                             A:80 X:FE Y:00 P:25 SP:FB CYC:9265
C61B  A5 00     LDA $00 = 00                    A:80 X:FE Y:00 P:25 SP:FD CYC:9271
C61D  85 10     STA $10 = 00                    A:00 X:FE Y:00 P:27 SP:FD CYC:9274
C61F  A9 00     LDA #$00                        A:00 X:FE Y:00 P:27 SP:FD CYC:9277
C621  85 00     STA $00 = 00                    A:00 X:FE Y:00 P:27 SP:FD CYC:9279
C623  20 E0 DA  JSR $DAE0                       A:00 X:FE Y:00 P:27 SP:FD CYC:9282
DAE0  A9 00     LDA #$00                        A:00 X:FE Y:00 P:27 SP:FB CYC:9288
DAE2  85 33     STA $33 = 00                    A:00 X:FE Y:00 P:27 SP:FB CYC:9290
DAE4  A9 04     LDA #$04                        A:00 X:FE Y:00 P:27 SP:FB CYC:9293
DAE6  85 34     STA $34 = 04                    A:04 X:FE Y:00 P:25 SP:FB CYC:9295
DAE8  A0 00     LDY #$00                        A:04 X:FE Y:00 P:25 SP:FB CYC:9298
DAEA  A2 01     LDX #$01                        A:04 X:FE Y:00 P:27 SP:FB CYC:9300
DAEC  24 01     BIT $01 = FF                    A:04 X:01 Y:00 P:25 SP:FB CYC:9302
DAEE  A9 40     LDA #$40                        A:04 X:01 Y:00 P:E5 SP:FB CYC:9305
DAF0  8D 00 04  STA $0400 = 7F                  A:40 X:01 Y:00 P:65 SP:FB CYC:9307
DAF3  38        SEC                             A:40 X:01 Y:00 P:65 SP:FB CYC:9311
DAF4  F1 33     SBC ($33),Y = 0400 @ 0400 = 40  A:40 X:01 Y:00 P:65 SP:FB CYC:9313
DAF6  30 0A     BMI $DB02                       A:00 X:01 Y:00 P:27 SP:FB CYC:9318
DAF8  90 08     BCC $DB02                       A:00 X:01 Y:00 P:27 SP:FB CYC:9320
DAFA  D0 06     BNE $DB02                       A:00 X:01 Y:00 P:27 SP:FB CYC:9322
DAFC  70 04     BVS $DB02                       A:00 X:01 Y:00 P:27 SP:FB CYC:9324
DAFE  C9 00     CMP #$00                        A:00 X:01 Y:00 P:27 SP:FB CYC:9326
DB00  F0 02     BEQ $DB04                       A:00 X:01 Y:00 P:27 SP:FB CYC:9328
DB04  E8        INX                             A:00 X:01 Y:00 P:27 SP:FB CYC:9330
DB05  B8        CLV                             A:00 X:02 Y:00 P:25 SP:FB CYC:9332
DB06  38        SEC                             A:00 X:02 Y:00 P:25 SP:FB CYC:9334
DB07  A9 40     LDA #$40                        A:00 X:02 Y:00 P:25 SP:FB CYC:9336
DB09  CE 00 04  DEC $0400 = 40                  A:40 X:02 Y:00 P:25 SP:FB CYC:9338
DB0C  F1 33     SBC ($33),Y = 0400 @ 0400 = 3F  A:40 X:02 Y:00 P:25 SP:FB CYC:9344
DB0E  F0 0A     BEQ $DB1A                       A:01 X:02 Y:00 P:25 SP:FB CYC:9349
DB10  30 08     BMI $DB1A                       A:01 X:02 Y:00 P:25 SP:FB CYC:9351
DB12  90 06     BCC $DB1A                       A:01 X:02 Y:00 P:25 SP:FB CYC:9353
DB14  70 04     BVS $DB1A                       A:01 X:02 Y:00 P:25 SP:FB CYC:9355
DB16  C9 01     CMP #$01                        A:01 X:02 Y:00 P:25 SP:FB CYC:9357
DB18  F0 02     BEQ $DB1C                       A:01 X:02 Y:00 P:27 SP:FB CYC:9359
DB1C  E8        INX                             A:01 X:02 Y:00 P:27 SP:FB CYC:9361
DB1D  A9 40     LDA #$40                        A:01 X:03 Y:00 P:25 SP:FB CYC:9363
DB1F  38        SEC                             A:40 X:03 Y:00 P:25 SP:FB CYC:9365
DB20  24 01     BIT $01 = FF                    A:40 X:03 Y:00 P:25 SP:FB CYC:9367
DB22  EE 00 04  INC $0400 = 3F                  A:40 X:03 Y:00 P:E5 SP:FB CYC:9370
DB25  EE 00 04  INC $0400 = 40                  A:40 X:03 Y:00 P:65 SP:FB CYC:9376
DB28  F1 33     SBC ($33),Y = 0400 @ 0400 = 41  A:40 X:03 Y:00 P:65 SP:FB CYC:9382
DB2A  B0 0A     BCS $DB36                       A:FF X:03 Y:00 P:A4 SP:FB CYC:9387
DB2C  F0 08     BEQ $DB36                       A:FF X:03 Y:00 P:A4 SP:FB CYC:9389
DB2E  10 06     BPL $DB36                       A:FF X:03 Y:00 P:A4 SP:FB CYC:9391
DB30  70 04     BVS $DB36                       A:FF X:03 Y:00 P:A4 SP:FB CYC:9393
DB32  C9 FF     CMP #$FF                        A:FF X:03 Y:00 P:A4 SP:FB CYC:9395
DB34  F0 02     BEQ $DB38                       A:FF X:03 Y:00 P:27 SP:FB CYC:9397
DB38  E8        INX                             A:FF X:03 Y:00 P:27 SP:FB CYC:9399
DB39  18        CLC                             A:FF X:04 Y:00 P:25 SP:FB CYC:9401
DB3A  A9 00     LDA #$00                        A:FF X:04 Y:00 P:24 SP:FB CYC:9403
DB3C  8D 00 04  STA $0400 = 41                  A:00 X:04 Y:00 P:26 SP:FB CYC:9405
DB3F  A9 80     LDA #$80                        A:00 X:04 Y:00 P:26 SP:FB CYC:9409
DB41  F1 33     SBC ($33),Y = 0400 @ 0400 = 00  A:80 X:04 Y:00 P:A4 SP:FB CYC:9411
DB43  90 04     BCC $DB49                       A:7F X:04 Y:00 P:65 SP:FB CYC:9416
DB45  C9 7F     CMP #$7F                        A:7F X:04 Y:00 P:65 SP:FB CYC:9418
DB47  F0 02     BEQ $DB4B                       A:7F X:04 Y:00 P:67 SP:FB CYC:9420
DB4B  E8        INX                             A:7F X:04 Y:00 P:67 SP:FB CYC:9422
DB4C  38        SEC                             A:7F X:05 Y:00 P:65 SP:FB CYC:9424
DB4D  A9 7F     LDA #$7F                        A:7F X:05 Y:00 P:65 SP:FB CYC:9426
DB4F  8D 00 04  STA $0400 = 00                  A:7F X:05 Y:00 P:65 SP:FB CYC:9428
DB52  A9 81     LDA #$81                        A:7F X:05 Y:00 P:65 SP:FB CYC:9432
DB54  F1 33     SBC ($33),Y = 0400 @ 0400 = 7F  A:81 X:05 Y:00 P:E5 SP:FB CYC:9434
DB56  50 06     BVC $DB5E                       A:02 X:05 Y:00 P:65 SP:FB CYC:9439
DB58  90 04     BCC $DB5E                       A:02 X:05 Y:00 P:65 SP:FB CYC:9441
DB5A  C9 02     CMP #$02                        A:02 X:05 Y:00 P:65 SP:FB CYC:9443
DB5C  F0 02     BEQ $DB60                       A:02 X:05 Y:00 P:67 SP:FB CYC:9445
DB60  E8        INX                             A:02 X:05 Y:00 P:67 SP:FB CYC:9447
DB61  A9 00     LDA #$00                        A:02 X:06 Y:00 P:65 SP:FB CYC:9449
DB63  A9 87     LDA #$87                        A:00 X:06 Y:00 P:67 SP:FB CYC:9451
DB65  91 33     STA ($33),Y = 0400 @ 0400 = 7F  A:87 X:06 Y:00 P:E5 SP:FB CYC:9453
DB67  AD 00 04  LDA $0400 = 87                  A:87 X:06 Y:00 P:E5 SP:FB CYC:9459
DB6A  C9 87     CMP #$87                        A:87 X:06 Y:00 P:E5 SP:FB CYC:9463
DB6C  F0 02     BEQ $DB70                       A:87 X:06 Y:00 P:67 SP:FB CYC:9465
DB70  E8        INX                             A:87 X:06 Y:00 P:67 SP:FB CYC:9467
DB71  A9 7E     LDA #$7E                        A:87 X:07 Y:00 P:65 SP:FB CYC:9469
DB73  8D 00 02  STA $0200 = 7F                  A:7E X:07 Y:00 P:65 SP:FB CYC:9471
DB76  A9 DB     LDA #$DB                        A:7E X:07 Y:00 P:65 SP:FB CYC:9475
DB78  8D 01 02  STA $0201 = 00                  A:DB X:07 Y:00 P:E5 SP:FB CYC:9477
DB7B  6C 00 02  JMP ($0200) = DB7E              A:DB X:07 Y:00 P:E5 SP:FB CYC:9481
DB7E  A9 00     LDA #$00                        A:DB X:07 Y:00 P:E5 SP:FB CYC:9487
DB80  8D FF 02  STA $02FF = 00                  A:00 X:07 Y:00 P:67 SP:FB CYC:9489
DB83  A9 01     LDA #$01                        A:00 X:07 Y:00 P:67 SP:FB CYC:9493
DB85  8D 00 03  STA $0300 = 89                  A:01 X:07 Y:00 P:65 SP:FB CYC:9495
DB88  A9 03     LDA #$03                        A:01 X:07 Y:00 P:65 SP:FB CYC:9499
DB8A  8D 00 02  STA $0200 = 7E                  A:03 X:07 Y:00 P:65 SP:FB CYC:9501
DB8D  A9 A9     LDA #$A9                        A:03 X:07 Y:00 P:65 SP:FB CYC:9505
DB8F  8D 00 01  STA $0100 = 00                  A:A9 X:07 Y:00 P:E5 SP:FB CYC:9507
DB92  A9 55     LDA #$55                        A:A9 X:07 Y:00 P:E5 SP:FB CYC:9511
DB94  8D 01 01  STA $0101 = 00                  A:55 X:07 Y:00 P:65 SP:FB CYC:9513
DB97  A9 60     LDA #$60                        A:55 X:07 Y:00 P:65 SP:FB CYC:9517
DB99  8D 02 01  STA $0102 = 00                  A:60 X:07 Y:00 P:65 SP:FB CYC:9519
DB9C  A9 A9     LDA #$A9                        A:60 X:07 Y:00 P:65 SP:FB CYC:9523
DB9E  8D 00 03  STA $0300 = 01                  A:A9 X:07 Y:00 P:E5 SP:FB CYC:9525
DBA1  A9 AA     LDA #$AA                        A:A9 X:07 Y:00 P:E5 SP:FB CYC:9529
DBA3  8D 01 03  STA $0301 = 00                  A:AA X:07 Y:00 P:E5 SP:FB CYC:9531
DBA6  A9 60     LDA #$60                        A:AA X:07 Y:00 P:E5 SP:FB CYC:9535
DBA8  8D 02 03  STA $0302 = 00                  A:60 X:07 Y:00 P:65 SP:FB CYC:9537
DBAB  20 B5 DB  JSR $DBB5                       A:60 X:07 Y:00 P:65 SP:FB CYC:9541
DBB5  6C FF 02  JMP ($02FF) = 0300              A:60 X:07 Y:00 P:65 SP:F9 CYC:9547
0300  A9 AA     LDA #$AA                        A:60 X:07 Y:00 P:65 SP:F9 CYC:9553
0302  60        RTS                             A:AA X:07 Y:00 P:E5 SP:F9 CYC:9555
DBAE  C9 AA     CMP #$AA                        A:AA X:07 Y:00 P:E5 SP:FB CYC:9561
DBB0  F0 02     BEQ $DBB4                       A:AA X:07 Y:00 P:67 SP:FB CYC:9563
DBB4  60        RTS                             A:AA X:07 Y:00 P:67 SP:FB CYC:9565
C626  20 4A DF  JSR $DF4A                       A:AA X:07 Y:00 P:67 SP:FD CYC:9571
DF4A  A9 89     LDA #$89                        A:AA X:07 Y:00 P:67 SP:FB CYC:9577
DF4C  8D 00 03  STA $0300 = A9                  A:89 X:07 Y:00 P:E5 SP:FB CYC:9579
DF4F  A9 A3     LDA #$A3                        A:89 X:07 Y:00 P:E5 SP:FB CYC:9583
DF51  85 33     STA $33 = 00                    A:A3 X:07 Y:00 P:E5 SP:FB CYC:9585
DF53  A9 12     LDA #$12                        A:A3 X:07 Y:00 P:E5 SP:FB CYC:9588
DF55  8D 45 02  STA $0245 = 12                  A:12 X:07 Y:00 P:65 SP:FB CYC:9590
DF58  A2 65     LDX #$65                        A:12 X:07 Y:00 P:65 SP:FB CYC:9594
DF5A  A0 00     LDY #$00                        A:12 X:65 Y:00 P:65 SP:FB CYC:9596
DF5C  38        SEC                             A:12 X:65 Y:00 P:67 SP:FB CYC:9598
DF5D  A9 00     LDA #$00                        A:12 X:65 Y:00 P:67 SP:FB CYC:9600
DF5F  B8        CLV                             A:00 X:65 Y:00 P:67 SP:FB CYC:9602
DF60  B9 00 03  LDA $0300,Y @ 0300 = 89         A:00 X:65 Y:00 P:27 SP:FB CYC:9604
DF63  F0 0C     BEQ $DF71                       A:89 X:65 Y:00 P:A5 SP:FB CYC:9608
DF65  90 0A     BCC $DF71                       A:89 X:65 Y:00 P:A5 SP:FB CYC:9610
DF67  70 08     BVS $DF71                       A:89 X:65 Y:00 P:A5 SP:FB CYC:9612
DF69  C9 89     CMP #$89                        A:89 X:65 Y:00 P:A5 SP:FB CYC:9614
DF6B  D0 04     BNE $DF71                       A:89 X:65 Y:00 P:27 SP:FB CYC:9616
DF6D  E0 65     CPX #$65                        A:89 X:65 Y:00 P:27 SP:FB CYC:9618
DF6F  F0 04     BEQ $DF75                       A:89 X:65 Y:00 P:27 SP:FB CYC:9620
DF75  A9 FF     LDA #$FF                        A:89 X:65 Y:00 P:27 SP:FB CYC:9622
DF77  85 01     STA $01 = FF                    A:FF X:65 Y:00 P:A5 SP:FB CYC:9624
DF79  24 01     BIT $01 = FF                    A:FF X:65 Y:00 P:A5 SP:FB CYC:9627
DF7B  A0 34     LDY #$34                        A:FF X:65 Y:00 P:E5 SP:FB CYC:9630
DF7D  B9 FF FF  LDA $FFFF,Y @ 0033 = A3         A:FF X:65 Y:34 P:65 SP:FB CYC:9632
DF80  C9 A3     CMP #$A3                        A:A3 X:65 Y:34 P:E5 SP:FB CYC:9636
DF82  D0 02     BNE $DF86                       A:A3 X:65 Y:34 P:67 SP:FB CYC:9638
DF84  B0 04     BCS $DF8A                       A:A3 X:65 Y:34 P:67 SP:FB CYC:9640
DF8A  A9 46     LDA #$46                        A:A3 X:65 Y:34 P:67 SP:FB CYC:9642
DF8C  85 FF     STA $FF = 46                    A:46 X:65 Y:34 P:65 SP:FB CYC:9644
DF8E  A0 FF     LDY #$FF                        A:46 X:65 Y:34 P:65 SP:FB CYC:9647
DF90  B9 46 01  LDA $0146,Y @ 0245 = 12         A:46 X:65 Y:FF P:E5 SP:FB CYC:9649
DF93  C9 12     CMP #$12                        A:12 X:65 Y:FF P:65 SP:FB CYC:9653
DF95  F0 04     BEQ $DF9B                       A:12 X:65 Y:FF P:67 SP:FB CYC:9655
DF9B  A2 39     LDX #$39                        A:12 X:65 Y:FF P:67 SP:FB CYC:9657
DF9D  18        CLC                             A:12 X:39 Y:FF P:65 SP:FB CYC:9659
DF9E  A9 FF     LDA #$FF                        A:12 X:39 Y:FF P:64 SP:FB CYC:9661
DFA0  85 01     STA $01 = FF                    A:FF X:39 Y:FF P:E4 SP:FB CYC:9663
DFA2  24 01     BIT $01 = FF                    A:FF X:39 Y:FF P:E4 SP:FB CYC:9666
DFA4  A9 AA     LDA #$AA                        A:FF X:39 Y:FF P:E4 SP:FB CYC:9669
DFA6  8D 00 04  STA $0400 = 87                  A:AA X:39 Y:FF P:E4 SP:FB CYC:9671
DFA9  A9 55     LDA #$55                        A:AA X:39 Y:FF P:E4 SP:FB CYC:9675
DFAB  A0 00     LDY #$00                        A:55 X:39 Y:FF P:64 SP:FB CYC:9677
DFAD  19 00 04  ORA $0400,Y @ 0400 = AA         A:55 X:39 Y:00 P:66 SP:FB CYC:9679
DFB0  B0 08     BCS $DFBA                       A:FF X:39 Y:00 P:E4 SP:FB CYC:9683
DFB2  10 06     BPL $DFBA                       A:FF X:39 Y:00 P:E4 SP:FB CYC:9685
DFB4  C9 FF     CMP #$FF                        A:FF X:39 Y:00 P:E4 SP:FB CYC:9687
DFB6  D0 02     BNE $DFBA                       A:FF X:39 Y:00 P:67 SP:FB CYC:9689
DFB8  70 02     BVS $DFBC                       A:FF X:39 Y:00 P:67 SP:FB CYC:9691
DFBC  E8        INX                             A:FF X:39 Y:00 P:67 SP:FB CYC:9693
DFBD  38        SEC                             A:FF X:3A Y:00 P:65 SP:FB CYC:9695
DFBE  B8        CLV                             A:FF X:3A Y:00 P:65 SP:FB CYC:9697
DFBF  A9 00     LDA #$00                        A:FF X:3A Y:00 P:25 SP:FB CYC:9699
DFC1  19 00 04  ORA $0400,Y @ 0400 = AA         A:00 X:3A Y:00 P:27 SP:FB CYC:9701
DFC4  F0 06     BEQ $DFCC                       A:AA X:3A Y:00 P:A5 SP:FB CYC:9705
DFC6  70 04     BVS $DFCC                       A:AA X:3A Y:00 P:A5 SP:FB CYC:9707
DFC8  90 02     BCC $DFCC                       A:AA X:3A Y:00 P:A5 SP:FB CYC:9709
DFCA  30 02     BMI $DFCE                       A:AA X:3A Y:00 P:A5 SP:FB CYC:9711
DFCE  E8        INX                             A:AA X:3A Y:00 P:A5 SP:FB CYC:9713
DFCF  18        CLC                             A:AA X:3B Y:00 P:25 SP:FB CYC:9715
DFD0  24 01     BIT $01 = FF                    A:AA X:3B Y:00 P:24 SP:FB CYC:9717
DFD2  A9 55     LDA #$55                        A:AA X:3B Y:00 P:E4 SP:FB CYC:9720
DFD4  39 00 04  AND $0400,Y @ 0400 = AA         A:55 X:3B Y:00 P:64 SP:FB CYC:9722
DFD7  D0 06     BNE $DFDF                       A:00 X:3B Y:00 P:66 SP:FB CYC:9726
DFD9  50 04     BVC $DFDF                       A:00 X:3B Y:00 P:66 SP:FB CYC:9728
DFDB  B0 02     BCS $DFDF                       A:00 X:3B Y:00 P:66 SP:FB CYC:9730
DFDD  10 02     BPL $DFE1                       A:00 X:3B Y:00 P:66 SP:FB CYC:9732
DFE1  E8        INX                             A:00 X:3B Y:00 P:66 SP:FB CYC:9734
DFE2  38        SEC                             A:00 X:3C Y:00 P:64 SP:FB CYC:9736
DFE3  B8        CLV                             A:00 X:3C Y:00 P:65 SP:FB CYC:9738
DFE4  A9 EF     LDA #$EF                        A:00 X:3C Y:00 P:25 SP:FB CYC:9740
DFE6  8D 00 04  STA $0400 = AA                  A:EF X:3C Y:00 P:A5 SP:FB CYC:9742
DFE9  A9 F8     LDA #$F8                        A:EF X:3C Y:00 P:A5 SP:FB CYC:9746
DFEB  39 00 04  AND $0400,Y @ 0400 = EF         A:F8 X:3C Y:00 P:A5 SP:FB CYC:9748
DFEE  90 08     BCC $DFF8                       A:E8 X:3C Y:00 P:A5 SP:FB CYC:9752
DFF0  10 06     BPL $DFF8                       A:E8 X:3C Y:00 P:A5 SP:FB CYC:9754
DFF2  C9 E8     CMP #$E8                        A:E8 X:3C Y:00 P:A5 SP:FB CYC:9756
DFF4  D0 02     BNE $DFF8                       A:E8 X:3C Y:00 P:27 SP:FB CYC:9758
DFF6  50 02     BVC $DFFA                       A:E8 X:3C Y:00 P:27 SP:FB CYC:9760
DFFA  E8        INX                             A:E8 X:3C Y:00 P:27 SP:FB CYC:9762
DFFB  18        CLC                             A:E8 X:3D Y:00 P:25 SP:FB CYC:9764
DFFC  24 01     BIT $01 = FF                    A:E8 X:3D Y:00 P:24 SP:FB CYC:9766
DFFE  A9 AA     LDA #$AA                        A:E8 X:3D Y:00 P:E4 SP:FB CYC:9769
E000  8D 00 04  STA $0400 = EF                  A:AA X:3D Y:00 P:E4 SP:FB CYC:9771
E003  A9 5F     LDA #$5F                        A:AA X:3D Y:00 P:E4 SP:FB CYC:9775
E005  59 00 04  EOR $0400,Y @ 0400 = AA         A:5F X:3D Y:00 P:64 SP:FB CYC:9777
E008  B0 08     BCS $E012                       A:F5 X:3D Y:00 P:E4 SP:FB CYC:9781
E00A  10 06     BPL $E012                       A:F5 X:3D Y:00 P:E4 SP:FB CYC:9783
E00C  C9 F5     CMP #$F5                        A:F5 X:3D Y:00 P:E4 SP:FB CYC:9785
E00E  D0 02     BNE $E012                       A:F5 X:3D Y:00 P:67 SP:FB CYC:9787
E010  70 02     BVS $E014                       A:F5 X:3D Y:00 P:67 SP:FB CYC:9789
E014  E8        INX                             A:F5 X:3D Y:00 P:67 SP:FB CYC:9791
E015  38        SEC                             A:F5 X:3E Y:00 P:65 SP:FB CYC:9793
E016  B8        CLV                             A:F5 X:3E Y:00 P:65 SP:FB CYC:9795
E017  A9 70     LDA #$70                        A:F5 X:3E Y:00 P:25 SP:FB CYC:9797
E019  8D 00 04  STA $0400 = AA                  A:70 X:3E Y:00 P:25 SP:FB CYC:9799
E01C  59 00 04  EOR $0400,Y @ 0400 = 70         A:70 X:3E Y:00 P:25 SP:FB CYC:9803
E01F  D0 06     BNE $E027                       A:00 X:3E Y:00 P:27 SP:FB CYC:9807
E021  70 04     BVS $E027                       A:00 X:3E Y:00 P:27 SP:FB CYC:9809
E023  90 02     BCC $E027                       A:00 X:3E Y:00 P:27 SP:FB CYC:9811
E025  10 02     BPL $E029                       A:00 X:3E Y:00 P:27 SP:FB CYC:9813
E029  E8        INX                             A:00 X:3E Y:00 P:27 SP:FB CYC:9815
E02A  18        CLC                             A:00 X:3F Y:00 P:25 SP:FB CYC:9817
E02B  24 01     BIT $01 = FF                    A:00 X:3F Y:00 P:24 SP:FB CYC:9819
E02D  A9 69     LDA #$69                        A:00 X:3F Y:00 P:E6 SP:FB CYC:9822
E02F  8D 00 04  STA $0400 = 70                  A:69 X:3F Y:00 P:64 SP:FB CYC:9824
E032  A9 00     LDA #$00                        A:69 X:3F Y:00 P:64 SP:FB CYC:9828
E034  79 00 04  ADC $0400,Y @ 0400 = 69         A:00 X:3F Y:00 P:66 SP:FB CYC:9830
E037  30 08     BMI $E041                       A:69 X:3F Y:00 P:24 SP:FB CYC:9834
E039  B0 06     BCS $E041                       A:69 X:3F Y:00 P:24 SP:FB CYC:9836
E03B  C9 69     CMP #$69                        A:69 X:3F Y:00 P:24 SP:FB CYC:9838
E03D  D0 02     BNE $E041                       A:69 X:3F Y:00 P:27 SP:FB CYC:9840
E03F  50 02     BVC $E043                       A:69 X:3F Y:00 P:27 SP:FB CYC:9842
E043  E8        INX                             A:69 X:3F Y:00 P:27 SP:FB CYC:9844
E044  38        SEC                             A:69 X:40 Y:00 P:25 SP:FB CYC:9846
E045  24 01     BIT $01 = FF                    A:69 X:40 Y:00 P:25 SP:FB CYC:9848
E047  A9 00     LDA #$00                        A:69 X:40 Y:00 P:E5 SP:FB CYC:9851
E049  79 00 04  ADC $0400,Y @ 0400 = 69         A:00 X:40 Y:00 P:67 SP:FB CYC:9853
E04C  30 08     BMI $E056                       A:6A X:40 Y:00 P:24 SP:FB CYC:9857
E04E  B0 06     BCS $E056                       A:6A X:40 Y:00 P:24 SP:FB CYC:9859
E050  C9 6A     CMP #$6A                        A:6A X:40 Y:00 P:24 SP:FB CYC:9861
E052  D0 02     BNE $E056                       A:6A X:40 Y:00 P:27 SP:FB CYC:9863
E054  50 02     BVC $E058                       A:6A X:40 Y:00 P:27 SP:FB CYC:9865
E058  E8        INX                             A:6A X:40 Y:00 P:27 SP:FB CYC:9867
E059  38        SEC                             A:6A X:41 Y:00 P:25 SP:FB CYC:9869
E05A  B8        CLV                             A:6A X:41 Y:00 P:25 SP:FB CYC:9871
E05B  A9 7F     LDA #$7F                        A:6A X:41 Y:00 P:25 SP:FB CYC:9873
E05D  8D 00 04  STA $0400 = 69                  A:7F X:41 Y:00 P:25 SP:FB CYC:9875
E060  79 00 04  ADC $0400,Y @ 0400 = 7F         A:7F X:41 Y:00 P:25 SP:FB CYC:9879
E063  10 08     BPL $E06D                       A:FF X:41 Y:00 P:E4 SP:FB CYC:9883
E065  B0 06     BCS $E06D                       A:FF X:41 Y:00 P:E4 SP:FB CYC:9885
E067  C9 FF     CMP #$FF                        A:FF X:41 Y:00 P:E4 SP:FB CYC:9887
E069  D0 02     BNE $E06D                       A:FF X:41 Y:00 P:67 SP:FB CYC:9889
E06B  70 02     BVS $E06F                       A:FF X:41 Y:00 P:67 SP:FB CYC:9891
E06F  E8        INX                             A:FF X:41 Y:00 P:67 SP:FB CYC:9893
E070  18        CLC                             A:FF X:42 Y:00 P:65 SP:FB CYC:9895
E071  24 01     BIT $01 = FF                    A:FF X:42 Y:00 P:64 SP:FB CYC:9897
E073  A9 80     LDA #$80                        A:FF X:42 Y:00 P:E4 SP:FB CYC:9900
E075  8D 00 04  STA $0400 = 7F                  A:80 X:42 Y:00 P:E4 SP:FB CYC:9902
E078  A9 7F     LDA #$7F                        A:80 X:42 Y:00 P:E4 SP:FB CYC:9906
E07A  79 00 04  ADC $0400,Y @ 0400 = 80         A:7F X:42 Y:00 P:64 SP:FB CYC:9908
E07D  10 08     BPL $E087                       A:FF X:42 Y:00 P:A4 SP:FB CYC:9912
E07F  B0 06     BCS $E087                       A:FF X:42 Y:00 P:A4 SP:FB CYC:9914
E081  C9 FF     CMP #$FF                        A:FF X:42 Y:00 P:A4 SP:FB CYC:9916
E083  D0 02     BNE $E087                       A:FF X:42 Y:00 P:27 SP:FB CYC:9918
E085  50 02     BVC $E089                       A:FF X:42 Y:00 P:27 SP:FB CYC:9920
E089  E8        INX                             A:FF X:42 Y:00 P:27 SP:FB CYC:9922
E08A  38        SEC                             A:FF X:43 Y:00 P:25 SP:FB CYC:9924
E08B  B8        CLV                             A:FF X:43 Y:00 P:25 SP:FB CYC:9926
E08C  A9 80     LDA #$80                        A:FF X:43 Y:00 P:25 SP:FB CYC:9928
E08E  8D 00 04  STA $0400 = 80                  A:80 X:43 Y:00 P:A5 SP:FB CYC:9930
E091  A9 7F     LDA #$7F                        A:80 X:43 Y:00 P:A5 SP:FB CYC:9934
E093  79 00 04  ADC $0400,Y @ 0400 = 80         A:7F X:43 Y:00 P:25 SP:FB CYC:9936
E096  D0 06     BNE $E09E                       A:00 X:43 Y:00 P:27 SP:FB CYC:9940
E098  30 04     BMI $E09E                       A:00 X:43 Y:00 P:27 SP:FB CYC:9942
E09A  70 02     BVS $E09E                       A:00 X:43 Y:00 P:27 SP:FB CYC:9944
E09C  B0 02     BCS $E0A0                       A:00 X:43 Y:00 P:27 SP:FB CYC:9946
E0A0  E8        INX                             A:00 X:43 Y:00 P:27 SP:FB CYC:9948
E0A1  24 01     BIT $01 = FF                    A:00 X:44 Y:00 P:25 SP:FB CYC:9950
E0A3  A9 40     LDA #$40                        A:00 X:44 Y:00 P:E7 SP:FB CYC:9953
E0A5  8D 00 04  STA $0400 = 80                  A:40 X:44 Y:00 P:65 SP:FB CYC:9955
E0A8  D9 00 04  CMP $0400,Y @ 0400 = 40         A:40 X:44 Y:00 P:65 SP:FB CYC:9959
E0AB  30 06     BMI $E0B3                       A:40 X:44 Y:00 P:67 SP:FB CYC:9963
E0AD  90 04     BCC $E0B3                       A:40 X:44 Y:00 P:67 SP:FB CYC:9965
E0AF  D0 02     BNE $E0B3                       A:40 X:44 Y:00 P:67 SP:FB CYC:9967
E0B1  70 02     BVS $E0B5                       A:40 X:44 Y:00 P:67 SP:FB CYC:9969
E0B5  E8        INX                             A:40 X:44 Y:00 P:67 SP:FB CYC:9971
E0B6  B8        CLV                             A:40 X:45 Y:00 P:65 SP:FB CYC:9973
E0B7  CE 00 04  DEC $0400 = 40                  A:40 X:45 Y:00 P:25 SP:FB CYC:9975
E0BA  D9 00 04  CMP $0400,Y @ 0400 = 3F         A:40 X:45 Y:00 P:25 SP:FB CYC:9981
E0BD  F0 06     BEQ $E0C5                       A:40 X:45 Y:00 P:25 SP:FB CYC:9985
E0BF  30 04     BMI $E0C5                       A:40 X:45 Y:00 P:25 SP:FB CYC:9987
E0C1  90 02     BCC $E0C5                       A:40 X:45 Y:00 P:25 SP:FB CYC:9989
E0C3  50 02     BVC $E0C7                       A:40 X:45 Y:00 P:25 SP:FB CYC:9991
E0C7  E8        INX                             A:40 X:45 Y:00 P:25 SP:FB CYC:9993
E0C8  EE 00 04  INC $0400 = 3F                  A:40 X:46 Y:00 P:25 SP:FB CYC:9995
E0CB  EE 00 04  INC $0400 = 40                  A:40 X:46 Y:00 P:25 SP:FB CYC:10001
E0CE  D9 00 04  CMP $0400,Y @ 0400 = 41         A:40 X:46 Y:00 P:25 SP:FB CYC:10007
E0D1  F0 02     BEQ $E0D5                       A:40 X:46 Y:00 P:A4 SP:FB CYC:10011
E0D3  30 02     BMI $E0D7                       A:40 X:46 Y:00 P:A4 SP:FB CYC:10013
E0D7  E8        INX                             A:40 X:46 Y:00 P:A4 SP:FB CYC:10015
E0D8  A9 00     LDA #$00                        A:40 X:47 Y:00 P:24 SP:FB CYC:10017
E0DA  8D 00 04  STA $0400 = 41                  A:00 X:47 Y:00 P:26 SP:FB CYC:10019
E0DD  A9 80     LDA #$80                        A:00 X:47 Y:00 P:26 SP:FB CYC:10023
E0DF  D9 00 04  CMP $0400,Y @ 0400 = 00         A:80 X:47 Y:00 P:A4 SP:FB CYC:10025
E0E2  F0 04     BEQ $E0E8                       A:80 X:47 Y:00 P:A5 SP:FB CYC:10029
E0E4  10 02     BPL $E0E8                       A:80 X:47 Y:00 P:A5 SP:FB CYC:10031
E0E6  B0 02     BCS $E0EA                       A:80 X:47 Y:00 P:A5 SP:FB CYC:10033
E0EA  E8        INX                             A:80 X:47 Y:00 P:A5 SP:FB CYC:10035
E0EB  A0 80     LDY #$80                        A:80 X:48 Y:00 P:25 SP:FB CYC:10037
E0ED  8C 00 04  STY $0400 = 00                  A:80 X:48 Y:80 P:A5 SP:FB CYC:10039
E0F0  A0 00     LDY #$00                        A:80 X:48 Y:80 P:A5 SP:FB CYC:10043
E0F2  D9 00 04  CMP $0400,Y @ 0400 = 80         A:80 X:48 Y:00 P:27 SP:FB CYC:10045
E0F5  D0 04     BNE $E0FB                       A:80 X:48 Y:00 P:27 SP:FB CYC:10049
E0F7  30 02     BMI $E0FB                       A:80 X:48 Y:00 P:27 SP:FB CYC:10051
E0F9  B0 02     BCS $E0FD                       A:80 X:48 Y:00 P:27 SP:FB CYC:10053
E0FD  E8        INX                             A:80 X:48 Y:00 P:27 SP:FB CYC:10055
E0FE  EE 00 04  INC $0400 = 80                  A:80 X:49 Y:00 P:25 SP:FB CYC:10057
E101  D9 00 04  CMP $0400,Y @ 0400 = 81         A:80 X:49 Y:00 P:A5 SP:FB CYC:10063
E104  B0 04     BCS $E10A                       A:80 X:49 Y:00 P:A4 SP:FB CYC:10067
E106  F0 02     BEQ $E10A                       A:80 X:49 Y:00 P:A4 SP:FB CYC:10069
E108  30 02     BMI $E10C                       A:80 X:49 Y:00 P:A4 SP:FB CYC:10071
E10C  E8        INX                             A:80 X:49 Y:00 P:A4 SP:FB CYC:10073
E10D  CE 00 04  DEC $0400 = 81                  A:80 X:4A Y:00 P:24 SP:FB CYC:10075
E110  CE 00 04  DEC $0400 = 80                  A:80 X:4A Y:00 P:A4 SP:FB CYC:10081
E113  D9 00 04  CMP $0400,Y @ 0400 = 7F         A:80 X:4A Y:00 P:24 SP:FB CYC:10087
E116  90 04     BCC $E11C                       A:80 X:4A Y:00 P:25 SP:FB CYC:10091
E118  F0 02     BEQ $E11C                       A:80 X:4A Y:00 P:25 SP:FB CYC:10093
E11A  10 02     BPL $E11E                       A:80 X:4A Y:00 P:25 SP:FB CYC:10095
E11E  E8        INX                             A:80 X:4A Y:00 P:25 SP:FB CYC:10097
E11F  24 01     BIT $01 = FF                    A:80 X:4B Y:00 P:25 SP:FB CYC:10099
E121  A9 40     LDA #$40                        A:80 X:4B Y:00 P:E5 SP:FB CYC:10102
E123  8D 00 04  STA $0400 = 7F                  A:40 X:4B Y:00 P:65 SP:FB CYC:10104
E126  38        SEC                             A:40 X:4B Y:00 P:65 SP:FB CYC:10108
E127  F9 00 04  SBC $0400,Y @ 0400 = 40         A:40 X:4B Y:00 P:65 SP:FB CYC:10110
E12A  30 0A     BMI $E136                       A:00 X:4B Y:00 P:27 SP:FB CYC:10114
E12C  90 08     BCC $E136                       A:00 X:4B Y:00 P:27 SP:FB CYC:10116
E12E  D0 06     BNE $E136                       A:00 X:4B Y:00 P:27 SP:FB CYC:10118
E130  70 04     BVS $E136                       A:00 X:4B Y:00 P:27 SP:FB CYC:10120
E132  C9 00     CMP #$00                        A:00 X:4B Y:00 P:27 SP:FB CYC:10122
E134  F0 02     BEQ $E138                       A:00 X:4B Y:00 P:27 SP:FB CYC:10124
E138  E8        INX                             A:00 X:4B Y:00 P:27 SP:FB CYC:10126
E139  B8        CLV                             A:00 X:4C Y:00 P:25 SP:FB CYC:10128
E13A  38        SEC                             A:00 X:4C Y:00 P:25 SP:FB CYC:10130
E13B  A9 40     LDA #$40                        A:00 X:4C Y:00 P:25 SP:FB CYC:10132
E13D  CE 00 04  DEC $0400 = 40                  A:40 X:4C Y:00 P:25 SP:FB CYC:10134
E140  F9 00 04  SBC $0400,Y @ 0400 = 3F         A:40 X:4C Y:00 P:25 SP:FB CYC:10140
E143  F0 0A     BEQ $E14F                       A:01 X:4C Y:00 P:25 SP:FB CYC:10144
E145  30 08     BMI $E14F                       A:01 X:4C Y:00 P:25 SP:FB CYC:10146
E147  90 06     BCC $E14F                       A:01 X:4C Y:00 P:25 SP:FB CYC:10148
E149  70 04     BVS $E14F                       A:01 X:4C Y:00 P:25 SP:FB CYC:10150
E14B  C9 01     CMP #$01                        A:01 X:4C Y:00 P:25 SP:FB CYC:10152
E14D  F0 02     BEQ $E151                       A:01 X:4C Y:00 P:27 SP:FB CYC:10154
E151  E8        INX                             A:01 X:4C Y:00 P:27 SP:FB CYC:10156
E152  A9 40     LDA #$40                        A:01 X:4D Y:00 P:25 SP:FB CYC:10158
E154  38        SEC                             A:40 X:4D Y:00 P:25 SP:FB CYC:10160
E155  24 01     BIT $01 = FF                    A:40 X:4D Y:00 P:25 SP:FB CYC:10162
E157  EE 00 04  INC $0400 = 3F                  A:40 X:4D Y:00 P:E5 SP:FB CYC:10165
E15A  EE 00 04  INC $0400 = 40                  A:40 X:4D Y:00 P:65 SP:FB CYC:10171
E15D  F9 00 04  SBC $0400,Y @ 0400 = 41         A:40 X:4D Y:00 P:65 SP:FB CYC:10177
E160  B0 0A     BCS $E16C                       A:FF X:4D Y:00 P:A4 SP:FB CYC:10181
E162  F0 08     BEQ $E16C                       A:FF X:4D Y:00 P:A4 SP:FB CYC:10183
E164  10 06     BPL $E16C                       A:FF X:4D Y:00 P:A4 SP:FB CYC:10185
E166  70 04     BVS $E16C                       A:FF X:4D Y:00 P:A4 SP:FB CYC:10187
E168  C9 FF     CMP #$FF                        A:FF X:4D Y:00 P:A4 SP:FB CYC:10189
E16A  F0 02     BEQ $E16E                       A:FF X:4D Y:00 P:27 SP:FB CYC:10191
E16E  E8        INX                             A:FF X:4D Y:00 P:27 SP:FB CYC:10193
E16F  18        CLC                             A:FF X:4E Y:00 P:25 SP:FB CYC:10195
E170  A9 00     LDA #$00                        A:FF X:4E Y:00 P:24 SP:FB CYC:10197
E172  8D 00 04  STA $0400 = 41                  A:00 X:4E Y:00 P:26 SP:FB CYC:10199
E175  A9 80     LDA #$80                        A:00 X:4E Y:00 P:26 SP:FB CYC:10203
E177  F9 00 04  SBC $0400,Y @ 0400 = 00         A:80 X:4E Y:00 P:A4 SP:FB CYC:10205
E17A  90 04     BCC $E180                       A:7F X:4E Y:00 P:65 SP:FB CYC:10209
E17C  C9 7F     CMP #$7F                        A:7F X:4E Y:00 P:65 SP:FB CYC:10211
E17E  F0 02     BEQ $E182                       A:7F X:4E Y:00 P:67 SP:FB CYC:10213
E182  E8        INX                             A:7F X:4E Y:00 P:67 SP:FB CYC:10215
E183  38        SEC                             A:7F X:4F Y:00 P:65 SP:FB CYC:10217
E184  A9 7F     LDA #$7F                        A:7F X:4F Y:00 P:65 SP:FB CYC:10219
E186  8D 00 04  STA $0400 = 00                  A:7F X:4F Y:00 P:65 SP:FB CYC:10221
E189  A9 81     LDA #$81                        A:7F X:4F Y:00 P:65 SP:FB CYC:10225
E18B  F9 00 04  SBC $0400,Y @ 0400 = 7F         A:81 X:4F Y:00 P:E5 SP:FB CYC:10227
E18E  50 06     BVC $E196                       A:02 X:4F Y:00 P:65 SP:FB CYC:10231
E190  90 04     BCC $E196                       A:02 X:4F Y:00 P:65 SP:FB CYC:10233
E192  C9 02     CMP #$02                        A:02 X:4F Y:00 P:65 SP:FB CYC:10235
E194  F0 02     BEQ $E198                       A:02 X:4F Y:00 P:67 SP:FB CYC:10237
E198  E8        INX                             A:02 X:4F Y:00 P:67 SP:FB CYC:10239
E199  A9 00     LDA #$00                        A:02 X:50 Y:00 P:65 SP:FB CYC:10241
E19B  A9 87     LDA #$87                        A:00 X:50 Y:00 P:67 SP:FB CYC:10243
E19D  99 00 04  STA $0400,Y @ 0400 = 7F         A:87 X:50 Y:00 P:E5 SP:FB CYC:10245
E1A0  AD 00 04  LDA $0400 = 87                  A:87 X:50 Y:00 P:E5 SP:FB CYC:10250
E1A3  C9 87     CMP #$87                        A:87 X:50 Y:00 P:E5 SP:FB CYC:10254
E1A5  F0 02     BEQ $E1A9                       A:87 X:50 Y:00 P:67 SP:FB CYC:10256
E1A9  60        RTS                             A:87 X:50 Y:00 P:67 SP:FB CYC:10258
C629  20 B8 DB  JSR $DBB8                       A:87 X:50 Y:00 P:67 SP:FD CYC:10264
DBB8  A9 FF     LDA #$FF                        A:87 X:50 Y:00 P:67 SP:FB CYC:10270
DBBA  85 01     STA $01 = FF                    A:FF X:50 Y:00 P:E5 SP:FB CYC:10272
DBBC  A9 AA     LDA #$AA                        A:FF X:50 Y:00 P:E5 SP:FB CYC:10275
DBBE  85 33     STA $33 = A3                    A:AA X:50 Y:00 P:E5 SP:FB CYC:10277
DBC0  A9 BB     LDA #$BB                        A:AA X:50 Y:00 P:E5 SP:FB CYC:10280
DBC2  85 89     STA $89 = 00                    A:BB X:50 Y:00 P:E5 SP:FB CYC:10282
DBC4  A2 00     LDX #$00                        A:BB X:50 Y:00 P:E5 SP:FB CYC:10285
DBC6  A9 66     LDA #$66                        A:BB X:00 Y:00 P:67 SP:FB CYC:10287
DBC8  24 01     BIT $01 = FF                    A:66 X:00 Y:00 P:65 SP:FB CYC:10289
DBCA  38        SEC                             A:66 X:00 Y:00 P:E5 SP:FB CYC:10292
DBCB  A0 00     LDY #$00                        A:66 X:00 Y:00 P:E5 SP:FB CYC:10294
DBCD  B4 33     LDY $33,X @ 33 = AA             A:66 X:00 Y:00 P:67 SP:FB CYC:10296
DBCF  10 12     BPL $DBE3                       A:66 X:00 Y:AA P:E5 SP:FB CYC:10300
DBD1  F0 10     BEQ $DBE3                       A:66 X:00 Y:AA P:E5 SP:FB CYC:10302
DBD3  50 0E     BVC $DBE3                       A:66 X:00 Y:AA P:E5 SP:FB CYC:10304
DBD5  90 0C     BCC $DBE3                       A:66 X:00 Y:AA P:E5 SP:FB CYC:10306
DBD7  C9 66     CMP #$66                        A:66 X:00 Y:AA P:E5 SP:FB CYC:10308
DBD9  D0 08     BNE $DBE3                       A:66 X:00 Y:AA P:67 SP:FB CYC:10310
DBDB  E0 00     CPX #$00                        A:66 X:00 Y:AA P:67 SP:FB CYC:10312
DBDD  D0 04     BNE $DBE3                       A:66 X:00 Y:AA P:67 SP:FB CYC:10314
DBDF  C0 AA     CPY #$AA                        A:66 X:00 Y:AA P:67 SP:FB CYC:10316
DBE1  F0 04     BEQ $DBE7                       A:66 X:00 Y:AA P:67 SP:FB CYC:10318
DBE7  A2 8A     LDX #$8A                        A:66 X:00 Y:AA P:67 SP:FB CYC:10320
DBE9  A9 66     LDA #$66                        A:66 X:8A Y:AA P:E5 SP:FB CYC:10322
DBEB  B8        CLV                             A:66 X:8A Y:AA P:65 SP:FB CYC:10324
DBEC  18        CLC                             A:66 X:8A Y:AA P:25 SP:FB CYC:10326
DBED  A0 00     LDY #$00                        A:66 X:8A Y:AA P:24 SP:FB CYC:10328
DBEF  B4 FF     LDY $FF,X @ 89 = BB             A:66 X:8A Y:00 P:26 SP:FB CYC:10330
DBF1  10 12     BPL $DC05                       A:66 X:8A Y:BB P:A4 SP:FB CYC:10334
DBF3  F0 10     BEQ $DC05                       A:66 X:8A Y:BB P:A4 SP:FB CYC:10336
DBF5  70 0E     BVS $DC05                       A:66 X:8A Y:BB P:A4 SP:FB CYC:10338
DBF7  B0 0C     BCS $DC05                       A:66 X:8A Y:BB P:A4 SP:FB CYC:10340
DBF9  C0 BB     CPY #$BB                        A:66 X:8A Y:BB P:A4 SP:FB CYC:10342
DBFB  D0 08     BNE $DC05                       A:66 X:8A Y:BB P:27 SP:FB CYC:10344
DBFD  C9 66     CMP #$66                        A:66 X:8A Y:BB P:27 SP:FB CYC:10346
DBFF  D0 04     BNE $DC05                       A:66 X:8A Y:BB P:27 SP:FB CYC:10348
DC01  E0 8A     CPX #$8A                        A:66 X:8A Y:BB P:27 SP:FB CYC:10350
DC03  F0 04     BEQ $DC09                       A:66 X:8A Y:BB P:27 SP:FB CYC:10352
DC09  24 01     BIT $01 = FF                    A:66 X:8A Y:BB P:27 SP:FB CYC:10354
DC0B  38        SEC                             A:66 X:8A Y:BB P:E5 SP:FB CYC:10357
DC0C  A0 44     LDY #$44                        A:66 X:8A Y:BB P:E5 SP:FB CYC:10359
DC0E  A2 00     LDX #$00                        A:66 X:8A Y:44 P:65 SP:FB CYC:10361
DC10  94 33     STY $33,X @ 33 = AA             A:66 X:00 Y:44 P:67 SP:FB CYC:10363
DC12  A5 33     LDA $33 = 44                    A:66 X:00 Y:44 P:67 SP:FB CYC:10367
DC14  90 18     BCC $DC2E                       A:44 X:00 Y:44 P:65 SP:FB CYC:10370
DC16  C9 44     CMP #$44                        A:44 X:00 Y:44 P:65 SP:FB CYC:10372
DC18  D0 14     BNE $DC2E                       A:44 X:00 Y:44 P:67 SP:FB CYC:10374
DC1A  50 12     BVC $DC2E                       A:44 X:00 Y:44 P:67 SP:FB CYC:10376
DC1C  18        CLC                             A:44 X:00 Y:44 P:67 SP:FB CYC:10378
DC1D  B8        CLV                             A:44 X:00 Y:44 P:66 SP:FB CYC:10380
DC1E  A0 99     LDY #$99                        A:44 X:00 Y:44 P:26 SP:FB CYC:10382
DC20  A2 80     LDX #$80                        A:44 X:00 Y:99 P:A4 SP:FB CYC:10384
DC22  94 85     STY $85,X @ 05 = 00             A:44 X:80 Y:99 P:A4 SP:FB CYC:10386
DC24  A5 05     LDA $05 = 99                    A:44 X:80 Y:99 P:A4 SP:FB CYC:10390
DC26  B0 06     BCS $DC2E                       A:99 X:80 Y:99 P:A4 SP:FB CYC:10393
DC28  C9 99     CMP #$99                        A:99 X:80 Y:99 P:A4 SP:FB CYC:10395
DC2A  D0 02     BNE $DC2E                       A:99 X:80 Y:99 P:27 SP:FB CYC:10397
DC2C  50 04     BVC $DC32                       A:99 X:80 Y:99 P:27 SP:FB CYC:10399
DC32  A0 0B     LDY #$0B                        A:99 X:80 Y:99 P:27 SP:FB CYC:10401
DC34  A9 AA     LDA #$AA                        A:99 X:80 Y:0B P:25 SP:FB CYC:10403
DC36  A2 78     LDX #$78                        A:AA X:80 Y:0B P:A5 SP:FB CYC:10405
DC38  85 78     STA $78 = 00                    A:AA X:78 Y:0B P:25 SP:FB CYC:10407
DC3A  20 B6 F7  JSR $F7B6                       A:AA X:78 Y:0B P:25 SP:FB CYC:10410
F7B6  18        CLC                             A:AA X:78 Y:0B P:25 SP:F9 CYC:10416
F7B7  A9 FF     LDA #$FF                        A:AA X:78 Y:0B P:24 SP:F9 CYC:10418
F7B9  85 01     STA $01 = FF                    A:FF X:78 Y:0B P:A4 SP:F9 CYC:10420
F7BB  24 01     BIT $01 = FF                    A:FF X:78 Y:0B P:A4 SP:F9 CYC:10423
F7BD  A9 55     LDA #$55                        A:FF X:78 Y:0B P:E4 SP:F9 CYC:10426
F7BF  60        RTS                             A:55 X:78 Y:0B P:64 SP:F9 CYC:10428
DC3D  15 00     ORA $00,X @ 78 = AA             A:55 X:78 Y:0B P:64 SP:FB CYC:10434
DC3F  20 C0 F7  JSR $F7C0                       A:FF X:78 Y:0B P:E4 SP:FB CYC:10438
F7C0  B0 09     BCS $F7CB                       A:FF X:78 Y:0B P:E4 SP:F9 CYC:10444
F7C2  10 07     BPL $F7CB                       A:FF X:78 Y:0B P:E4 SP:F9 CYC:10446
F7C4  C9 FF     CMP #$FF                        A:FF X:78 Y:0B P:E4 SP:F9 CYC:10448
F7C6  D0 03     BNE $F7CB                       A:FF X:78 Y:0B P:67 SP:F9 CYC:10450
F7C8  50 01     BVC $F7CB                       A:FF X:78 Y:0B P:67 SP:F9 CYC:10452
F7CA  60        RTS                             A:FF X:78 Y:0B P:67 SP:F9 CYC:10454
DC42  C8        INY                             A:FF X:78 Y:0B P:67 SP:FB CYC:10460
DC43  A9 00     LDA #$00                        A:FF X:78 Y:0C P:65 SP:FB CYC:10462
DC45  85 78     STA $78 = AA                    A:00 X:78 Y:0C P:67 SP:FB CYC:10464
DC47  20 CE F7  JSR $F7CE                       A:00 X:78 Y:0C P:67 SP:FB CYC:10467
F7CE  38        SEC                             A:00 X:78 Y:0C P:67 SP:F9 CYC:10473
F7CF  B8        CLV                             A:00 X:78 Y:0C P:67 SP:F9 CYC:10475
F7D0  A9 00     LDA #$00                        A:00 X:78 Y:0C P:27 SP:F9 CYC:10477
F7D2  60        RTS                             A:00 X:78 Y:0C P:27 SP:F9 CYC:10479
DC4A  15 00     ORA $00,X @ 78 = 00             A:00 X:78 Y:0C P:27 SP:FB CYC:10485
DC4C  20 D3 F7  JSR $F7D3                       A:00 X:78 Y:0C P:27 SP:FB CYC:10489
F7D3  D0 07     BNE $F7DC                       A:00 X:78 Y:0C P:27 SP:F9 CYC:10495
F7D5  70 05     BVS $F7DC                       A:00 X:78 Y:0C P:27 SP:F9 CYC:10497
F7D7  90 03     BCC $F7DC                       A:00 X:78 Y:0C P:27 SP:F9 CYC:10499
F7D9  30 01     BMI $F7DC                       A:00 X:78 Y:0C P:27 SP:F9 CYC:10501
F7DB  60        RTS                             A:00 X:78 Y:0C P:27 SP:F9 CYC:10503
DC4F  C8        INY                             A:00 X:78 Y:0C P:27 SP:FB CYC:10509
DC50  A9 AA     LDA #$AA                        A:00 X:78 Y:0D P:25 SP:FB CYC:10511
DC52  85 78     STA $78 = 00                    A:AA X:78 Y:0D P:A5 SP:FB CYC:10513
DC54  20 DF F7  JSR $F7DF                       A:AA X:78 Y:0D P:A5 SP:FB CYC:10516
F7DF  18        CLC                             A:AA X:78 Y:0D P:A5 SP:F9 CYC:10522
F7E0  24 01     BIT $01 = FF                    A:AA X:78 Y:0D P:A4 SP:F9 CYC:10524
F7E2  A9 55     LDA #$55                        A:AA X:78 Y:0D P:E4 SP:F9 CYC:10527
F7E4  60        RTS                             A:55 X:78 Y:0D P:64 SP:F9 CYC:10529
DC57  35 00     AND $00,X @ 78 = AA             A:55 X:78 Y:0D P:64 SP:FB CYC:10535
DC59  20 E5 F7  JSR $F7E5                       A:00 X:78 Y:0D P:66 SP:FB CYC:10539
F7E5  D0 07     BNE $F7EE                       A:00 X:78 Y:0D P:66 SP:F9 CYC:10545
F7E7  50 05     BVC $F7EE                       A:00 X:78 Y:0D P:66 SP:F9 CYC:10547
F7E9  B0 03     BCS $F7EE                       A:00 X:78 Y:0D P:66 SP:F9 CYC:10549
F7EB  30 01     BMI $F7EE                       A:00 X:78 Y:0D P:66 SP:F9 CYC:10551
F7ED  60        RTS                             A:00 X:78 Y:0D P:66 SP:F9 CYC:10553
DC5C  C8        INY                             A:00 X:78 Y:0D P:66 SP:FB CYC:10559
DC5D  A9 EF     LDA #$EF                        A:00 X:78 Y:0E P:64 SP:FB CYC:10561
DC5F  85 78     STA $78 = AA                    A:EF X:78 Y:0E P:E4 SP:FB CYC:10563
DC61  20 F1 F7  JSR $F7F1                       A:EF X:78 Y:0E P:E4 SP:FB CYC:10566
F7F1  38        SEC                             A:EF X:78 Y:0E P:E4 SP:F9 CYC:10572
F7F2  B8        CLV                             A:EF X:78 Y:0E P:E5 SP:F9 CYC:10574
F7F3  A9 F8     LDA #$F8                        A:EF X:78 Y:0E P:A5 SP:F9 CYC:10576
F7F5  60        RTS                             A:F8 X:78 Y:0E P:A5 SP:F9 CYC:10578
DC64  35 00     AND $00,X @ 78 = EF             A:F8 X:78 Y:0E P:A5 SP:FB CYC:10584
DC66  20 F6 F7  JSR $F7F6                       A:E8 X:78 Y:0E P:A5 SP:FB CYC:10588
F7F6  90 09     BCC $F801                       A:E8 X:78 Y:0E P:A5 SP:F9 CYC:10594
F7F8  10 07     BPL $F801                       A:E8 X:78 Y:0E P:A5 SP:F9 CYC:10596
F7FA  C9 E8     CMP #$E8                        A:E8 X:78 Y:0E P:A5 SP:F9 CYC:10598
F7FC  D0 03     BNE $F801                       A:E8 X:78 Y:0E P:27 SP:F9 CYC:10600
F7FE  70 01     BVS $F801                       A:E8 X:78 Y:0E P:27 SP:F9 CYC:10602
F800  60        RTS                             A:E8 X:78 Y:0E P:27 SP:F9 CYC:10604
DC69  C8        INY                             A:E8 X:78 Y:0E P:27 SP:FB CYC:10610
DC6A  A9 AA     LDA #$AA                        A:E8 X:78 Y:0F P:25 SP:FB CYC:10612
DC6C  85 78     STA $78 = EF                    A:AA X:78 Y:0F P:A5 SP:FB CYC:10614
DC6E  20 04 F8  JSR $F804                       A:AA X:78 Y:0F P:A5 SP:FB CYC:10617
F804  18        CLC                             A:AA X:78 Y:0F P:A5 SP:F9 CYC:10623
F805  24 01     BIT $01 = FF                    A:AA X:78 Y:0F P:A4 SP:F9 CYC:10625
F807  A9 5F     LDA #$5F                        A:AA X:78 Y:0F P:E4 SP:F9 CYC:10628
F809  60        RTS                             A:5F X:78 Y:0F P:64 SP:F9 CYC:10630
DC71  55 00     EOR $00,X @ 78 = AA             A:5F X:78 Y:0F P:64 SP:FB CYC:10636
DC73  20 0A F8  JSR $F80A                       A:F5 X:78 Y:0F P:E4 SP:FB CYC:10640
F80A  B0 09     BCS $F815                       A:F5 X:78 Y:0F P:E4 SP:F9 CYC:10646
F80C  10 07     BPL $F815                       A:F5 X:78 Y:0F P:E4 SP:F9 CYC:10648
F80E  C9 F5     CMP #$F5                        A:F5 X:78 Y:0F P:E4 SP:F9 CYC:10650
F810  D0 03     BNE $F815                       A:F5 X:78 Y:0F P:67 SP:F9 CYC:10652
F812  50 01     BVC $F815                       A:F5 X:78 Y:0F P:67 SP:F9 CYC:10654
F814  60        RTS                             A:F5 X:78 Y:0F P:67 SP:F9 CYC:10656
DC76  C8        INY                             A:F5 X:78 Y:0F P:67 SP:FB CYC:10662
DC77  A9 70     LDA #$70                        A:F5 X:78 Y:10 P:65 SP:FB CYC:10664
DC79  85 78     STA $78 = AA                    A:70 X:78 Y:10 P:65 SP:FB CYC:10666
DC7B  20 18 F8  JSR $F818                       A:70 X:78 Y:10 P:65 SP:FB CYC:10669
F818  38        SEC                             A:70 X:78 Y:10 P:65 SP:F9 CYC:10675
F819  B8        CLV                             A:70 X:78 Y:10 P:65 SP:F9 CYC:10677
F81A  A9 70     LDA #$70                        A:70 X:78 Y:10 P:25 SP:F9 CYC:10679
F81C  60        RTS                             A:70 X:78 Y:10 P:25 SP:F9 CYC:10681
DC7E  55 00     EOR $00,X @ 78 = 70             A:70 X:78 Y:10 P:25 SP:FB CYC:10687
DC80  20 1D F8  JSR $F81D                       A:00 X:78 Y:10 P:27 SP:FB CYC:10691
F81D  D0 07     BNE $F826                       A:00 X:78 Y:10 P:27 SP:F9 CYC:10697
F81F  70 05     BVS $F826                       A:00 X:78 Y:10 P:27 SP:F9 CYC:10699
F821  90 03     BCC $F826                       A:00 X:78 Y:10 P:27 SP:F9 CYC:10701
F823  30 01     BMI $F826                       A:00 X:78 Y:10 P:27 SP:F9 CYC:10703
F825  60        RTS                             A:00 X:78 Y:10 P:27 SP:F9 CYC:10705
DC83  C8        INY                             A:00 X:78 Y:10 P:27 SP:FB CYC:10711
DC84  A9 69     LDA #$69                        A:00 X:78 Y:11 P:25 SP:FB CYC:10713
DC86  85 78     STA $78 = 70                    A:69 X:78 Y:11 P:25 SP:FB CYC:10715
DC88  20 29 F8  JSR $F829                       A:69 X:78 Y:11 P:25 SP:FB CYC:10718
F829  18        CLC                             A:69 X:78 Y:11 P:25 SP:F9 CYC:10724
F82A  24 01     BIT $01 = FF                    A:69 X:78 Y:11 P:24 SP:F9 CYC:10726
F82C  A9 00     LDA #$00                        A:69 X:78 Y:11 P:E4 SP:F9 CYC:10729
F82E  60        RTS                             A:00 X:78 Y:11 P:66 SP:F9 CYC:10731
DC8B  75 00     ADC $00,X @ 78 = 69             A:00 X:78 Y:11 P:66 SP:FB CYC:10737
DC8D  20 2F F8  JSR $F82F                       A:69 X:78 Y:11 P:24 SP:FB CYC:10741
F82F  30 09     BMI $F83A                       A:69 X:78 Y:11 P:24 SP:F9 CYC:10747
F831  B0 07     BCS $F83A                       A:69 X:78 Y:11 P:24 SP:F9 CYC:10749
F833  C9 69     CMP #$69                        A:69 X:78 Y:11 P:24 SP:F9 CYC:10751
F835  D0 03     BNE $F83A                       A:69 X:78 Y:11 P:27 SP:F9 CYC:10753
F837  70 01     BVS $F83A                       A:69 X:78 Y:11 P:27 SP:F9 CYC:10755
F839  60        RTS                             A:69 X:78 Y:11 P:27 SP:F9 CYC:10757
DC90  C8        INY                             A:69 X:78 Y:11 P:27 SP:FB CYC:10763
DC91  20 3D F8  JSR $F83D                       A:69 X:78 Y:12 P:25 SP:FB CYC:10765
F83D  38        SEC                             A:69 X:78 Y:12 P:25 SP:F9 CYC:10771
F83E  24 01     BIT $01 = FF                    A:69 X:78 Y:12 P:25 SP:F9 CYC:10773
F840  A9 00     LDA #$00                        A:69 X:78 Y:12 P:E5 SP:F9 CYC:10776
F842  60        RTS                             A:00 X:78 Y:12 P:67 SP:F9 CYC:10778
DC94  75 00     ADC $00,X @ 78 = 69             A:00 X:78 Y:12 P:67 SP:FB CYC:10784
DC96  20 43 F8  JSR $F843                       A:6A X:78 Y:12 P:24 SP:FB CYC:10788
F843  30 09     BMI $F84E                       A:6A X:78 Y:12 P:24 SP:F9 CYC:10794
F845  B0 07     BCS $F84E                       A:6A X:78 Y:12 P:24 SP:F9 CYC:10796
F847  C9 6A     CMP #$6A                        A:6A X:78 Y:12 P:24 SP:F9 CYC:10798
F849  D0 03     BNE $F84E                       A:6A X:78 Y:12 P:27 SP:F9 CYC:10800
F84B  70 01     BVS $F84E                       A:6A X:78 Y:12 P:27 SP:F9 CYC:10802
F84D  60        RTS                             A:6A X:78 Y:12 P:27 SP:F9 CYC:10804
DC99  C8        INY                             A:6A X:78 Y:12 P:27 SP:FB CYC:10810
DC9A  A9 7F     LDA #$7F                        A:6A X:78 Y:13 P:25 SP:FB CYC:10812
DC9C  85 78     STA $78 = 69                    A:7F X:78 Y:13 P:25 SP:FB CYC:10814
DC9E  20 51 F8  JSR $F851                       A:7F X:78 Y:13 P:25 SP:FB CYC:10817
F851  38        SEC                             A:7F X:78 Y:13 P:25 SP:F9 CYC:10823
F852  B8        CLV                             A:7F X:78 Y:13 P:25 SP:F9 CYC:10825
F853  A9 7F     LDA #$7F                        A:7F X:78 Y:13 P:25 SP:F9 CYC:10827
F855  60        RTS                             A:7F X:78 Y:13 P:25 SP:F9 CYC:10829
DCA1  75 00     ADC $00,X @ 78 = 7F             A:7F X:78 Y:13 P:25 SP:FB CYC:10835
DCA3  20 56 F8  JSR $F856                       A:FF X:78 Y:13 P:E4 SP:FB CYC:10839
F856  10 09     BPL $F861                       A:FF X:78 Y:13 P:E4 SP:F9 CYC:10845
F858  B0 07     BCS $F861                       A:FF X:78 Y:13 P:E4 SP:F9 CYC:10847
F85A  C9 FF     CMP #$FF                        A:FF X:78 Y:13 P:E4 SP:F9 CYC:10849
F85C  D0 03     BNE $F861                       A:FF X:78 Y:13 P:67 SP:F9 CYC:10851
F85E  50 01     BVC $F861                       A:FF X:78 Y:13 P:67 SP:F9 CYC:10853
F860  60        RTS                             A:FF X:78 Y:13 P:67 SP:F9 CYC:10855
DCA6  C8        INY                             A:FF X:78 Y:13 P:67 SP:FB CYC:10861
DCA7  A9 80     LDA #$80                        A:FF X:78 Y:14 P:65 SP:FB CYC:10863
DCA9  85 78     STA $78 = 7F                    A:80 X:78 Y:14 P:E5 SP:FB CYC:10865
DCAB  20 64 F8  JSR $F864                       A:80 X:78 Y:14 P:E5 SP:FB CYC:10868
F864  18        CLC                             A:80 X:78 Y:14 P:E5 SP:F9 CYC:10874
F865  24 01     BIT $01 = FF                    A:80 X:78 Y:14 P:E4 SP:F9 CYC:10876
F867  A9 7F     LDA #$7F                        A:80 X:78 Y:14 P:E4 SP:F9 CYC:10879
F869  60        RTS                             A:7F X:78 Y:14 P:64 SP:F9 CYC:10881
DCAE  75 00     ADC $00,X @ 78 = 80             A:7F X:78 Y:14 P:64 SP:FB CYC:10887
DCB0  20 6A F8  JSR $F86A                       A:FF X:78 Y:14 P:A4 SP:FB CYC:10891
F86A  10 09     BPL $F875                       A:FF X:78 Y:14 P:A4 SP:F9 CYC:10897
F86C  B0 07     BCS $F875                       A:FF X:78 Y:14 P:A4 SP:F9 CYC:10899
F86E  C9 FF     CMP #$FF                        A:FF X:78 Y:14 P:A4 SP:F9 CYC:10901
F870  D0 03     BNE $F875                       A:FF X:78 Y:14 P:27 SP:F9 CYC:10903
F872  70 01     BVS $F875                       A:FF X:78 Y:14 P:27 SP:F9 CYC:10905
F874  60        RTS                             A:FF X:78 Y:14 P:27 SP:F9 CYC:10907
DCB3  C8        INY                             A:FF X:78 Y:14 P:27 SP:FB CYC:10913
DCB4  20 78 F8  JSR $F878                       A:FF X:78 Y:15 P:25 SP:FB CYC:10915
F878  38        SEC                             A:FF X:78 Y:15 P:25 SP:F9 CYC:10921
F879  B8        CLV                             A:FF X:78 Y:15 P:25 SP:F9 CYC:10923
F87A  A9 7F     LDA #$7F                        A:FF X:78 Y:15 P:25 SP:F9 CYC:10925
F87C  60        RTS                             A:7F X:78 Y:15 P:25 SP:F9 CYC:10927
DCB7  75 00     ADC $00,X @ 78 = 80             A:7F X:78 Y:15 P:25 SP:FB CYC:10933
DCB9  20 7D F8  JSR $F87D                       A:00 X:78 Y:15 P:27 SP:FB CYC:10937
F87D  D0 07     BNE $F886                       A:00 X:78 Y:15 P:27 SP:F9 CYC:10943
F87F  30 05     BMI $F886                       A:00 X:78 Y:15 P:27 SP:F9 CYC:10945
F881  70 03     BVS $F886                       A:00 X:78 Y:15 P:27 SP:F9 CYC:10947
F883  90 01     BCC $F886                       A:00 X:78 Y:15 P:27 SP:F9 CYC:10949
F885  60        RTS                             A:00 X:78 Y:15 P:27 SP:F9 CYC:10951
DCBC  C8        INY                             A:00 X:78 Y:15 P:27 SP:FB CYC:10957
DCBD  A9 40     LDA #$40                        A:00 X:78 Y:16 P:25 SP:FB CYC:10959
DCBF  85 78     STA $78 = 80                    A:40 X:78 Y:16 P:25 SP:FB CYC:10961
DCC1  20 89 F8  JSR $F889                       A:40 X:78 Y:16 P:25 SP:FB CYC:10964
F889  24 01     BIT $01 = FF                    A:40 X:78 Y:16 P:25 SP:F9 CYC:10970
F88B  A9 40     LDA #$40                        A:40 X:78 Y:16 P:E5 SP:F9 CYC:10973
F88D  60        RTS                             A:40 X:78 Y:16 P:65 SP:F9 CYC:10975
DCC4  D5 00     CMP $00,X @ 78 = 40             A:40 X:78 Y:16 P:65 SP:FB CYC:10981
DCC6  20 8E F8  JSR $F88E                       A:40 X:78 Y:16 P:67 SP:FB CYC:10985
F88E  30 07     BMI $F897                       A:40 X:78 Y:16 P:67 SP:F9 CYC:10991
F890  90 05     BCC $F897                       A:40 X:78 Y:16 P:67 SP:F9 CYC:10993
F892  D0 03     BNE $F897                       A:40 X:78 Y:16 P:67 SP:F9 CYC:10995
F894  50 01     BVC $F897                       A:40 X:78 Y:16 P:67 SP:F9 CYC:10997
F896  60        RTS                             A:40 X:78 Y:16 P:67 SP:F9 CYC:10999
DCC9  C8        INY                             A:40 X:78 Y:16 P:67 SP:FB CYC:11005
DCCA  48        PHA                             A:40 X:78 Y:17 P:65 SP:FB CYC:11007
DCCB  A9 3F     LDA #$3F                        A:40 X:78 Y:17 P:65 SP:FA CYC:11010
DCCD  85 78     STA $78 = 40                    A:3F X:78 Y:17 P:65 SP:FA CYC:11012
DCCF  68        PLA                             A:3F X:78 Y:17 P:65 SP:FA CYC:11015
DCD0  20 9A F8  JSR $F89A                       A:40 X:78 Y:17 P:65 SP:FB CYC:11019
F89A  B8        CLV                             A:40 X:78 Y:17 P:65 SP:F9 CYC:11025
F89B  60        RTS                             A:40 X:78 Y:17 P:25 SP:F9 CYC:11027
DCD3  D5 00     CMP $00,X @ 78 = 3F             A:40 X:78 Y:17 P:25 SP:FB CYC:11033
DCD5  20 9C F8  JSR $F89C                       A:40 X:78 Y:17 P:25 SP:FB CYC:11037
F89C  F0 07     BEQ $F8A5                       A:40 X:78 Y:17 P:25 SP:F9 CYC:11043
F89E  30 05     BMI $F8A5                       A:40 X:78 Y:17 P:25 SP:F9 CYC:11045
F8A0  90 03     BCC $F8A5                       A:40 X:78 Y:17 P:25 SP:F9 CYC:11047
F8A2  70 01     BVS $F8A5                       A:40 X:78 Y:17 P:25 SP:F9 CYC:11049
F8A4  60        RTS                             A:40 X:78 Y:17 P:25 SP:F9 CYC:11051
DCD8  C8        INY                             A:40 X:78 Y:17 P:25 SP:FB CYC:11057
DCD9  48        PHA                             A:40 X:78 Y:18 P:25 SP:FB CYC:11059
DCDA  A9 41     LDA #$41                        A:40 X:78 Y:18 P:25 SP:FA CYC:11062
DCDC  85 78     STA $78 = 3F                    A:41 X:78 Y:18 P:25 SP:FA CYC:11064
DCDE  68        PLA                             A:41 X:78 Y:18 P:25 SP:FA CYC:11067
DCDF  D5 00     CMP $00,X @ 78 = 41             A:40 X:78 Y:18 P:25 SP:FB CYC:11071
DCE1  20 A8 F8  JSR $F8A8                       A:40 X:78 Y:18 P:A4 SP:FB CYC:11075
F8A8  F0 05     BEQ $F8AF                       A:40 X:78 Y:18 P:A4 SP:F9 CYC:11081
F8AA  10 03     BPL $F8AF                       A:40 X:78 Y:18 P:A4 SP:F9 CYC:11083
F8AC  10 01     BPL $F8AF                       A:40 X:78 Y:18 P:A4 SP:F9 CYC:11085
F8AE  60        RTS                             A:40 X:78 Y:18 P:A4 SP:F9 CYC:11087
DCE4  C8        INY                             A:40 X:78 Y:18 P:A4 SP:FB CYC:11093
DCE5  48        PHA                             A:40 X:78 Y:19 P:24 SP:FB CYC:11095
DCE6  A9 00     LDA #$00                        A:40 X:78 Y:19 P:24 SP:FA CYC:11098
DCE8  85 78     STA $78 = 41                    A:00 X:78 Y:19 P:26 SP:FA CYC:11100
DCEA  68        PLA                             A:00 X:78 Y:19 P:26 SP:FA CYC:11103
DCEB  20 B2 F8  JSR $F8B2                       A:40 X:78 Y:19 P:24 SP:FB CYC:11107
F8B2  A9 80     LDA #$80                        A:40 X:78 Y:19 P:24 SP:F9 CYC:11113
F8B4  60        RTS                             A:80 X:78 Y:19 P:A4 SP:F9 CYC:11115
DCEE  D5 00     CMP $00,X @ 78 = 00             A:80 X:78 Y:19 P:A4 SP:FB CYC:11121
DCF0  20 B5 F8  JSR $F8B5                       A:80 X:78 Y:19 P:A5 SP:FB CYC:11125
F8B5  F0 05     BEQ $F8BC                       A:80 X:78 Y:19 P:A5 SP:F9 CYC:11131
F8B7  10 03     BPL $F8BC                       A:80 X:78 Y:19 P:A5 SP:F9 CYC:11133
F8B9  90 01     BCC $F8BC                       A:80 X:78 Y:19 P:A5 SP:F9 CYC:11135
F8BB  60        RTS                             A:80 X:78 Y:19 P:A5 SP:F9 CYC:11137
DCF3  C8        INY                             A:80 X:78 Y:19 P:A5 SP:FB CYC:11143
DCF4  48        PHA                             A:80 X:78 Y:1A P:25 SP:FB CYC:11145
DCF5  A9 80     LDA #$80                        A:80 X:78 Y:1A P:25 SP:FA CYC:11148
DCF7  85 78     STA $78 = 00                    A:80 X:78 Y:1A P:A5 SP:FA CYC:11150
DCF9  68        PLA                             A:80 X:78 Y:1A P:A5 SP:FA CYC:11153
DCFA  D5 00     CMP $00,X @ 78 = 80             A:80 X:78 Y:1A P:A5 SP:FB CYC:11157
DCFC  20 BF F8  JSR $F8BF                       A:80 X:78 Y:1A P:27 SP:FB CYC:11161
F8BF  D0 05     BNE $F8C6                       A:80 X:78 Y:1A P:27 SP:F9 CYC:11167
F8C1  30 03     BMI $F8C6                       A:80 X:78 Y:1A P:27 SP:F9 CYC:11169
F8C3  90 01     BCC $F8C6                       A:80 X:78 Y:1A P:27 SP:F9 CYC:11171
F8C5  60        RTS                             A:80 X:78 Y:1A P:27 SP:F9 CYC:11173
DCFF  C8        INY                             A:80 X:78 Y:1A P:27 SP:FB CYC:11179
DD00  48        PHA                             A:80 X:78 Y:1B P:25 SP:FB CYC:11181
DD01  A9 81     LDA #$81                        A:80 X:78 Y:1B P:25 SP:FA CYC:11184
DD03  85 78     STA $78 = 80                    A:81 X:78 Y:1B P:A5 SP:FA CYC:11186
DD05  68        PLA                             A:81 X:78 Y:1B P:A5 SP:FA CYC:11189
DD06  D5 00     CMP $00,X @ 78 = 81             A:80 X:78 Y:1B P:A5 SP:FB CYC:11193
DD08  20 C9 F8  JSR $F8C9                       A:80 X:78 Y:1B P:A4 SP:FB CYC:11197
F8C9  B0 05     BCS $F8D0                       A:80 X:78 Y:1B P:A4 SP:F9 CYC:11203
F8CB  F0 03     BEQ $F8D0                       A:80 X:78 Y:1B P:A4 SP:F9 CYC:11205
F8CD  10 01     BPL $F8D0                       A:80 X:78 Y:1B P:A4 SP:F9 CYC:11207
F8CF  60        RTS                             A:80 X:78 Y:1B P:A4 SP:F9 CYC:11209
DD0B  C8        INY                             A:80 X:78 Y:1B P:A4 SP:FB CYC:11215
DD0C  48        PHA                             A:80 X:78 Y:1C P:24 SP:FB CYC:11217
DD0D  A9 7F     LDA #$7F                        A:80 X:78 Y:1C P:24 SP:FA CYC:11220
DD0F  85 78     STA $78 = 81                    A:7F X:78 Y:1C P:24 SP:FA CYC:11222
DD11  68        PLA                             A:7F X:78 Y:1C P:24 SP:FA CYC:11225
DD12  D5 00     CMP $00,X @ 78 = 7F             A:80 X:78 Y:1C P:A4 SP:FB CYC:11229
DD14  20 D3 F8  JSR $F8D3                       A:80 X:78 Y:1C P:25 SP:FB CYC:11233
F8D3  90 05     BCC $F8DA                       A:80 X:78 Y:1C P:25 SP:F9 CYC:11239
F8D5  F0 03     BEQ $F8DA                       A:80 X:78 Y:1C P:25 SP:F9 CYC:11241
F8D7  30 01     BMI $F8DA                       A:80 X:78 Y:1C P:25 SP:F9 CYC:11243
F8D9  60        RTS                             A:80 X:78 Y:1C P:25 SP:F9 CYC:11245
DD17  C8        INY                             A:80 X:78 Y:1C P:25 SP:FB CYC:11251
DD18  A9 40     LDA #$40                        A:80 X:78 Y:1D P:25 SP:FB CYC:11253
DD1A  85 78     STA $78 = 7F                    A:40 X:78 Y:1D P:25 SP:FB CYC:11255
DD1C  20 31 F9  JSR $F931                       A:40 X:78 Y:1D P:25 SP:FB CYC:11258
F931  24 01     BIT $01 = FF                    A:40 X:78 Y:1D P:25 SP:F9 CYC:11264
F933  A9 40     LDA #$40                        A:40 X:78 Y:1D P:E5 SP:F9 CYC:11267
F935  38        SEC                             A:40 X:78 Y:1D P:65 SP:F9 CYC:11269
F936  60        RTS                             A:40 X:78 Y:1D P:65 SP:F9 CYC:11271
DD1F  F5 00     SBC $00,X @ 78 = 40             A:40 X:78 Y:1D P:65 SP:FB CYC:11277
DD21  20 37 F9  JSR $F937                       A:00 X:78 Y:1D P:27 SP:FB CYC:11281
F937  30 0B     BMI $F944                       A:00 X:78 Y:1D P:27 SP:F9 CYC:11287
F939  90 09     BCC $F944                       A:00 X:78 Y:1D P:27 SP:F9 CYC:11289
F93B  D0 07     BNE $F944                       A:00 X:78 Y:1D P:27 SP:F9 CYC:11291
F93D  70 05     BVS $F944                       A:00 X:78 Y:1D P:27 SP:F9 CYC:11293
F93F  C9 00     CMP #$00                        A:00 X:78 Y:1D P:27 SP:F9 CYC:11295
F941  D0 01     BNE $F944                       A:00 X:78 Y:1D P:27 SP:F9 CYC:11297
F943  60        RTS                             A:00 X:78 Y:1D P:27 SP:F9 CYC:11299
DD24  C8        INY                             A:00 X:78 Y:1D P:27 SP:FB CYC:11305
DD25  A9 3F     LDA #$3F                        A:00 X:78 Y:1E P:25 SP:FB CYC:11307
DD27  85 78     STA $78 = 40                    A:3F X:78 Y:1E P:25 SP:FB CYC:11309
DD29  20 47 F9  JSR $F947                       A:3F X:78 Y:1E P:25 SP:FB CYC:11312
F947  B8        CLV                             A:3F X:78 Y:1E P:25 SP:F9 CYC:11318
F948  38        SEC                             A:3F X:78 Y:1E P:25 SP:F9 CYC:11320
F949  A9 40     LDA #$40                        A:3F X:78 Y:1E P:25 SP:F9 CYC:11322
F94B  60        RTS                             A:40 X:78 Y:1E P:25 SP:F9 CYC:11324
DD2C  F5 00     SBC $00,X @ 78 = 3F             A:40 X:78 Y:1E P:25 SP:FB CYC:11330
DD2E  20 4C F9  JSR $F94C                       A:01 X:78 Y:1E P:25 SP:FB CYC:11334
F94C  F0 0B     BEQ $F959                       A:01 X:78 Y:1E P:25 SP:F9 CYC:11340
F94E  30 09     BMI $F959                       A:01 X:78 Y:1E P:25 SP:F9 CYC:11342
F950  90 07     BCC $F959                       A:01 X:78 Y:1E P:25 SP:F9 CYC:11344
F952  70 05     BVS $F959                       A:01 X:78 Y:1E P:25 SP:F9 CYC:11346
F954  C9 01     CMP #$01                        A:01 X:78 Y:1E P:25 SP:F9 CYC:11348
F956  D0 01     BNE $F959                       A:01 X:78 Y:1E P:27 SP:F9 CYC:11350
F958  60        RTS                             A:01 X:78 Y:1E P:27 SP:F9 CYC:11352
DD31  C8        INY                             A:01 X:78 Y:1E P:27 SP:FB CYC:11358
DD32  A9 41     LDA #$41                        A:01 X:78 Y:1F P:25 SP:FB CYC:11360
DD34  85 78     STA $78 = 3F                    A:41 X:78 Y:1F P:25 SP:FB CYC:11362
DD36  20 5C F9  JSR $F95C                       A:41 X:78 Y:1F P:25 SP:FB CYC:11365
F95C  A9 40     LDA #$40                        A:41 X:78 Y:1F P:25 SP:F9 CYC:11371
F95E  38        SEC                             A:40 X:78 Y:1F P:25 SP:F9 CYC:11373
F95F  24 01     BIT $01 = FF                    A:40 X:78 Y:1F P:25 SP:F9 CYC:11375
F961  60        RTS                             A:40 X:78 Y:1F P:E5 SP:F9 CYC:11378
DD39  F5 00     SBC $00,X @ 78 = 41             A:40 X:78 Y:1F P:E5 SP:FB CYC:11384
DD3B  20 62 F9  JSR $F962                       A:FF X:78 Y:1F P:A4 SP:FB CYC:11388
F962  B0 0B     BCS $F96F                       A:FF X:78 Y:1F P:A4 SP:F9 CYC:11394
F964  F0 09     BEQ $F96F                       A:FF X:78 Y:1F P:A4 SP:F9 CYC:11396
F966  10 07     BPL $F96F                       A:FF X:78 Y:1F P:A4 SP:F9 CYC:11398
F968  70 05     BVS $F96F                       A:FF X:78 Y:1F P:A4 SP:F9 CYC:11400
F96A  C9 FF     CMP #$FF                        A:FF X:78 Y:1F P:A4 SP:F9 CYC:11402
F96C  D0 01     BNE $F96F                       A:FF X:78 Y:1F P:27 SP:F9 CYC:11404
F96E  60        RTS                             A:FF X:78 Y:1F P:27 SP:F9 CYC:11406
DD3E  C8        INY                             A:FF X:78 Y:1F P:27 SP:FB CYC:11412
DD3F  A9 00     LDA #$00                        A:FF X:78 Y:20 P:25 SP:FB CYC:11414
DD41  85 78     STA $78 = 41                    A:00 X:78 Y:20 P:27 SP:FB CYC:11416
DD43  20 72 F9  JSR $F972                       A:00 X:78 Y:20 P:27 SP:FB CYC:11419
F972  18        CLC                             A:00 X:78 Y:20 P:27 SP:F9 CYC:11425
F973  A9 80     LDA #$80                        A:00 X:78 Y:20 P:26 SP:F9 CYC:11427
F975  60        RTS                             A:80 X:78 Y:20 P:A4 SP:F9 CYC:11429
DD46  F5 00     SBC $00,X @ 78 = 00             A:80 X:78 Y:20 P:A4 SP:FB CYC:11435
DD48  20 76 F9  JSR $F976                       A:7F X:78 Y:20 P:65 SP:FB CYC:11439
F976  90 05     BCC $F97D                       A:7F X:78 Y:20 P:65 SP:F9 CYC:11445
F978  C9 7F     CMP #$7F                        A:7F X:78 Y:20 P:65 SP:F9 CYC:11447
F97A  D0 01     BNE $F97D                       A:7F X:78 Y:20 P:67 SP:F9 CYC:11449
F97C  60        RTS                             A:7F X:78 Y:20 P:67 SP:F9 CYC:11451
DD4B  C8        INY                             A:7F X:78 Y:20 P:67 SP:FB CYC:11457
DD4C  A9 7F     LDA #$7F                        A:7F X:78 Y:21 P:65 SP:FB CYC:11459
DD4E  85 78     STA $78 = 00                    A:7F X:78 Y:21 P:65 SP:FB CYC:11461
DD50  20 80 F9  JSR $F980                       A:7F X:78 Y:21 P:65 SP:FB CYC:11464
F980  38        SEC                             A:7F X:78 Y:21 P:65 SP:F9 CYC:11470
F981  A9 81     LDA #$81                        A:7F X:78 Y:21 P:65 SP:F9 CYC:11472
F983  60        RTS                             A:81 X:78 Y:21 P:E5 SP:F9 CYC:11474
DD53  F5 00     SBC $00,X @ 78 = 7F             A:81 X:78 Y:21 P:E5 SP:FB CYC:11480
DD55  20 84 F9  JSR $F984                       A:02 X:78 Y:21 P:65 SP:FB CYC:11484
F984  50 07     BVC $F98D                       A:02 X:78 Y:21 P:65 SP:F9 CYC:11490
F986  90 05     BCC $F98D                       A:02 X:78 Y:21 P:65 SP:F9 CYC:11492
F988  C9 02     CMP #$02                        A:02 X:78 Y:21 P:65 SP:F9 CYC:11494
F98A  D0 01     BNE $F98D                       A:02 X:78 Y:21 P:67 SP:F9 CYC:11496
F98C  60        RTS                             A:02 X:78 Y:21 P:67 SP:F9 CYC:11498
DD58  A9 AA     LDA #$AA                        A:02 X:78 Y:21 P:67 SP:FB CYC:11504
DD5A  85 33     STA $33 = 44                    A:AA X:78 Y:21 P:E5 SP:FB CYC:11506
DD5C  A9 BB     LDA #$BB                        A:AA X:78 Y:21 P:E5 SP:FB CYC:11509
DD5E  85 89     STA $89 = BB                    A:BB X:78 Y:21 P:E5 SP:FB CYC:11511
DD60  A2 00     LDX #$00                        A:BB X:78 Y:21 P:E5 SP:FB CYC:11514
DD62  A0 66     LDY #$66                        A:BB X:00 Y:21 P:67 SP:FB CYC:11516
DD64  24 01     BIT $01 = FF                    A:BB X:00 Y:66 P:65 SP:FB CYC:11518
DD66  38        SEC                             A:BB X:00 Y:66 P:E5 SP:FB CYC:11521
DD67  A9 00     LDA #$00                        A:BB X:00 Y:66 P:E5 SP:FB CYC:11523
DD69  B5 33     LDA $33,X @ 33 = AA             A:00 X:00 Y:66 P:67 SP:FB CYC:11525
DD6B  10 12     BPL $DD7F                       A:AA X:00 Y:66 P:E5 SP:FB CYC:11529
DD6D  F0 10     BEQ $DD7F                       A:AA X:00 Y:66 P:E5 SP:FB CYC:11531
DD6F  50 0E     BVC $DD7F                       A:AA X:00 Y:66 P:E5 SP:FB CYC:11533
DD71  90 0C     BCC $DD7F                       A:AA X:00 Y:66 P:E5 SP:FB CYC:11535
DD73  C0 66     CPY #$66                        A:AA X:00 Y:66 P:E5 SP:FB CYC:11537
DD75  D0 08     BNE $DD7F                       A:AA X:00 Y:66 P:67 SP:FB CYC:11539
DD77  E0 00     CPX #$00                        A:AA X:00 Y:66 P:67 SP:FB CYC:11541
DD79  D0 04     BNE $DD7F                       A:AA X:00 Y:66 P:67 SP:FB CYC:11543
DD7B  C9 AA     CMP #$AA                        A:AA X:00 Y:66 P:67 SP:FB CYC:11545
DD7D  F0 04     BEQ $DD83                       A:AA X:00 Y:66 P:67 SP:FB CYC:11547
DD83  A2 8A     LDX #$8A                        A:AA X:00 Y:66 P:67 SP:FB CYC:11549
DD85  A0 66     LDY #$66                        A:AA X:8A Y:66 P:E5 SP:FB CYC:11551
DD87  B8        CLV                             A:AA X:8A Y:66 P:65 SP:FB CYC:11553
DD88  18        CLC                             A:AA X:8A Y:66 P:25 SP:FB CYC:11555
DD89  A9 00     LDA #$00                        A:AA X:8A Y:66 P:24 SP:FB CYC:11557
DD8B  B5 FF     LDA $FF,X @ 89 = BB             A:00 X:8A Y:66 P:26 SP:FB CYC:11559
DD8D  10 12     BPL $DDA1                       A:BB X:8A Y:66 P:A4 SP:FB CYC:11563
DD8F  F0 10     BEQ $DDA1                       A:BB X:8A Y:66 P:A4 SP:FB CYC:11565
DD91  70 0E     BVS $DDA1                       A:BB X:8A Y:66 P:A4 SP:FB CYC:11567
DD93  B0 0C     BCS $DDA1                       A:BB X:8A Y:66 P:A4 SP:FB CYC:11569
DD95  C9 BB     CMP #$BB                        A:BB X:8A Y:66 P:A4 SP:FB CYC:11571
DD97  D0 08     BNE $DDA1                       A:BB X:8A Y:66 P:27 SP:FB CYC:11573
DD99  C0 66     CPY #$66                        A:BB X:8A Y:66 P:27 SP:FB CYC:11575
DD9B  D0 04     BNE $DDA1                       A:BB X:8A Y:66 P:27 SP:FB CYC:11577
DD9D  E0 8A     CPX #$8A                        A:BB X:8A Y:66 P:27 SP:FB CYC:11579
DD9F  F0 04     BEQ $DDA5                       A:BB X:8A Y:66 P:27 SP:FB CYC:11581
DDA5  24 01     BIT $01 = FF                    A:BB X:8A Y:66 P:27 SP:FB CYC:11583
DDA7  38        SEC                             A:BB X:8A Y:66 P:E5 SP:FB CYC:11586
DDA8  A9 44     LDA #$44                        A:BB X:8A Y:66 P:E5 SP:FB CYC:11588
DDAA  A2 00     LDX #$00                        A:44 X:8A Y:66 P:65 SP:FB CYC:11590
DDAC  95 33     STA $33,X @ 33 = AA             A:44 X:00 Y:66 P:67 SP:FB CYC:11592
DDAE  A5 33     LDA $33 = 44                    A:44 X:00 Y:66 P:67 SP:FB CYC:11596
DDB0  90 18     BCC $DDCA                       A:44 X:00 Y:66 P:65 SP:FB CYC:11599
DDB2  C9 44     CMP #$44                        A:44 X:00 Y:66 P:65 SP:FB CYC:11601
DDB4  D0 14     BNE $DDCA                       A:44 X:00 Y:66 P:67 SP:FB CYC:11603
DDB6  50 12     BVC $DDCA                       A:44 X:00 Y:66 P:67 SP:FB CYC:11605
DDB8  18        CLC                             A:44 X:00 Y:66 P:67 SP:FB CYC:11607
DDB9  B8        CLV                             A:44 X:00 Y:66 P:66 SP:FB CYC:11609
DDBA  A9 99     LDA #$99                        A:44 X:00 Y:66 P:26 SP:FB CYC:11611
DDBC  A2 80     LDX #$80                        A:99 X:00 Y:66 P:A4 SP:FB CYC:11613
DDBE  95 85     STA $85,X @ 05 = 99             A:99 X:80 Y:66 P:A4 SP:FB CYC:11615
DDC0  A5 05     LDA $05 = 99                    A:99 X:80 Y:66 P:A4 SP:FB CYC:11619
DDC2  B0 06     BCS $DDCA                       A:99 X:80 Y:66 P:A4 SP:FB CYC:11622
DDC4  C9 99     CMP #$99                        A:99 X:80 Y:66 P:A4 SP:FB CYC:11624
DDC6  D0 02     BNE $DDCA                       A:99 X:80 Y:66 P:27 SP:FB CYC:11626
DDC8  50 04     BVC $DDCE                       A:99 X:80 Y:66 P:27 SP:FB CYC:11628
DDCE  A0 25     LDY #$25                        A:99 X:80 Y:66 P:27 SP:FB CYC:11630
DDD0  A2 78     LDX #$78                        A:99 X:80 Y:25 P:25 SP:FB CYC:11632
DDD2  20 90 F9  JSR $F990                       A:99 X:78 Y:25 P:25 SP:FB CYC:11634
F990  A2 55     LDX #$55                        A:99 X:78 Y:25 P:25 SP:F9 CYC:11640
F992  A9 FF     LDA #$FF                        A:99 X:55 Y:25 P:25 SP:F9 CYC:11642
F994  85 01     STA $01 = FF                    A:FF X:55 Y:25 P:A5 SP:F9 CYC:11644
F996  EA        NOP                             A:FF X:55 Y:25 P:A5 SP:F9 CYC:11647
F997  24 01     BIT $01 = FF                    A:FF X:55 Y:25 P:A5 SP:F9 CYC:11649
F999  38        SEC                             A:FF X:55 Y:25 P:E5 SP:F9 CYC:11652
F99A  A9 01     LDA #$01                        A:FF X:55 Y:25 P:E5 SP:F9 CYC:11654
F99C  60        RTS                             A:01 X:55 Y:25 P:65 SP:F9 CYC:11656
DDD5  95 00     STA $00,X @ 55 = 00             A:01 X:55 Y:25 P:65 SP:FB CYC:11662
DDD7  56 00     LSR $00,X @ 55 = 01             A:01 X:55 Y:25 P:65 SP:FB CYC:11666
DDD9  B5 00     LDA $00,X @ 55 = 00             A:01 X:55 Y:25 P:67 SP:FB CYC:11672
DDDB  20 9D F9  JSR $F99D                       A:00 X:55 Y:25 P:67 SP:FB CYC:11676
F99D  90 1B     BCC $F9BA                       A:00 X:55 Y:25 P:67 SP:F9 CYC:11682
F99F  D0 19     BNE $F9BA                       A:00 X:55 Y:25 P:67 SP:F9 CYC:11684
F9A1  30 17     BMI $F9BA                       A:00 X:55 Y:25 P:67 SP:F9 CYC:11686
F9A3  50 15     BVC $F9BA                       A:00 X:55 Y:25 P:67 SP:F9 CYC:11688
F9A5  C9 00     CMP #$00                        A:00 X:55 Y:25 P:67 SP:F9 CYC:11690
F9A7  D0 11     BNE $F9BA                       A:00 X:55 Y:25 P:67 SP:F9 CYC:11692
F9A9  B8        CLV                             A:00 X:55 Y:25 P:67 SP:F9 CYC:11694
F9AA  A9 AA     LDA #$AA                        A:00 X:55 Y:25 P:27 SP:F9 CYC:11696
F9AC  60        RTS                             A:AA X:55 Y:25 P:A5 SP:F9 CYC:11698
DDDE  C8        INY                             A:AA X:55 Y:25 P:A5 SP:FB CYC:11704
DDDF  95 00     STA $00,X @ 55 = 00             A:AA X:55 Y:26 P:25 SP:FB CYC:11706
DDE1  56 00     LSR $00,X @ 55 = AA             A:AA X:55 Y:26 P:25 SP:FB CYC:11710
DDE3  B5 00     LDA $00,X @ 55 = 55             A:AA X:55 Y:26 P:24 SP:FB CYC:11716
DDE5  20 AD F9  JSR $F9AD                       A:55 X:55 Y:26 P:24 SP:FB CYC:11720
F9AD  B0 0B     BCS $F9BA                       A:55 X:55 Y:26 P:24 SP:F9 CYC:11726
F9AF  F0 09     BEQ $F9BA                       A:55 X:55 Y:26 P:24 SP:F9 CYC:11728
F9B1  30 07     BMI $F9BA                       A:55 X:55 Y:26 P:24 SP:F9 CYC:11730
F9B3  70 05     BVS $F9BA                       A:55 X:55 Y:26 P:24 SP:F9 CYC:11732
F9B5  C9 55     CMP #$55                        A:55 X:55 Y:26 P:24 SP:F9 CYC:11734
F9B7  D0 01     BNE $F9BA                       A:55 X:55 Y:26 P:27 SP:F9 CYC:11736
F9B9  60        RTS                             A:55 X:55 Y:26 P:27 SP:F9 CYC:11738
DDE8  C8        INY                             A:55 X:55 Y:26 P:27 SP:FB CYC:11744
DDE9  20 BD F9  JSR $F9BD                       A:55 X:55 Y:27 P:25 SP:FB CYC:11746
F9BD  24 01     BIT $01 = FF                    A:55 X:55 Y:27 P:25 SP:F9 CYC:11752
F9BF  38        SEC                             A:55 X:55 Y:27 P:E5 SP:F9 CYC:11755
F9C0  A9 80     LDA #$80                        A:55 X:55 Y:27 P:E5 SP:F9 CYC:11757
F9C2  60        RTS                             A:80 X:55 Y:27 P:E5 SP:F9 CYC:11759
DDEC  95 00     STA $00,X @ 55 = 55             A:80 X:55 Y:27 P:E5 SP:FB CYC:11765
DDEE  16 00     ASL $00,X @ 55 = 80             A:80 X:55 Y:27 P:E5 SP:FB CYC:11769
DDF0  B5 00     LDA $00,X @ 55 = 00             A:80 X:55 Y:27 P:67 SP:FB CYC:11775
DDF2  20 C3 F9  JSR $F9C3                       A:00 X:55 Y:27 P:67 SP:FB CYC:11779
F9C3  90 1C     BCC $F9E1                       A:00 X:55 Y:27 P:67 SP:F9 CYC:11785
F9C5  D0 1A     BNE $F9E1                       A:00 X:55 Y:27 P:67 SP:F9 CYC:11787
F9C7  30 18     BMI $F9E1                       A:00 X:55 Y:27 P:67 SP:F9 CYC:11789
F9C9  50 16     BVC $F9E1                       A:00 X:55 Y:27 P:67 SP:F9 CYC:11791
F9CB  C9 00     CMP #$00                        A:00 X:55 Y:27 P:67 SP:F9 CYC:11793
F9CD  D0 12     BNE $F9E1                       A:00 X:55 Y:27 P:67 SP:F9 CYC:11795
F9CF  B8        CLV                             A:00 X:55 Y:27 P:67 SP:F9 CYC:11797
F9D0  A9 55     LDA #$55                        A:00 X:55 Y:27 P:27 SP:F9 CYC:11799
F9D2  38        SEC                             A:55 X:55 Y:27 P:25 SP:F9 CYC:11801
F9D3  60        RTS                             A:55 X:55 Y:27 P:25 SP:F9 CYC:11803
DDF5  C8        INY                             A:55 X:55 Y:27 P:25 SP:FB CYC:11809
DDF6  95 00     STA $00,X @ 55 = 00             A:55 X:55 Y:28 P:25 SP:FB CYC:11811
DDF8  16 00     ASL $00,X @ 55 = 55             A:55 X:55 Y:28 P:25 SP:FB CYC:11815
DDFA  B5 00     LDA $00,X @ 55 = AA             A:55 X:55 Y:28 P:A4 SP:FB CYC:11821
DDFC  20 D4 F9  JSR $F9D4                       A:AA X:55 Y:28 P:A4 SP:FB CYC:11825
F9D4  B0 0B     BCS $F9E1                       A:AA X:55 Y:28 P:A4 SP:F9 CYC:11831
F9D6  F0 09     BEQ $F9E1                       A:AA X:55 Y:28 P:A4 SP:F9 CYC:11833
F9D8  10 07     BPL $F9E1                       A:AA X:55 Y:28 P:A4 SP:F9 CYC:11835
F9DA  70 05     BVS $F9E1                       A:AA X:55 Y:28 P:A4 SP:F9 CYC:11837
F9DC  C9 AA     CMP #$AA                        A:AA X:55 Y:28 P:A4 SP:F9 CYC:11839
F9DE  D0 01     BNE $F9E1                       A:AA X:55 Y:28 P:27 SP:F9 CYC:11841
F9E0  60        RTS                             A:AA X:55 Y:28 P:27 SP:F9 CYC:11843
DDFF  C8        INY                             A:AA X:55 Y:28 P:27 SP:FB CYC:11849
DE00  20 E4 F9  JSR $F9E4                       A:AA X:55 Y:29 P:25 SP:FB CYC:11851
F9E4  24 01     BIT $01 = FF                    A:AA X:55 Y:29 P:25 SP:F9 CYC:11857
F9E6  38        SEC                             A:AA X:55 Y:29 P:E5 SP:F9 CYC:11860
F9E7  A9 01     LDA #$01                        A:AA X:55 Y:29 P:E5 SP:F9 CYC:11862
F9E9  60        RTS                             A:01 X:55 Y:29 P:65 SP:F9 CYC:11864
DE03  95 00     STA $00,X @ 55 = AA             A:01 X:55 Y:29 P:65 SP:FB CYC:11870
DE05  76 00     ROR $00,X @ 55 = 01             A:01 X:55 Y:29 P:65 SP:FB CYC:11874
DE07  B5 00     LDA $00,X @ 55 = 80             A:01 X:55 Y:29 P:E5 SP:FB CYC:11880
DE09  20 EA F9  JSR $F9EA                       A:80 X:55 Y:29 P:E5 SP:FB CYC:11884
F9EA  90 1C     BCC $FA08                       A:80 X:55 Y:29 P:E5 SP:F9 CYC:11890
F9EC  F0 1A     BEQ $FA08                       A:80 X:55 Y:29 P:E5 SP:F9 CYC:11892
F9EE  10 18     BPL $FA08                       A:80 X:55 Y:29 P:E5 SP:F9 CYC:11894
F9F0  50 16     BVC $FA08                       A:80 X:55 Y:29 P:E5 SP:F9 CYC:11896
F9F2  C9 80     CMP #$80                        A:80 X:55 Y:29 P:E5 SP:F9 CYC:11898
F9F4  D0 12     BNE $FA08                       A:80 X:55 Y:29 P:67 SP:F9 CYC:11900
F9F6  B8        CLV                             A:80 X:55 Y:29 P:67 SP:F9 CYC:11902
F9F7  18        CLC                             A:80 X:55 Y:29 P:27 SP:F9 CYC:11904
F9F8  A9 55     LDA #$55                        A:80 X:55 Y:29 P:26 SP:F9 CYC:11906
F9FA  60        RTS                             A:55 X:55 Y:29 P:24 SP:F9 CYC:11908
DE0C  C8        INY                             A:55 X:55 Y:29 P:24 SP:FB CYC:11914
DE0D  95 00     STA $00,X @ 55 = 80             A:55 X:55 Y:2A P:24 SP:FB CYC:11916
DE0F  76 00     ROR $00,X @ 55 = 55             A:55 X:55 Y:2A P:24 SP:FB CYC:11920
DE11  B5 00     LDA $00,X @ 55 = 2A             A:55 X:55 Y:2A P:25 SP:FB CYC:11926
DE13  20 FB F9  JSR $F9FB                       A:2A X:55 Y:2A P:25 SP:FB CYC:11930
F9FB  90 0B     BCC $FA08                       A:2A X:55 Y:2A P:25 SP:F9 CYC:11936
F9FD  F0 09     BEQ $FA08                       A:2A X:55 Y:2A P:25 SP:F9 CYC:11938
F9FF  30 07     BMI $FA08                       A:2A X:55 Y:2A P:25 SP:F9 CYC:11940
FA01  70 05     BVS $FA08                       A:2A X:55 Y:2A P:25 SP:F9 CYC:11942
FA03  C9 2A     CMP #$2A                        A:2A X:55 Y:2A P:25 SP:F9 CYC:11944
FA05  D0 01     BNE $FA08                       A:2A X:55 Y:2A P:27 SP:F9 CYC:11946
FA07  60        RTS                             A:2A X:55 Y:2A P:27 SP:F9 CYC:11948
DE16  C8        INY                             A:2A X:55 Y:2A P:27 SP:FB CYC:11954
DE17  20 0A FA  JSR $FA0A                       A:2A X:55 Y:2B P:25 SP:FB CYC:11956
FA0A  24 01     BIT $01 = FF                    A:2A X:55 Y:2B P:25 SP:F9 CYC:11962
FA0C  38        SEC                             A:2A X:55 Y:2B P:E5 SP:F9 CYC:11965
FA0D  A9 80     LDA #$80                        A:2A X:55 Y:2B P:E5 SP:F9 CYC:11967
FA0F  60        RTS                             A:80 X:55 Y:2B P:E5 SP:F9 CYC:11969
DE1A  95 00     STA $00,X @ 55 = 2A             A:80 X:55 Y:2B P:E5 SP:FB CYC:11975
DE1C  36 00     ROL $00,X @ 55 = 80             A:80 X:55 Y:2B P:E5 SP:FB CYC:11979
DE1E  B5 00     LDA $00,X @ 55 = 01             A:80 X:55 Y:2B P:65 SP:FB CYC:11985
DE20  20 10 FA  JSR $FA10                       A:01 X:55 Y:2B P:65 SP:FB CYC:11989
FA10  90 1C     BCC $FA2E                       A:01 X:55 Y:2B P:65 SP:F9 CYC:11995
FA12  F0 1A     BEQ $FA2E                       A:01 X:55 Y:2B P:65 SP:F9 CYC:11997
FA14  30 18     BMI $FA2E                       A:01 X:55 Y:2B P:65 SP:F9 CYC:11999
FA16  50 16     BVC $FA2E                       A:01 X:55 Y:2B P:65 SP:F9 CYC:12001
FA18  C9 01     CMP #$01                        A:01 X:55 Y:2B P:65 SP:F9 CYC:12003
FA1A  D0 12     BNE $FA2E                       A:01 X:55 Y:2B P:67 SP:F9 CYC:12005
FA1C  B8        CLV                             A:01 X:55 Y:2B P:67 SP:F9 CYC:12007
FA1D  18        CLC                             A:01 X:55 Y:2B P:27 SP:F9 CYC:12009
FA1E  A9 55     LDA #$55                        A:01 X:55 Y:2B P:26 SP:F9 CYC:12011
FA20  60        RTS                             A:55 X:55 Y:2B P:24 SP:F9 CYC:12013
DE23  C8        INY                             A:55 X:55 Y:2B P:24 SP:FB CYC:12019
DE24  95 00     STA $00,X @ 55 = 01             A:55 X:55 Y:2C P:24 SP:FB CYC:12021
DE26  36 00     ROL $00,X @ 55 = 55             A:55 X:55 Y:2C P:24 SP:FB CYC:12025
DE28  B5 00     LDA $00,X @ 55 = AA             A:55 X:55 Y:2C P:A4 SP:FB CYC:12031
DE2A  20 21 FA  JSR $FA21                       A:AA X:55 Y:2C P:A4 SP:FB CYC:12035
FA21  B0 0B     BCS $FA2E                       A:AA X:55 Y:2C P:A4 SP:F9 CYC:12041
FA23  F0 09     BEQ $FA2E                       A:AA X:55 Y:2C P:A4 SP:F9 CYC:12043
FA25  10 07     BPL $FA2E                       A:AA X:55 Y:2C P:A4 SP:F9 CYC:12045
FA27  70 05     BVS $FA2E                       A:AA X:55 Y:2C P:A4 SP:F9 CYC:12047
FA29  C9 AA     CMP #$AA                        A:AA X:55 Y:2C P:A4 SP:F9 CYC:12049
FA2B  D0 01     BNE $FA2E                       A:AA X:55 Y:2C P:27 SP:F9 CYC:12051
FA2D  60        RTS                             A:AA X:55 Y:2C P:27 SP:F9 CYC:12053
DE2D  A9 FF     LDA #$FF                        A:AA X:55 Y:2C P:27 SP:FB CYC:12059
DE2F  95 00     STA $00,X @ 55 = AA             A:FF X:55 Y:2C P:A5 SP:FB CYC:12061
DE31  85 01     STA $01 = FF                    A:FF X:55 Y:2C P:A5 SP:FB CYC:12065
DE33  24 01     BIT $01 = FF                    A:FF X:55 Y:2C P:A5 SP:FB CYC:12068
DE35  38        SEC                             A:FF X:55 Y:2C P:E5 SP:FB CYC:12071
DE36  F6 00     INC $00,X @ 55 = FF             A:FF X:55 Y:2C P:E5 SP:FB CYC:12073
DE38  D0 0C     BNE $DE46                       A:FF X:55 Y:2C P:67 SP:FB CYC:12079
DE3A  30 0A     BMI $DE46                       A:FF X:55 Y:2C P:67 SP:FB CYC:12081
DE3C  50 08     BVC $DE46                       A:FF X:55 Y:2C P:67 SP:FB CYC:12083
DE3E  90 06     BCC $DE46                       A:FF X:55 Y:2C P:67 SP:FB CYC:12085
DE40  B5 00     LDA $00,X @ 55 = 00             A:FF X:55 Y:2C P:67 SP:FB CYC:12087
DE42  C9 00     CMP #$00                        A:00 X:55 Y:2C P:67 SP:FB CYC:12091
DE44  F0 04     BEQ $DE4A                       A:00 X:55 Y:2C P:67 SP:FB CYC:12093
DE4A  A9 7F     LDA #$7F                        A:00 X:55 Y:2C P:67 SP:FB CYC:12095
DE4C  95 00     STA $00,X @ 55 = 00             A:7F X:55 Y:2C P:65 SP:FB CYC:12097
DE4E  B8        CLV                             A:7F X:55 Y:2C P:65 SP:FB CYC:12101
DE4F  18        CLC                             A:7F X:55 Y:2C P:25 SP:FB CYC:12103
DE50  F6 00     INC $00,X @ 55 = 7F             A:7F X:55 Y:2C P:24 SP:FB CYC:12105
DE52  F0 0C     BEQ $DE60                       A:7F X:55 Y:2C P:A4 SP:FB CYC:12111
DE54  10 0A     BPL $DE60                       A:7F X:55 Y:2C P:A4 SP:FB CYC:12113
DE56  70 08     BVS $DE60                       A:7F X:55 Y:2C P:A4 SP:FB CYC:12115
DE58  B0 06     BCS $DE60                       A:7F X:55 Y:2C P:A4 SP:FB CYC:12117
DE5A  B5 00     LDA $00,X @ 55 = 80             A:7F X:55 Y:2C P:A4 SP:FB CYC:12119
DE5C  C9 80     CMP #$80                        A:80 X:55 Y:2C P:A4 SP:FB CYC:12123
DE5E  F0 04     BEQ $DE64                       A:80 X:55 Y:2C P:27 SP:FB CYC:12125
DE64  A9 00     LDA #$00                        A:80 X:55 Y:2C P:27 SP:FB CYC:12127
DE66  95 00     STA $00,X @ 55 = 80             A:00 X:55 Y:2C P:27 SP:FB CYC:12129
DE68  24 01     BIT $01 = FF                    A:00 X:55 Y:2C P:27 SP:FB CYC:12133
DE6A  38        SEC                             A:00 X:55 Y:2C P:E7 SP:FB CYC:12136
DE6B  D6 00     DEC $00,X @ 55 = 00             A:00 X:55 Y:2C P:E7 SP:FB CYC:12138
DE6D  F0 0C     BEQ $DE7B                       A:00 X:55 Y:2C P:E5 SP:FB CYC:12144
DE6F  10 0A     BPL $DE7B                       A:00 X:55 Y:2C P:E5 SP:FB CYC:12146
DE71  50 08     BVC $DE7B                       A:00 X:55 Y:2C P:E5 SP:FB CYC:12148
DE73  90 06     BCC $DE7B                       A:00 X:55 Y:2C P:E5 SP:FB CYC:12150
DE75  B5 00     LDA $00,X @ 55 = FF             A:00 X:55 Y:2C P:E5 SP:FB CYC:12152
DE77  C9 FF     CMP #$FF                        A:FF X:55 Y:2C P:E5 SP:FB CYC:12156
DE79  F0 04     BEQ $DE7F                       A:FF X:55 Y:2C P:67 SP:FB CYC:12158
DE7F  A9 80     LDA #$80                        A:FF X:55 Y:2C P:67 SP:FB CYC:12160
DE81  95 00     STA $00,X @ 55 = FF             A:80 X:55 Y:2C P:E5 SP:FB CYC:12162
DE83  B8        CLV                             A:80 X:55 Y:2C P:E5 SP:FB CYC:12166
DE84  18        CLC                             A:80 X:55 Y:2C P:A5 SP:FB CYC:12168
DE85  D6 00     DEC $00,X @ 55 = 80             A:80 X:55 Y:2C P:A4 SP:FB CYC:12170
DE87  F0 0C     BEQ $DE95                       A:80 X:55 Y:2C P:24 SP:FB CYC:12176
DE89  30 0A     BMI $DE95                       A:80 X:55 Y:2C P:24 SP:FB CYC:12178
DE8B  70 08     BVS $DE95                       A:80 X:55 Y:2C P:24 SP:FB CYC:12180
DE8D  B0 06     BCS $DE95                       A:80 X:55 Y:2C P:24 SP:FB CYC:12182
DE8F  B5 00     LDA $00,X @ 55 = 7F             A:80 X:55 Y:2C P:24 SP:FB CYC:12184
DE91  C9 7F     CMP #$7F                        A:7F X:55 Y:2C P:24 SP:FB CYC:12188
DE93  F0 04     BEQ $DE99                       A:7F X:55 Y:2C P:27 SP:FB CYC:12190
DE99  A9 01     LDA #$01                        A:7F X:55 Y:2C P:27 SP:FB CYC:12192
DE9B  95 00     STA $00,X @ 55 = 7F             A:01 X:55 Y:2C P:25 SP:FB CYC:12194
DE9D  D6 00     DEC $00,X @ 55 = 01             A:01 X:55 Y:2C P:25 SP:FB CYC:12198
DE9F  F0 04     BEQ $DEA5                       A:01 X:55 Y:2C P:27 SP:FB CYC:12204
DEA5  A9 33     LDA #$33                        A:01 X:55 Y:2C P:27 SP:FB CYC:12206
DEA7  85 78     STA $78 = 7F                    A:33 X:55 Y:2C P:25 SP:FB CYC:12208
DEA9  A9 44     LDA #$44                        A:33 X:55 Y:2C P:25 SP:FB CYC:12211
DEAB  A0 78     LDY #$78                        A:44 X:55 Y:2C P:25 SP:FB CYC:12213
DEAD  A2 00     LDX #$00                        A:44 X:55 Y:78 P:25 SP:FB CYC:12215
DEAF  38        SEC                             A:44 X:00 Y:78 P:27 SP:FB CYC:12217
DEB0  24 01     BIT $01 = FF                    A:44 X:00 Y:78 P:27 SP:FB CYC:12219
DEB2  B6 00     LDX $00,Y @ 78 = 33             A:44 X:00 Y:78 P:E5 SP:FB CYC:12222
DEB4  90 12     BCC $DEC8                       A:44 X:33 Y:78 P:65 SP:FB CYC:12226
DEB6  50 10     BVC $DEC8                       A:44 X:33 Y:78 P:65 SP:FB CYC:12228
DEB8  30 0E     BMI $DEC8                       A:44 X:33 Y:78 P:65 SP:FB CYC:12230
DEBA  F0 0C     BEQ $DEC8                       A:44 X:33 Y:78 P:65 SP:FB CYC:12232
DEBC  E0 33     CPX #$33                        A:44 X:33 Y:78 P:65 SP:FB CYC:12234
DEBE  D0 08     BNE $DEC8                       A:44 X:33 Y:78 P:67 SP:FB CYC:12236
DEC0  C0 78     CPY #$78                        A:44 X:33 Y:78 P:67 SP:FB CYC:12238
DEC2  D0 04     BNE $DEC8                       A:44 X:33 Y:78 P:67 SP:FB CYC:12240
DEC4  C9 44     CMP #$44                        A:44 X:33 Y:78 P:67 SP:FB CYC:12242
DEC6  F0 04     BEQ $DECC                       A:44 X:33 Y:78 P:67 SP:FB CYC:12244
DECC  A9 97     LDA #$97                        A:44 X:33 Y:78 P:67 SP:FB CYC:12246
DECE  85 7F     STA $7F = 00                    A:97 X:33 Y:78 P:E5 SP:FB CYC:12248
DED0  A9 47     LDA #$47                        A:97 X:33 Y:78 P:E5 SP:FB CYC:12251
DED2  A0 FF     LDY #$FF                        A:47 X:33 Y:78 P:65 SP:FB CYC:12253
DED4  A2 00     LDX #$00                        A:47 X:33 Y:FF P:E5 SP:FB CYC:12255
DED6  18        CLC                             A:47 X:00 Y:FF P:67 SP:FB CYC:12257
DED7  B8        CLV                             A:47 X:00 Y:FF P:66 SP:FB CYC:12259
DED8  B6 80     LDX $80,Y @ 7F = 97             A:47 X:00 Y:FF P:26 SP:FB CYC:12261
DEDA  B0 12     BCS $DEEE                       A:47 X:97 Y:FF P:A4 SP:FB CYC:12265
DEDC  70 10     BVS $DEEE                       A:47 X:97 Y:FF P:A4 SP:FB CYC:12267
DEDE  10 0E     BPL $DEEE                       A:47 X:97 Y:FF P:A4 SP:FB CYC:12269
DEE0  F0 0C     BEQ $DEEE                       A:47 X:97 Y:FF P:A4 SP:FB CYC:12271
DEE2  E0 97     CPX #$97                        A:47 X:97 Y:FF P:A4 SP:FB CYC:12273
DEE4  D0 08     BNE $DEEE                       A:47 X:97 Y:FF P:27 SP:FB CYC:12275
DEE6  C0 FF     CPY #$FF                        A:47 X:97 Y:FF P:27 SP:FB CYC:12277
DEE8  D0 04     BNE $DEEE                       A:47 X:97 Y:FF P:27 SP:FB CYC:12279
DEEA  C9 47     CMP #$47                        A:47 X:97 Y:FF P:27 SP:FB CYC:12281
DEEC  F0 04     BEQ $DEF2                       A:47 X:97 Y:FF P:27 SP:FB CYC:12283
DEF2  A9 00     LDA #$00                        A:47 X:97 Y:FF P:27 SP:FB CYC:12285
DEF4  85 7F     STA $7F = 97                    A:00 X:97 Y:FF P:27 SP:FB CYC:12287
DEF6  A9 47     LDA #$47                        A:00 X:97 Y:FF P:27 SP:FB CYC:12290
DEF8  A0 FF     LDY #$FF                        A:47 X:97 Y:FF P:25 SP:FB CYC:12292
DEFA  A2 69     LDX #$69                        A:47 X:97 Y:FF P:A5 SP:FB CYC:12294
DEFC  18        CLC                             A:47 X:69 Y:FF P:25 SP:FB CYC:12296
DEFD  B8        CLV                             A:47 X:69 Y:FF P:24 SP:FB CYC:12298
DEFE  96 80     STX $80,Y @ 7F = 00             A:47 X:69 Y:FF P:24 SP:FB CYC:12300
DF00  B0 18     BCS $DF1A                       A:47 X:69 Y:FF P:24 SP:FB CYC:12304
DF02  70 16     BVS $DF1A                       A:47 X:69 Y:FF P:24 SP:FB CYC:12306
DF04  30 14     BMI $DF1A                       A:47 X:69 Y:FF P:24 SP:FB CYC:12308
DF06  F0 12     BEQ $DF1A                       A:47 X:69 Y:FF P:24 SP:FB CYC:12310
DF08  E0 69     CPX #$69                        A:47 X:69 Y:FF P:24 SP:FB CYC:12312
DF0A  D0 0E     BNE $DF1A                       A:47 X:69 Y:FF P:27 SP:FB CYC:12314
DF0C  C0 FF     CPY #$FF                        A:47 X:69 Y:FF P:27 SP:FB CYC:12316
DF0E  D0 0A     BNE $DF1A                       A:47 X:69 Y:FF P:27 SP:FB CYC:12318
DF10  C9 47     CMP #$47                        A:47 X:69 Y:FF P:27 SP:FB CYC:12320
DF12  D0 06     BNE $DF1A                       A:47 X:69 Y:FF P:27 SP:FB CYC:12322
DF14  A5 7F     LDA $7F = 69                    A:47 X:69 Y:FF P:27 SP:FB CYC:12324
DF16  C9 69     CMP #$69                        A:69 X:69 Y:FF P:25 SP:FB CYC:12327
DF18  F0 04     BEQ $DF1E                       A:69 X:69 Y:FF P:27 SP:FB CYC:12329
DF1E  A9 F5     LDA #$F5                        A:69 X:69 Y:FF P:27 SP:FB CYC:12331
DF20  85 4F     STA $4F = 00                    A:F5 X:69 Y:FF P:A5 SP:FB CYC:12333
DF22  A9 47     LDA #$47                        A:F5 X:69 Y:FF P:A5 SP:FB CYC:12336
DF24  A0 4F     LDY #$4F                        A:47 X:69 Y:FF P:25 SP:FB CYC:12338
DF26  24 01     BIT $01 = FF                    A:47 X:69 Y:4F P:25 SP:FB CYC:12340
DF28  A2 00     LDX #$00                        A:47 X:69 Y:4F P:E5 SP:FB CYC:12343
DF2A  38        SEC                             A:47 X:00 Y:4F P:67 SP:FB CYC:12345
DF2B  96 00     STX $00,Y @ 4F = F5             A:47 X:00 Y:4F P:67 SP:FB CYC:12347
DF2D  90 16     BCC $DF45                       A:47 X:00 Y:4F P:67 SP:FB CYC:12351
DF2F  50 14     BVC $DF45                       A:47 X:00 Y:4F P:67 SP:FB CYC:12353
DF31  30 12     BMI $DF45                       A:47 X:00 Y:4F P:67 SP:FB CYC:12355
DF33  D0 10     BNE $DF45                       A:47 X:00 Y:4F P:67 SP:FB CYC:12357
DF35  E0 00     CPX #$00                        A:47 X:00 Y:4F P:67 SP:FB CYC:12359
DF37  D0 0C     BNE $DF45                       A:47 X:00 Y:4F P:67 SP:FB CYC:12361
DF39  C0 4F     CPY #$4F                        A:47 X:00 Y:4F P:67 SP:FB CYC:12363
DF3B  D0 08     BNE $DF45                       A:47 X:00 Y:4F P:67 SP:FB CYC:12365
DF3D  C9 47     CMP #$47                        A:47 X:00 Y:4F P:67 SP:FB CYC:12367
DF3F  D0 04     BNE $DF45                       A:47 X:00 Y:4F P:67 SP:FB CYC:12369
DF41  A5 4F     LDA $4F = 00                    A:47 X:00 Y:4F P:67 SP:FB CYC:12371
DF43  F0 04     BEQ $DF49                       A:00 X:00 Y:4F P:67 SP:FB CYC:12374
DF49  60        RTS                             A:00 X:00 Y:4F P:67 SP:FB CYC:12376
C62C  20 AA E1  JSR $E1AA                       A:00 X:00 Y:4F P:67 SP:FD CYC:12382
E1AA  A9 FF     LDA #$FF                        A:00 X:00 Y:4F P:67 SP:FB CYC:12388
E1AC  85 01     STA $01 = FF                    A:FF X:00 Y:4F P:E5 SP:FB CYC:12390
E1AE  A9 AA     LDA #$AA                        A:FF X:00 Y:4F P:E5 SP:FB CYC:12393
E1B0  8D 33 06  STA $0633 = 00                  A:AA X:00 Y:4F P:E5 SP:FB CYC:12395
E1B3  A9 BB     LDA #$BB                        A:AA X:00 Y:4F P:E5 SP:FB CYC:12399
E1B5  8D 89 06  STA $0689 = 00                  A:BB X:00 Y:4F P:E5 SP:FB CYC:12401
E1B8  A2 00     LDX #$00                        A:BB X:00 Y:4F P:E5 SP:FB CYC:12405
E1BA  A9 66     LDA #$66                        A:BB X:00 Y:4F P:67 SP:FB CYC:12407
E1BC  24 01     BIT $01 = FF                    A:66 X:00 Y:4F P:65 SP:FB CYC:12409
E1BE  38        SEC                             A:66 X:00 Y:4F P:E5 SP:FB CYC:12412
E1BF  A0 00     LDY #$00                        A:66 X:00 Y:4F P:E5 SP:FB CYC:12414
E1C1  BC 33 06  LDY $0633,X @ 0633 = AA         A:66 X:00 Y:00 P:67 SP:FB CYC:12416
E1C4  10 12     BPL $E1D8                       A:66 X:00 Y:AA P:E5 SP:FB CYC:12420
E1C6  F0 10     BEQ $E1D8                       A:66 X:00 Y:AA P:E5 SP:FB CYC:12422
E1C8  50 0E     BVC $E1D8                       A:66 X:00 Y:AA P:E5 SP:FB CYC:12424
E1CA  90 0C     BCC $E1D8                       A:66 X:00 Y:AA P:E5 SP:FB CYC:12426
E1CC  C9 66     CMP #$66                        A:66 X:00 Y:AA P:E5 SP:FB CYC:12428
E1CE  D0 08     BNE $E1D8                       A:66 X:00 Y:AA P:67 SP:FB CYC:12430
E1D0  E0 00     CPX #$00                        A:66 X:00 Y:AA P:67 SP:FB CYC:12432
E1D2  D0 04     BNE $E1D8                       A:66 X:00 Y:AA P:67 SP:FB CYC:12434
E1D4  C0 AA     CPY #$AA                        A:66 X:00 Y:AA P:67 SP:FB CYC:12436
E1D6  F0 04     BEQ $E1DC                       A:66 X:00 Y:AA P:67 SP:FB CYC:12438
E1DC  A2 8A     LDX #$8A                        A:66 X:00 Y:AA P:67 SP:FB CYC:12440
E1DE  A9 66     LDA #$66                        A:66 X:8A Y:AA P:E5 SP:FB CYC:12442
E1E0  B8        CLV                             A:66 X:8A Y:AA P:65 SP:FB CYC:12444
E1E1  18        CLC                             A:66 X:8A Y:AA P:25 SP:FB CYC:12446
E1E2  A0 00     LDY #$00                        A:66 X:8A Y:AA P:24 SP:FB CYC:12448
E1E4  BC FF 05  LDY $05FF,X @ 0689 = BB         A:66 X:8A Y:00 P:26 SP:FB CYC:12450
E1E7  10 12     BPL $E1FB                       A:66 X:8A Y:BB P:A4 SP:FB CYC:12454
E1E9  F0 10     BEQ $E1FB                       A:66 X:8A Y:BB P:A4 SP:FB CYC:12456
E1EB  70 0E     BVS $E1FB                       A:66 X:8A Y:BB P:A4 SP:FB CYC:12458
E1ED  B0 0C     BCS $E1FB                       A:66 X:8A Y:BB P:A4 SP:FB CYC:12460
E1EF  C0 BB     CPY #$BB                        A:66 X:8A Y:BB P:A4 SP:FB CYC:12462
E1F1  D0 08     BNE $E1FB                       A:66 X:8A Y:BB P:27 SP:FB CYC:12464
E1F3  C9 66     CMP #$66                        A:66 X:8A Y:BB P:27 SP:FB CYC:12466
E1F5  D0 04     BNE $E1FB                       A:66 X:8A Y:BB P:27 SP:FB CYC:12468
E1F7  E0 8A     CPX #$8A                        A:66 X:8A Y:BB P:27 SP:FB CYC:12470
E1F9  F0 04     BEQ $E1FF                       A:66 X:8A Y:BB P:27 SP:FB CYC:12472
E1FF  A0 53     LDY #$53                        A:66 X:8A Y:BB P:27 SP:FB CYC:12474
E201  A9 AA     LDA #$AA                        A:66 X:8A Y:53 P:25 SP:FB CYC:12476
E203  A2 78     LDX #$78                        A:AA X:8A Y:53 P:A5 SP:FB CYC:12478
E205  8D 78 06  STA $0678 = 00                  A:AA X:78 Y:53 P:25 SP:FB CYC:12480
E208  20 B6 F7  JSR $F7B6                       A:AA X:78 Y:53 P:25 SP:FB CYC:12484
F7B6  18        CLC                             A:AA X:78 Y:53 P:25 SP:F9 CYC:12490
F7B7  A9 FF     LDA #$FF                        A:AA X:78 Y:53 P:24 SP:F9 CYC:12492
F7B9  85 01     STA $01 = FF                    A:FF X:78 Y:53 P:A4 SP:F9 CYC:12494
F7BB  24 01     BIT $01 = FF                    A:FF X:78 Y:53 P:A4 SP:F9 CYC:12497
F7BD  A9 55     LDA #$55                        A:FF X:78 Y:53 P:E4 SP:F9 CYC:12500
F7BF  60        RTS                             A:55 X:78 Y:53 P:64 SP:F9 CYC:12502
E20B  1D 00 06  ORA $0600,X @ 0678 = AA         A:55 X:78 Y:53 P:64 SP:FB CYC:12508
E20E  20 C0 F7  JSR $F7C0                       A:FF X:78 Y:53 P:E4 SP:FB CYC:12512
F7C0  B0 09     BCS $F7CB                       A:FF X:78 Y:53 P:E4 SP:F9 CYC:12518
F7C2  10 07     BPL $F7CB                       A:FF X:78 Y:53 P:E4 SP:F9 CYC:12520
F7C4  C9 FF     CMP #$FF                        A:FF X:78 Y:53 P:E4 SP:F9 CYC:12522
F7C6  D0 03     BNE $F7CB                       A:FF X:78 Y:53 P:67 SP:F9 CYC:12524
F7C8  50 01     BVC $F7CB                       A:FF X:78 Y:53 P:67 SP:F9 CYC:12526
F7CA  60        RTS                             A:FF X:78 Y:53 P:67 SP:F9 CYC:12528
E211  C8        INY                             A:FF X:78 Y:53 P:67 SP:FB CYC:12534
E212  A9 00     LDA #$00                        A:FF X:78 Y:54 P:65 SP:FB CYC:12536
E214  8D 78 06  STA $0678 = AA                  A:00 X:78 Y:54 P:67 SP:FB CYC:12538
E217  20 CE F7  JSR $F7CE                       A:00 X:78 Y:54 P:67 SP:FB CYC:12542
F7CE  38        SEC                             A:00 X:78 Y:54 P:67 SP:F9 CYC:12548
F7CF  B8        CLV                             A:00 X:78 Y:54 P:67 SP:F9 CYC:12550
F7D0  A9 00     LDA #$00                        A:00 X:78 Y:54 P:27 SP:F9 CYC:12552
F7D2  60        RTS                             A:00 X:78 Y:54 P:27 SP:F9 CYC:12554
E21A  1D 00 06  ORA $0600,X @ 0678 = 00         A:00 X:78 Y:54 P:27 SP:FB CYC:12560
E21D  20 D3 F7  JSR $F7D3                       A:00 X:78 Y:54 P:27 SP:FB CYC:12564
F7D3  D0 07     BNE $F7DC                       A:00 X:78 Y:54 P:27 SP:F9 CYC:12570
F7D5  70 05     BVS $F7DC                       A:00 X:78 Y:54 P:27 SP:F9 CYC:12572
F7D7  90 03     BCC $F7DC                       A:00 X:78 Y:54 P:27 SP:F9 CYC:12574
F7D9  30 01     BMI $F7DC                       A:00 X:78 Y:54 P:27 SP:F9 CYC:12576
F7DB  60        RTS                             A:00 X:78 Y:54 P:27 SP:F9 CYC:12578
E220  C8        INY                             A:00 X:78 Y:54 P:27 SP:FB CYC:12584
E221  A9 AA     LDA #$AA                        A:00 X:78 Y:55 P:25 SP:FB CYC:12586
E223  8D 78 06  STA $0678 = 00                  A:AA X:78 Y:55 P:A5 SP:FB CYC:12588
E226  20 DF F7  JSR $F7DF                       A:AA X:78 Y:55 P:A5 SP:FB CYC:12592
F7DF  18        CLC                             A:AA X:78 Y:55 P:A5 SP:F9 CYC:12598
F7E0  24 01     BIT $01 = FF                    A:AA X:78 Y:55 P:A4 SP:F9 CYC:12600
F7E2  A9 55     LDA #$55                        A:AA X:78 Y:55 P:E4 SP:F9 CYC:12603
F7E4  60        RTS                             A:55 X:78 Y:55 P:64 SP:F9 CYC:12605
E229  3D 00 06  AND $0600,X @ 0678 = AA         A:55 X:78 Y:55 P:64 SP:FB CYC:12611
E22C  20 E5 F7  JSR $F7E5                       A:00 X:78 Y:55 P:66 SP:FB CYC:12615
F7E5  D0 07     BNE $F7EE                       A:00 X:78 Y:55 P:66 SP:F9 CYC:12621
F7E7  50 05     BVC $F7EE                       A:00 X:78 Y:55 P:66 SP:F9 CYC:12623
F7E9  B0 03     BCS $F7EE                       A:00 X:78 Y:55 P:66 SP:F9 CYC:12625
F7EB  30 01     BMI $F7EE                       A:00 X:78 Y:55 P:66 SP:F9 CYC:12627
F7ED  60        RTS                             A:00 X:78 Y:55 P:66 SP:F9 CYC:12629
E22F  C8        INY                             A:00 X:78 Y:55 P:66 SP:FB CYC:12635
E230  A9 EF     LDA #$EF                        A:00 X:78 Y:56 P:64 SP:FB CYC:12637
E232  8D 78 06  STA $0678 = AA                  A:EF X:78 Y:56 P:E4 SP:FB CYC:12639
E235  20 F1 F7  JSR $F7F1                       A:EF X:78 Y:56 P:E4 SP:FB CYC:12643
F7F1  38        SEC                             A:EF X:78 Y:56 P:E4 SP:F9 CYC:12649
F7F2  B8        CLV                             A:EF X:78 Y:56 P:E5 SP:F9 CYC:12651
F7F3  A9 F8     LDA #$F8                        A:EF X:78 Y:56 P:A5 SP:F9 CYC:12653
F7F5  60        RTS                             A:F8 X:78 Y:56 P:A5 SP:F9 CYC:12655
E238  3D 00 06  AND $0600,X @ 0678 = EF         A:F8 X:78 Y:56 P:A5 SP:FB CYC:12661
E23B  20 F6 F7  JSR $F7F6                       A:E8 X:78 Y:56 P:A5 SP:FB CYC:12665
F7F6  90 09     BCC $F801                       A:E8 X:78 Y:56 P:A5 SP:F9 CYC:12671
F7F8  10 07     BPL $F801                       A:E8 X:78 Y:56 P:A5 SP:F9 CYC:12673
F7FA  C9 E8     CMP #$E8                        A:E8 X:78 Y:56 P:A5 SP:F9 CYC:12675
F7FC  D0 03     BNE $F801                       A:E8 X:78 Y:56 P:27 SP:F9 CYC:12677
F7FE  70 01     BVS $F801                       A:E8 X:78 Y:56 P:27 SP:F9 CYC:12679
F800  60        RTS                             A:E8 X:78 Y:56 P:27 SP:F9 CYC:12681
E23E  C8        INY                             A:E8 X:78 Y:56 P:27 SP:FB CYC:12687
E23F  A9 AA     LDA #$AA                        A:E8 X:78 Y:57 P:25 SP:FB CYC:12689
E241  8D 78 06  STA $0678 = EF                  A:AA X:78 Y:57 P:A5 SP:FB CYC:12691
E244  20 04 F8  JSR $F804                       A:AA X:78 Y:57 P:A5 SP:FB CYC:12695
F804  18        CLC                             A:AA X:78 Y:57 P:A5 SP:F9 CYC:12701
F805  24 01     BIT $01 = FF                    A:AA X:78 Y:57 P:A4 SP:F9 CYC:12703
F807  A9 5F     LDA #$5F                        A:AA X:78 Y:57 P:E4 SP:F9 CYC:12706
F809  60        RTS                             A:5F X:78 Y:57 P:64 SP:F9 CYC:12708
E247  5D 00 06  EOR $0600,X @ 0678 = AA         A:5F X:78 Y:57 P:64 SP:FB CYC:12714
E24A  20 0A F8  JSR $F80A                       A:F5 X:78 Y:57 P:E4 SP:FB CYC:12718
F80A  B0 09     BCS $F815                       A:F5 X:78 Y:57 P:E4 SP:F9 CYC:12724
F80C  10 07     BPL $F815                       A:F5 X:78 Y:57 P:E4 SP:F9 CYC:12726
F80E  C9 F5     CMP #$F5                        A:F5 X:78 Y:57 P:E4 SP:F9 CYC:12728
F810  D0 03     BNE $F815                       A:F5 X:78 Y:57 P:67 SP:F9 CYC:12730
F812  50 01     BVC $F815                       A:F5 X:78 Y:57 P:67 SP:F9 CYC:12732
F814  60        RTS                             A:F5 X:78 Y:57 P:67 SP:F9 CYC:12734
E24D  C8        INY                             A:F5 X:78 Y:57 P:67 SP:FB CYC:12740
E24E  A9 70     LDA #$70                        A:F5 X:78 Y:58 P:65 SP:FB CYC:12742
E250  8D 78 06  STA $0678 = AA                  A:70 X:78 Y:58 P:65 SP:FB CYC:12744
E253  20 18 F8  JSR $F818                       A:70 X:78 Y:58 P:65 SP:FB CYC:12748
F818  38        SEC                             A:70 X:78 Y:58 P:65 SP:F9 CYC:12754
F819  B8        CLV                             A:70 X:78 Y:58 P:65 SP:F9 CYC:12756
F81A  A9 70     LDA #$70                        A:70 X:78 Y:58 P:25 SP:F9 CYC:12758
F81C  60        RTS                             A:70 X:78 Y:58 P:25 SP:F9 CYC:12760
E256  5D 00 06  EOR $0600,X @ 0678 = 70         A:70 X:78 Y:58 P:25 SP:FB CYC:12766
E259  20 1D F8  JSR $F81D                       A:00 X:78 Y:58 P:27 SP:FB CYC:12770
F81D  D0 07     BNE $F826                       A:00 X:78 Y:58 P:27 SP:F9 CYC:12776
F81F  70 05     BVS $F826                       A:00 X:78 Y:58 P:27 SP:F9 CYC:12778
F821  90 03     BCC $F826                       A:00 X:78 Y:58 P:27 SP:F9 CYC:12780
F823  30 01     BMI $F826                       A:00 X:78 Y:58 P:27 SP:F9 CYC:12782
F825  60        RTS                             A:00 X:78 Y:58 P:27 SP:F9 CYC:12784
E25C  C8        INY                             A:00 X:78 Y:58 P:27 SP:FB CYC:12790
E25D  A9 69     LDA #$69                        A:00 X:78 Y:59 P:25 SP:FB CYC:12792
E25F  8D 78 06  STA $0678 = 70                  A:69 X:78 Y:59 P:25 SP:FB CYC:12794
E262  20 29 F8  JSR $F829                       A:69 X:78 Y:59 P:25 SP:FB CYC:12798
F829  18        CLC                             A:69 X:78 Y:59 P:25 SP:F9 CYC:12804
F82A  24 01     BIT $01 = FF                    A:69 X:78 Y:59 P:24 SP:F9 CYC:12806
F82C  A9 00     LDA #$00                        A:69 X:78 Y:59 P:E4 SP:F9 CYC:12809
F82E  60        RTS                             A:00 X:78 Y:59 P:66 SP:F9 CYC:12811
E265  7D 00 06  ADC $0600,X @ 0678 = 69         A:00 X:78 Y:59 P:66 SP:FB CYC:12817
E268  20 2F F8  JSR $F82F                       A:69 X:78 Y:59 P:24 SP:FB CYC:12821
F82F  30 09     BMI $F83A                       A:69 X:78 Y:59 P:24 SP:F9 CYC:12827
F831  B0 07     BCS $F83A                       A:69 X:78 Y:59 P:24 SP:F9 CYC:12829
F833  C9 69     CMP #$69                        A:69 X:78 Y:59 P:24 SP:F9 CYC:12831
F835  D0 03     BNE $F83A                       A:69 X:78 Y:59 P:27 SP:F9 CYC:12833
F837  70 01     BVS $F83A                       A:69 X:78 Y:59 P:27 SP:F9 CYC:12835
F839  60        RTS                             A:69 X:78 Y:59 P:27 SP:F9 CYC:12837
E26B  C8        INY                             A:69 X:78 Y:59 P:27 SP:FB CYC:12843
E26C  20 3D F8  JSR $F83D                       A:69 X:78 Y:5A P:25 SP:FB CYC:12845
F83D  38        SEC                             A:69 X:78 Y:5A P:25 SP:F9 CYC:12851
F83E  24 01     BIT $01 = FF                    A:69 X:78 Y:5A P:25 SP:F9 CYC:12853
F840  A9 00     LDA #$00                        A:69 X:78 Y:5A P:E5 SP:F9 CYC:12856
F842  60        RTS                             A:00 X:78 Y:5A P:67 SP:F9 CYC:12858
E26F  7D 00 06  ADC $0600,X @ 0678 = 69         A:00 X:78 Y:5A P:67 SP:FB CYC:12864
E272  20 43 F8  JSR $F843                       A:6A X:78 Y:5A P:24 SP:FB CYC:12868
F843  30 09     BMI $F84E                       A:6A X:78 Y:5A P:24 SP:F9 CYC:12874
F845  B0 07     BCS $F84E                       A:6A X:78 Y:5A P:24 SP:F9 CYC:12876
F847  C9 6A     CMP #$6A                        A:6A X:78 Y:5A P:24 SP:F9 CYC:12878
F849  D0 03     BNE $F84E                       A:6A X:78 Y:5A P:27 SP:F9 CYC:12880
F84B  70 01     BVS $F84E                       A:6A X:78 Y:5A P:27 SP:F9 CYC:12882
F84D  60        RTS                             A:6A X:78 Y:5A P:27 SP:F9 CYC:12884
E275  C8        INY                             A:6A X:78 Y:5A P:27 SP:FB CYC:12890
E276  A9 7F     LDA #$7F                        A:6A X:78 Y:5B P:25 SP:FB CYC:12892
E278  8D 78 06  STA $0678 = 69                  A:7F X:78 Y:5B P:25 SP:FB CYC:12894
E27B  20 51 F8  JSR $F851                       A:7F X:78 Y:5B P:25 SP:FB CYC:12898
F851  38        SEC                             A:7F X:78 Y:5B P:25 SP:F9 CYC:12904
F852  B8        CLV                             A:7F X:78 Y:5B P:25 SP:F9 CYC:12906
F853  A9 7F     LDA #$7F                        A:7F X:78 Y:5B P:25 SP:F9 CYC:12908
F855  60        RTS                             A:7F X:78 Y:5B P:25 SP:F9 CYC:12910
E27E  7D 00 06  ADC $0600,X @ 0678 = 7F         A:7F X:78 Y:5B P:25 SP:FB CYC:12916
E281  20 56 F8  JSR $F856                       A:FF X:78 Y:5B P:E4 SP:FB CYC:12920
F856  10 09     BPL $F861                       A:FF X:78 Y:5B P:E4 SP:F9 CYC:12926
F858  B0 07     BCS $F861                       A:FF X:78 Y:5B P:E4 SP:F9 CYC:12928
F85A  C9 FF     CMP #$FF                        A:FF X:78 Y:5B P:E4 SP:F9 CYC:12930
F85C  D0 03     BNE $F861                       A:FF X:78 Y:5B P:67 SP:F9 CYC:12932
F85E  50 01     BVC $F861                       A:FF X:78 Y:5B P:67 SP:F9 CYC:12934
F860  60        RTS                             A:FF X:78 Y:5B P:67 SP:F9 CYC:12936
E284  C8        INY                             A:FF X:78 Y:5B P:67 SP:FB CYC:12942
E285  A9 80     LDA #$80                        A:FF X:78 Y:5C P:65 SP:FB CYC:12944
E287  8D 78 06  STA $0678 = 7F                  A:80 X:78 Y:5C P:E5 SP:FB CYC:12946
E28A  20 64 F8  JSR $F864                       A:80 X:78 Y:5C P:E5 SP:FB CYC:12950
F864  18        CLC                             A:80 X:78 Y:5C P:E5 SP:F9 CYC:12956
F865  24 01     BIT $01 = FF                    A:80 X:78 Y:5C P:E4 SP:F9 CYC:12958
F867  A9 7F     LDA #$7F                        A:80 X:78 Y:5C P:E4 SP:F9 CYC:12961
F869  60        RTS                             A:7F X:78 Y:5C P:64 SP:F9 CYC:12963
E28D  7D 00 06  ADC $0600,X @ 0678 = 80         A:7F X:78 Y:5C P:64 SP:FB CYC:12969
E290  20 6A F8  JSR $F86A                       A:FF X:78 Y:5C P:A4 SP:FB CYC:12973
F86A  10 09     BPL $F875                       A:FF X:78 Y:5C P:A4 SP:F9 CYC:12979
F86C  B0 07     BCS $F875                       A:FF X:78 Y:5C P:A4 SP:F9 CYC:12981
F86E  C9 FF     CMP #$FF                        A:FF X:78 Y:5C P:A4 SP:F9 CYC:12983
F870  D0 03     BNE $F875                       A:FF X:78 Y:5C P:27 SP:F9 CYC:12985
F872  70 01     BVS $F875                       A:FF X:78 Y:5C P:27 SP:F9 CYC:12987
F874  60        RTS                             A:FF X:78 Y:5C P:27 SP:F9 CYC:12989
E293  C8        INY                             A:FF X:78 Y:5C P:27 SP:FB CYC:12995
E294  20 78 F8  JSR $F878                       A:FF X:78 Y:5D P:25 SP:FB CYC:12997
F878  38        SEC                             A:FF X:78 Y:5D P:25 SP:F9 CYC:13003
F879  B8        CLV                             A:FF X:78 Y:5D P:25 SP:F9 CYC:13005
F87A  A9 7F     LDA #$7F                        A:FF X:78 Y:5D P:25 SP:F9 CYC:13007
F87C  60        RTS                             A:7F X:78 Y:5D P:25 SP:F9 CYC:13009
E297  7D 00 06  ADC $0600,X @ 0678 = 80         A:7F X:78 Y:5D P:25 SP:FB CYC:13015
E29A  20 7D F8  JSR $F87D                       A:00 X:78 Y:5D P:27 SP:FB CYC:13019
F87D  D0 07     BNE $F886                       A:00 X:78 Y:5D P:27 SP:F9 CYC:13025
F87F  30 05     BMI $F886                       A:00 X:78 Y:5D P:27 SP:F9 CYC:13027
F881  70 03     BVS $F886                       A:00 X:78 Y:5D P:27 SP:F9 CYC:13029
F883  90 01     BCC $F886                       A:00 X:78 Y:5D P:27 SP:F9 CYC:13031
F885  60        RTS                             A:00 X:78 Y:5D P:27 SP:F9 CYC:13033
E29D  C8        INY                             A:00 X:78 Y:5D P:27 SP:FB CYC:13039
E29E  A9 40     LDA #$40                        A:00 X:78 Y:5E P:25 SP:FB CYC:13041
E2A0  8D 78 06  STA $0678 = 80                  A:40 X:78 Y:5E P:25 SP:FB CYC:13043
E2A3  20 89 F8  JSR $F889                       A:40 X:78 Y:5E P:25 SP:FB CYC:13047
F889  24 01     BIT $01 = FF                    A:40 X:78 Y:5E P:25 SP:F9 CYC:13053
F88B  A9 40     LDA #$40                        A:40 X:78 Y:5E P:E5 SP:F9 CYC:13056
F88D  60        RTS                             A:40 X:78 Y:5E P:65 SP:F9 CYC:13058
E2A6  DD 00 06  CMP $0600,X @ 0678 = 40         A:40 X:78 Y:5E P:65 SP:FB CYC:13064
E2A9  20 8E F8  JSR $F88E                       A:40 X:78 Y:5E P:67 SP:FB CYC:13068
F88E  30 07     BMI $F897                       A:40 X:78 Y:5E P:67 SP:F9 CYC:13074
F890  90 05     BCC $F897                       A:40 X:78 Y:5E P:67 SP:F9 CYC:13076
F892  D0 03     BNE $F897                       A:40 X:78 Y:5E P:67 SP:F9 CYC:13078
F894  50 01     BVC $F897                       A:40 X:78 Y:5E P:67 SP:F9 CYC:13080
F896  60        RTS                             A:40 X:78 Y:5E P:67 SP:F9 CYC:13082
E2AC  C8        INY                             A:40 X:78 Y:5E P:67 SP:FB CYC:13088
E2AD  48        PHA                             A:40 X:78 Y:5F P:65 SP:FB CYC:13090
E2AE  A9 3F     LDA #$3F                        A:40 X:78 Y:5F P:65 SP:FA CYC:13093
E2B0  8D 78 06  STA $0678 = 40                  A:3F X:78 Y:5F P:65 SP:FA CYC:13095
E2B3  68        PLA                             A:3F X:78 Y:5F P:65 SP:FA CYC:13099
E2B4  20 9A F8  JSR $F89A                       A:40 X:78 Y:5F P:65 SP:FB CYC:13103
F89A  B8        CLV                             A:40 X:78 Y:5F P:65 SP:F9 CYC:13109
F89B  60        RTS                             A:40 X:78 Y:5F P:25 SP:F9 CYC:13111
E2B7  DD 00 06  CMP $0600,X @ 0678 = 3F         A:40 X:78 Y:5F P:25 SP:FB CYC:13117
E2BA  20 9C F8  JSR $F89C                       A:40 X:78 Y:5F P:25 SP:FB CYC:13121
F89C  F0 07     BEQ $F8A5                       A:40 X:78 Y:5F P:25 SP:F9 CYC:13127
F89E  30 05     BMI $F8A5                       A:40 X:78 Y:5F P:25 SP:F9 CYC:13129
F8A0  90 03     BCC $F8A5                       A:40 X:78 Y:5F P:25 SP:F9 CYC:13131
F8A2  70 01     BVS $F8A5                       A:40 X:78 Y:5F P:25 SP:F9 CYC:13133
F8A4  60        RTS                             A:40 X:78 Y:5F P:25 SP:F9 CYC:13135
E2BD  C8        INY                             A:40 X:78 Y:5F P:25 SP:FB CYC:13141
E2BE  48        PHA                             A:40 X:78 Y:60 P:25 SP:FB CYC:13143
E2BF  A9 41     LDA #$41                        A:40 X:78 Y:60 P:25 SP:FA CYC:13146
E2C1  8D 78 06  STA $0678 = 3F                  A:41 X:78 Y:60 P:25 SP:FA CYC:13148
E2C4  68        PLA                             A:41 X:78 Y:60 P:25 SP:FA CYC:13152
E2C5  DD 00 06  CMP $0600,X @ 0678 = 41         A:40 X:78 Y:60 P:25 SP:FB CYC:13156
E2C8  20 A8 F8  JSR $F8A8                       A:40 X:78 Y:60 P:A4 SP:FB CYC:13160
F8A8  F0 05     BEQ $F8AF                       A:40 X:78 Y:60 P:A4 SP:F9 CYC:13166
F8AA  10 03     BPL $F8AF                       A:40 X:78 Y:60 P:A4 SP:F9 CYC:13168
F8AC  10 01     BPL $F8AF                       A:40 X:78 Y:60 P:A4 SP:F9 CYC:13170
F8AE  60        RTS                             A:40 X:78 Y:60 P:A4 SP:F9 CYC:13172
E2CB  C8        INY                             A:40 X:78 Y:60 P:A4 SP:FB CYC:13178
E2CC  48        PHA                             A:40 X:78 Y:61 P:24 SP:FB CYC:13180
E2CD  A9 00     LDA #$00                        A:40 X:78 Y:61 P:24 SP:FA CYC:13183
E2CF  8D 78 06  STA $0678 = 41                  A:00 X:78 Y:61 P:26 SP:FA CYC:13185
E2D2  68        PLA                             A:00 X:78 Y:61 P:26 SP:FA CYC:13189
E2D3  20 B2 F8  JSR $F8B2                       A:40 X:78 Y:61 P:24 SP:FB CYC:13193
F8B2  A9 80     LDA #$80                        A:40 X:78 Y:61 P:24 SP:F9 CYC:13199
F8B4  60        RTS                             A:80 X:78 Y:61 P:A4 SP:F9 CYC:13201
E2D6  DD 00 06  CMP $0600,X @ 0678 = 00         A:80 X:78 Y:61 P:A4 SP:FB CYC:13207
E2D9  20 B5 F8  JSR $F8B5                       A:80 X:78 Y:61 P:A5 SP:FB CYC:13211
F8B5  F0 05     BEQ $F8BC                       A:80 X:78 Y:61 P:A5 SP:F9 CYC:13217
F8B7  10 03     BPL $F8BC                       A:80 X:78 Y:61 P:A5 SP:F9 CYC:13219
F8B9  90 01     BCC $F8BC                       A:80 X:78 Y:61 P:A5 SP:F9 CYC:13221
F8BB  60        RTS                             A:80 X:78 Y:61 P:A5 SP:F9 CYC:13223
E2DC  C8        INY                             A:80 X:78 Y:61 P:A5 SP:FB CYC:13229
E2DD  48        PHA                             A:80 X:78 Y:62 P:25 SP:FB CYC:13231
E2DE  A9 80     LDA #$80                        A:80 X:78 Y:62 P:25 SP:FA CYC:13234
E2E0  8D 78 06  STA $0678 = 00                  A:80 X:78 Y:62 P:A5 SP:FA CYC:13236
E2E3  68        PLA                             A:80 X:78 Y:62 P:A5 SP:FA CYC:13240
E2E4  DD 00 06  CMP $0600,X @ 0678 = 80         A:80 X:78 Y:62 P:A5 SP:FB CYC:13244
E2E7  20 BF F8  JSR $F8BF                       A:80 X:78 Y:62 P:27 SP:FB CYC:13248
F8BF  D0 05     BNE $F8C6                       A:80 X:78 Y:62 P:27 SP:F9 CYC:13254
F8C1  30 03     BMI $F8C6                       A:80 X:78 Y:62 P:27 SP:F9 CYC:13256
F8C3  90 01     BCC $F8C6                       A:80 X:78 Y:62 P:27 SP:F9 CYC:13258
F8C5  60        RTS                             A:80 X:78 Y:62 P:27 SP:F9 CYC:13260
E2EA  C8        INY                             A:80 X:78 Y:62 P:27 SP:FB CYC:13266
E2EB  48        PHA                             A:80 X:78 Y:63 P:25 SP:FB CYC:13268
E2EC  A9 81     LDA #$81                        A:80 X:78 Y:63 P:25 SP:FA CYC:13271
E2EE  8D 78 06  STA $0678 = 80                  A:81 X:78 Y:63 P:A5 SP:FA CYC:13273
E2F1  68        PLA                             A:81 X:78 Y:63 P:A5 SP:FA CYC:13277
E2F2  DD 00 06  CMP $0600,X @ 0678 = 81         A:80 X:78 Y:63 P:A5 SP:FB CYC:13281
E2F5  20 C9 F8  JSR $F8C9                       A:80 X:78 Y:63 P:A4 SP:FB CYC:13285
F8C9  B0 05     BCS $F8D0                       A:80 X:78 Y:63 P:A4 SP:F9 CYC:13291
F8CB  F0 03     BEQ $F8D0                       A:80 X:78 Y:63 P:A4 SP:F9 CYC:13293
F8CD  10 01     BPL $F8D0                       A:80 X:78 Y:63 P:A4 SP:F9 CYC:13295
F8CF  60        RTS                             A:80 X:78 Y:63 P:A4 SP:F9 CYC:13297
E2F8  C8        INY                             A:80 X:78 Y:63 P:A4 SP:FB CYC:13303
E2F9  48        PHA                             A:80 X:78 Y:64 P:24 SP:FB CYC:13305
E2FA  A9 7F     LDA #$7F                        A:80 X:78 Y:64 P:24 SP:FA CYC:13308
E2FC  8D 78 06  STA $0678 = 81                  A:7F X:78 Y:64 P:24 SP:FA CYC:13310
E2FF  68        PLA                             A:7F X:78 Y:64 P:24 SP:FA CYC:13314
E300  DD 00 06  CMP $0600,X @ 0678 = 7F         A:80 X:78 Y:64 P:A4 SP:FB CYC:13318
E303  20 D3 F8  JSR $F8D3                       A:80 X:78 Y:64 P:25 SP:FB CYC:13322
F8D3  90 05     BCC $F8DA                       A:80 X:78 Y:64 P:25 SP:F9 CYC:13328
F8D5  F0 03     BEQ $F8DA                       A:80 X:78 Y:64 P:25 SP:F9 CYC:13330
F8D7  30 01     BMI $F8DA                       A:80 X:78 Y:64 P:25 SP:F9 CYC:13332
F8D9  60        RTS                             A:80 X:78 Y:64 P:25 SP:F9 CYC:13334
E306  C8        INY                             A:80 X:78 Y:64 P:25 SP:FB CYC:13340
E307  A9 40     LDA #$40                        A:80 X:78 Y:65 P:25 SP:FB CYC:13342
E309  8D 78 06  STA $0678 = 7F                  A:40 X:78 Y:65 P:25 SP:FB CYC:13344
E30C  20 31 F9  JSR $F931                       A:40 X:78 Y:65 P:25 SP:FB CYC:13348
F931  24 01     BIT $01 = FF                    A:40 X:78 Y:65 P:25 SP:F9 CYC:13354
F933  A9 40     LDA #$40                        A:40 X:78 Y:65 P:E5 SP:F9 CYC:13357
F935  38        SEC                             A:40 X:78 Y:65 P:65 SP:F9 CYC:13359
F936  60        RTS                             A:40 X:78 Y:65 P:65 SP:F9 CYC:13361
E30F  FD 00 06  SBC $0600,X @ 0678 = 40         A:40 X:78 Y:65 P:65 SP:FB CYC:13367
E312  20 37 F9  JSR $F937                       A:00 X:78 Y:65 P:27 SP:FB CYC:13371
F937  30 0B     BMI $F944                       A:00 X:78 Y:65 P:27 SP:F9 CYC:13377
F939  90 09     BCC $F944                       A:00 X:78 Y:65 P:27 SP:F9 CYC:13379
F93B  D0 07     BNE $F944                       A:00 X:78 Y:65 P:27 SP:F9 CYC:13381
F93D  70 05     BVS $F944                       A:00 X:78 Y:65 P:27 SP:F9 CYC:13383
F93F  C9 00     CMP #$00                        A:00 X:78 Y:65 P:27 SP:F9 CYC:13385
F941  D0 01     BNE $F944                       A:00 X:78 Y:65 P:27 SP:F9 CYC:13387
F943  60        RTS                             A:00 X:78 Y:65 P:27 SP:F9 CYC:13389
E315  C8        INY                             A:00 X:78 Y:65 P:27 SP:FB CYC:13395
E316  A9 3F     LDA #$3F                        A:00 X:78 Y:66 P:25 SP:FB CYC:13397
E318  8D 78 06  STA $0678 = 40                  A:3F X:78 Y:66 P:25 SP:FB CYC:13399
E31B  20 47 F9  JSR $F947                       A:3F X:78 Y:66 P:25 SP:FB CYC:13403
F947  B8        CLV                             A:3F X:78 Y:66 P:25 SP:F9 CYC:13409
F948  38        SEC                             A:3F X:78 Y:66 P:25 SP:F9 CYC:13411
F949  A9 40     LDA #$40                        A:3F X:78 Y:66 P:25 SP:F9 CYC:13413
F94B  60        RTS                             A:40 X:78 Y:66 P:25 SP:F9 CYC:13415
E31E  FD 00 06  SBC $0600,X @ 0678 = 3F         A:40 X:78 Y:66 P:25 SP:FB CYC:13421
E321  20 4C F9  JSR $F94C                       A:01 X:78 Y:66 P:25 SP:FB CYC:13425
F94C  F0 0B     BEQ $F959                       A:01 X:78 Y:66 P:25 SP:F9 CYC:13431
F94E  30 09     BMI $F959                       A:01 X:78 Y:66 P:25 SP:F9 CYC:13433
F950  90 07     BCC $F959                       A:01 X:78 Y:66 P:25 SP:F9 CYC:13435
F952  70 05     BVS $F959                       A:01 X:78 Y:66 P:25 SP:F9 CYC:13437
F954  C9 01     CMP #$01                        A:01 X:78 Y:66 P:25 SP:F9 CYC:13439
F956  D0 01     BNE $F959                       A:01 X:78 Y:66 P:27 SP:F9 CYC:13441
F958  60        RTS                             A:01 X:78 Y:66 P:27 SP:F9 CYC:13443
E324  C8        INY                             A:01 X:78 Y:66 P:27 SP:FB CYC:13449
E325  A9 41     LDA #$41                        A:01 X:78 Y:67 P:25 SP:FB CYC:13451
E327  8D 78 06  STA $0678 = 3F                  A:41 X:78 Y:67 P:25 SP:FB CYC:13453
E32A  20 5C F9  JSR $F95C                       A:41 X:78 Y:67 P:25 SP:FB CYC:13457
F95C  A9 40     LDA #$40                        A:41 X:78 Y:67 P:25 SP:F9 CYC:13463
F95E  38        SEC                             A:40 X:78 Y:67 P:25 SP:F9 CYC:13465
F95F  24 01     BIT $01 = FF                    A:40 X:78 Y:67 P:25 SP:F9 CYC:13467
F961  60        RTS                             A:40 X:78 Y:67 P:E5 SP:F9 CYC:13470
E32D  FD 00 06  SBC $0600,X @ 0678 = 41         A:40 X:78 Y:67 P:E5 SP:FB CYC:13476
E330  20 62 F9  JSR $F962                       A:FF X:78 Y:67 P:A4 SP:FB CYC:13480
F962  B0 0B     BCS $F96F                       A:FF X:78 Y:67 P:A4 SP:F9 CYC:13486
F964  F0 09     BEQ $F96F                       A:FF X:78 Y:67 P:A4 SP:F9 CYC:13488
F966  10 07     BPL $F96F                       A:FF X:78 Y:67 P:A4 SP:F9 CYC:13490
F968  70 05     BVS $F96F                       A:FF X:78 Y:67 P:A4 SP:F9 CYC:13492
F96A  C9 FF     CMP #$FF                        A:FF X:78 Y:67 P:A4 SP:F9 CYC:13494
F96C  D0 01     BNE $F96F                       A:FF X:78 Y:67 P:27 SP:F9 CYC:13496
F96E  60        RTS                             A:FF X:78 Y:67 P:27 SP:F9 CYC:13498
E333  C8        INY                             A:FF X:78 Y:67 P:27 SP:FB CYC:13504
E334  A9 00     LDA #$00                        A:FF X:78 Y:68 P:25 SP:FB CYC:13506
E336  8D 78 06  STA $0678 = 41                  A:00 X:78 Y:68 P:27 SP:FB CYC:13508
E339  20 72 F9  JSR $F972                       A:00 X:78 Y:68 P:27 SP:FB CYC:13512
F972  18        CLC                             A:00 X:78 Y:68 P:27 SP:F9 CYC:13518
F973  A9 80     LDA #$80                        A:00 X:78 Y:68 P:26 SP:F9 CYC:13520
F975  60        RTS                             A:80 X:78 Y:68 P:A4 SP:F9 CYC:13522
E33C  FD 00 06  SBC $0600,X @ 0678 = 00         A:80 X:78 Y:68 P:A4 SP:FB CYC:13528
E33F  20 76 F9  JSR $F976                       A:7F X:78 Y:68 P:65 SP:FB CYC:13532
F976  90 05     BCC $F97D                       A:7F X:78 Y:68 P:65 SP:F9 CYC:13538
F978  C9 7F     CMP #$7F                        A:7F X:78 Y:68 P:65 SP:F9 CYC:13540
F97A  D0 01     BNE $F97D                       A:7F X:78 Y:68 P:67 SP:F9 CYC:13542
F97C  60        RTS                             A:7F X:78 Y:68 P:67 SP:F9 CYC:13544
E342  C8        INY                             A:7F X:78 Y:68 P:67 SP:FB CYC:13550
E343  A9 7F     LDA #$7F                        A:7F X:78 Y:69 P:65 SP:FB CYC:13552
E345  8D 78 06  STA $0678 = 00                  A:7F X:78 Y:69 P:65 SP:FB CYC:13554
E348  20 80 F9  JSR $F980                       A:7F X:78 Y:69 P:65 SP:FB CYC:13558
F980  38        SEC                             A:7F X:78 Y:69 P:65 SP:F9 CYC:13564
F981  A9 81     LDA #$81                        A:7F X:78 Y:69 P:65 SP:F9 CYC:13566
F983  60        RTS                             A:81 X:78 Y:69 P:E5 SP:F9 CYC:13568
E34B  FD 00 06  SBC $0600,X @ 0678 = 7F         A:81 X:78 Y:69 P:E5 SP:FB CYC:13574
E34E  20 84 F9  JSR $F984                       A:02 X:78 Y:69 P:65 SP:FB CYC:13578
F984  50 07     BVC $F98D                       A:02 X:78 Y:69 P:65 SP:F9 CYC:13584
F986  90 05     BCC $F98D                       A:02 X:78 Y:69 P:65 SP:F9 CYC:13586
F988  C9 02     CMP #$02                        A:02 X:78 Y:69 P:65 SP:F9 CYC:13588
F98A  D0 01     BNE $F98D                       A:02 X:78 Y:69 P:67 SP:F9 CYC:13590
F98C  60        RTS                             A:02 X:78 Y:69 P:67 SP:F9 CYC:13592
E351  A9 AA     LDA #$AA                        A:02 X:78 Y:69 P:67 SP:FB CYC:13598
E353  8D 33 06  STA $0633 = AA                  A:AA X:78 Y:69 P:E5 SP:FB CYC:13600
E356  A9 BB     LDA #$BB                        A:AA X:78 Y:69 P:E5 SP:FB CYC:13604
E358  8D 89 06  STA $0689 = BB                  A:BB X:78 Y:69 P:E5 SP:FB CYC:13606
E35B  A2 00     LDX #$00                        A:BB X:78 Y:69 P:E5 SP:FB CYC:13610
E35D  A0 66     LDY #$66                        A:BB X:00 Y:69 P:67 SP:FB CYC:13612
E35F  24 01     BIT $01 = FF                    A:BB X:00 Y:66 P:65 SP:FB CYC:13614
E361  38        SEC                             A:BB X:00 Y:66 P:E5 SP:FB CYC:13617
E362  A9 00     LDA #$00                        A:BB X:00 Y:66 P:E5 SP:FB CYC:13619
E364  BD 33 06  LDA $0633,X @ 0633 = AA         A:00 X:00 Y:66 P:67 SP:FB CYC:13621
E367  10 12     BPL $E37B                       A:AA X:00 Y:66 P:E5 SP:FB CYC:13625
E369  F0 10     BEQ $E37B                       A:AA X:00 Y:66 P:E5 SP:FB CYC:13627
E36B  50 0E     BVC $E37B                       A:AA X:00 Y:66 P:E5 SP:FB CYC:13629
E36D  90 0C     BCC $E37B                       A:AA X:00 Y:66 P:E5 SP:FB CYC:13631
E36F  C0 66     CPY #$66                        A:AA X:00 Y:66 P:E5 SP:FB CYC:13633
E371  D0 08     BNE $E37B                       A:AA X:00 Y:66 P:67 SP:FB CYC:13635
E373  E0 00     CPX #$00                        A:AA X:00 Y:66 P:67 SP:FB CYC:13637
E375  D0 04     BNE $E37B                       A:AA X:00 Y:66 P:67 SP:FB CYC:13639
E377  C9 AA     CMP #$AA                        A:AA X:00 Y:66 P:67 SP:FB CYC:13641
E379  F0 04     BEQ $E37F                       A:AA X:00 Y:66 P:67 SP:FB CYC:13643
E37F  A2 8A     LDX #$8A                        A:AA X:00 Y:66 P:67 SP:FB CYC:13645
E381  A0 66     LDY #$66                        A:AA X:8A Y:66 P:E5 SP:FB CYC:13647
E383  B8        CLV                             A:AA X:8A Y:66 P:65 SP:FB CYC:13649
E384  18        CLC                             A:AA X:8A Y:66 P:25 SP:FB CYC:13651
E385  A9 00     LDA #$00                        A:AA X:8A Y:66 P:24 SP:FB CYC:13653
E387  BD FF 05  LDA $05FF,X @ 0689 = BB         A:00 X:8A Y:66 P:26 SP:FB CYC:13655
E38A  10 12     BPL $E39E                       A:BB X:8A Y:66 P:A4 SP:FB CYC:13659
E38C  F0 10     BEQ $E39E                       A:BB X:8A Y:66 P:A4 SP:FB CYC:13661
E38E  70 0E     BVS $E39E                       A:BB X:8A Y:66 P:A4 SP:FB CYC:13663
E390  B0 0C     BCS $E39E                       A:BB X:8A Y:66 P:A4 SP:FB CYC:13665
E392  C9 BB     CMP #$BB                        A:BB X:8A Y:66 P:A4 SP:FB CYC:13667
E394  D0 08     BNE $E39E                       A:BB X:8A Y:66 P:27 SP:FB CYC:13669
E396  C0 66     CPY #$66                        A:BB X:8A Y:66 P:27 SP:FB CYC:13671
E398  D0 04     BNE $E39E                       A:BB X:8A Y:66 P:27 SP:FB CYC:13673
E39A  E0 8A     CPX #$8A                        A:BB X:8A Y:66 P:27 SP:FB CYC:13675
E39C  F0 04     BEQ $E3A2                       A:BB X:8A Y:66 P:27 SP:FB CYC:13677
E3A2  24 01     BIT $01 = FF                    A:BB X:8A Y:66 P:27 SP:FB CYC:13679
E3A4  38        SEC                             A:BB X:8A Y:66 P:E5 SP:FB CYC:13682
E3A5  A9 44     LDA #$44                        A:BB X:8A Y:66 P:E5 SP:FB CYC:13684
E3A7  A2 00     LDX #$00                        A:44 X:8A Y:66 P:65 SP:FB CYC:13686
E3A9  9D 33 06  STA $0633,X @ 0633 = AA         A:44 X:00 Y:66 P:67 SP:FB CYC:13688
E3AC  AD 33 06  LDA $0633 = 44                  A:44 X:00 Y:66 P:67 SP:FB CYC:13693
E3AF  90 1A     BCC $E3CB                       A:44 X:00 Y:66 P:65 SP:FB CYC:13697
E3B1  C9 44     CMP #$44                        A:44 X:00 Y:66 P:65 SP:FB CYC:13699
E3B3  D0 16     BNE $E3CB                       A:44 X:00 Y:66 P:67 SP:FB CYC:13701
E3B5  50 14     BVC $E3CB                       A:44 X:00 Y:66 P:67 SP:FB CYC:13703
E3B7  18        CLC                             A:44 X:00 Y:66 P:67 SP:FB CYC:13705
E3B8  B8        CLV                             A:44 X:00 Y:66 P:66 SP:FB CYC:13707
E3B9  A9 99     LDA #$99                        A:44 X:00 Y:66 P:26 SP:FB CYC:13709
E3BB  A2 80     LDX #$80                        A:99 X:00 Y:66 P:A4 SP:FB CYC:13711
E3BD  9D 85 05  STA $0585,X @ 0605 = 00         A:99 X:80 Y:66 P:A4 SP:FB CYC:13713
E3C0  AD 05 06  LDA $0605 = 99                  A:99 X:80 Y:66 P:A4 SP:FB CYC:13718
E3C3  B0 06     BCS $E3CB                       A:99 X:80 Y:66 P:A4 SP:FB CYC:13722
E3C5  C9 99     CMP #$99                        A:99 X:80 Y:66 P:A4 SP:FB CYC:13724
E3C7  D0 02     BNE $E3CB                       A:99 X:80 Y:66 P:27 SP:FB CYC:13726
E3C9  50 04     BVC $E3CF                       A:99 X:80 Y:66 P:27 SP:FB CYC:13728
E3CF  A0 6D     LDY #$6D                        A:99 X:80 Y:66 P:27 SP:FB CYC:13730
E3D1  A2 6D     LDX #$6D                        A:99 X:80 Y:6D P:25 SP:FB CYC:13732
E3D3  20 90 F9  JSR $F990                       A:99 X:6D Y:6D P:25 SP:FB CYC:13734
F990  A2 55     LDX #$55                        A:99 X:6D Y:6D P:25 SP:F9 CYC:13740
F992  A9 FF     LDA #$FF                        A:99 X:55 Y:6D P:25 SP:F9 CYC:13742
F994  85 01     STA $01 = FF                    A:FF X:55 Y:6D P:A5 SP:F9 CYC:13744
F996  EA        NOP                             A:FF X:55 Y:6D P:A5 SP:F9 CYC:13747
F997  24 01     BIT $01 = FF                    A:FF X:55 Y:6D P:A5 SP:F9 CYC:13749
F999  38        SEC                             A:FF X:55 Y:6D P:E5 SP:F9 CYC:13752
F99A  A9 01     LDA #$01                        A:FF X:55 Y:6D P:E5 SP:F9 CYC:13754
F99C  60        RTS                             A:01 X:55 Y:6D P:65 SP:F9 CYC:13756
E3D6  9D 00 06  STA $0600,X @ 0655 = 00         A:01 X:55 Y:6D P:65 SP:FB CYC:13762
E3D9  5E 00 06  LSR $0600,X @ 0655 = 01         A:01 X:55 Y:6D P:65 SP:FB CYC:13767
E3DC  BD 00 06  LDA $0600,X @ 0655 = 00         A:01 X:55 Y:6D P:67 SP:FB CYC:13774
E3DF  20 9D F9  JSR $F99D                       A:00 X:55 Y:6D P:67 SP:FB CYC:13778
F99D  90 1B     BCC $F9BA                       A:00 X:55 Y:6D P:67 SP:F9 CYC:13784
F99F  D0 19     BNE $F9BA                       A:00 X:55 Y:6D P:67 SP:F9 CYC:13786
F9A1  30 17     BMI $F9BA                       A:00 X:55 Y:6D P:67 SP:F9 CYC:13788
F9A3  50 15     BVC $F9BA                       A:00 X:55 Y:6D P:67 SP:F9 CYC:13790
F9A5  C9 00     CMP #$00                        A:00 X:55 Y:6D P:67 SP:F9 CYC:13792
F9A7  D0 11     BNE $F9BA                       A:00 X:55 Y:6D P:67 SP:F9 CYC:13794
F9A9  B8        CLV                             A:00 X:55 Y:6D P:67 SP:F9 CYC:13796
F9AA  A9 AA     LDA #$AA                        A:00 X:55 Y:6D P:27 SP:F9 CYC:13798
F9AC  60        RTS                             A:AA X:55 Y:6D P:A5 SP:F9 CYC:13800
E3E2  C8        INY                             A:AA X:55 Y:6D P:A5 SP:FB CYC:13806
E3E3  9D 00 06  STA $0600,X @ 0655 = 00         A:AA X:55 Y:6E P:25 SP:FB CYC:13808
E3E6  5E 00 06  LSR $0600,X @ 0655 = AA         A:AA X:55 Y:6E P:25 SP:FB CYC:13813
E3E9  BD 00 06  LDA $0600,X @ 0655 = 55         A:AA X:55 Y:6E P:24 SP:FB CYC:13820
E3EC  20 AD F9  JSR $F9AD                       A:55 X:55 Y:6E P:24 SP:FB CYC:13824
F9AD  B0 0B     BCS $F9BA                       A:55 X:55 Y:6E P:24 SP:F9 CYC:13830
F9AF  F0 09     BEQ $F9BA                       A:55 X:55 Y:6E P:24 SP:F9 CYC:13832
F9B1  30 07     BMI $F9BA                       A:55 X:55 Y:6E P:24 SP:F9 CYC:13834
F9B3  70 05     BVS $F9BA                       A:55 X:55 Y:6E P:24 SP:F9 CYC:13836
F9B5  C9 55     CMP #$55                        A:55 X:55 Y:6E P:24 SP:F9 CYC:13838
F9B7  D0 01     BNE $F9BA                       A:55 X:55 Y:6E P:27 SP:F9 CYC:13840
F9B9  60        RTS                             A:55 X:55 Y:6E P:27 SP:F9 CYC:13842
E3EF  C8        INY                             A:55 X:55 Y:6E P:27 SP:FB CYC:13848
E3F0  20 BD F9  JSR $F9BD                       A:55 X:55 Y:6F P:25 SP:FB CYC:13850
F9BD  24 01     BIT $01 = FF                    A:55 X:55 Y:6F P:25 SP:F9 CYC:13856
F9BF  38        SEC                             A:55 X:55 Y:6F P:E5 SP:F9 CYC:13859
F9C0  A9 80     LDA #$80                        A:55 X:55 Y:6F P:E5 SP:F9 CYC:13861
F9C2  60        RTS                             A:80 X:55 Y:6F P:E5 SP:F9 CYC:13863
E3F3  9D 00 06  STA $0600,X @ 0655 = 55         A:80 X:55 Y:6F P:E5 SP:FB CYC:13869
E3F6  1E 00 06  ASL $0600,X @ 0655 = 80         A:80 X:55 Y:6F P:E5 SP:FB CYC:13874
E3F9  BD 00 06  LDA $0600,X @ 0655 = 00         A:80 X:55 Y:6F P:67 SP:FB CYC:13881
E3FC  20 C3 F9  JSR $F9C3                       A:00 X:55 Y:6F P:67 SP:FB CYC:13885
F9C3  90 1C     BCC $F9E1                       A:00 X:55 Y:6F P:67 SP:F9 CYC:13891
F9C5  D0 1A     BNE $F9E1                       A:00 X:55 Y:6F P:67 SP:F9 CYC:13893
F9C7  30 18     BMI $F9E1                       A:00 X:55 Y:6F P:67 SP:F9 CYC:13895
F9C9  50 16     BVC $F9E1                       A:00 X:55 Y:6F P:67 SP:F9 CYC:13897
F9CB  C9 00     CMP #$00                        A:00 X:55 Y:6F P:67 SP:F9 CYC:13899
F9CD  D0 12     BNE $F9E1                       A:00 X:55 Y:6F P:67 SP:F9 CYC:13901
F9CF  B8        CLV                             A:00 X:55 Y:6F P:67 SP:F9 CYC:13903
F9D0  A9 55     LDA #$55                        A:00 X:55 Y:6F P:27 SP:F9 CYC:13905
F9D2  38        SEC                             A:55 X:55 Y:6F P:25 SP:F9 CYC:13907
F9D3  60        RTS                             A:55 X:55 Y:6F P:25 SP:F9 CYC:13909
E3FF  C8        INY                             A:55 X:55 Y:6F P:25 SP:FB CYC:13915
E400  9D 00 06  STA $0600,X @ 0655 = 00         A:55 X:55 Y:70 P:25 SP:FB CYC:13917
E403  1E 00 06  ASL $0600,X @ 0655 = 55         A:55 X:55 Y:70 P:25 SP:FB CYC:13922
E406  BD 00 06  LDA $0600,X @ 0655 = AA         A:55 X:55 Y:70 P:A4 SP:FB CYC:13929
E409  20 D4 F9  JSR $F9D4                       A:AA X:55 Y:70 P:A4 SP:FB CYC:13933
F9D4  B0 0B     BCS $F9E1                       A:AA X:55 Y:70 P:A4 SP:F9 CYC:13939
F9D6  F0 09     BEQ $F9E1                       A:AA X:55 Y:70 P:A4 SP:F9 CYC:13941
F9D8  10 07     BPL $F9E1                       A:AA X:55 Y:70 P:A4 SP:F9 CYC:13943
F9DA  70 05     BVS $F9E1                       A:AA X:55 Y:70 P:A4 SP:F9 CYC:13945
F9DC  C9 AA     CMP #$AA                        A:AA X:55 Y:70 P:A4 SP:F9 CYC:13947
F9DE  D0 01     BNE $F9E1                       A:AA X:55 Y:70 P:27 SP:F9 CYC:13949
F9E0  60        RTS                             A:AA X:55 Y:70 P:27 SP:F9 CYC:13951
E40C  C8        INY                             A:AA X:55 Y:70 P:27 SP:FB CYC:13957
E40D  20 E4 F9  JSR $F9E4                       A:AA X:55 Y:71 P:25 SP:FB CYC:13959
F9E4  24 01     BIT $01 = FF                    A:AA X:55 Y:71 P:25 SP:F9 CYC:13965
F9E6  38        SEC                             A:AA X:55 Y:71 P:E5 SP:F9 CYC:13968
F9E7  A9 01     LDA #$01                        A:AA X:55 Y:71 P:E5 SP:F9 CYC:13970
F9E9  60        RTS                             A:01 X:55 Y:71 P:65 SP:F9 CYC:13972
E410  9D 00 06  STA $0600,X @ 0655 = AA         A:01 X:55 Y:71 P:65 SP:FB CYC:13978
E413  7E 00 06  ROR $0600,X @ 0655 = 01         A:01 X:55 Y:71 P:65 SP:FB CYC:13983
E416  BD 00 06  LDA $0600,X @ 0655 = 80         A:01 X:55 Y:71 P:E5 SP:FB CYC:13990
E419  20 EA F9  JSR $F9EA                       A:80 X:55 Y:71 P:E5 SP:FB CYC:13994
F9EA  90 1C     BCC $FA08                       A:80 X:55 Y:71 P:E5 SP:F9 CYC:14000
F9EC  F0 1A     BEQ $FA08                       A:80 X:55 Y:71 P:E5 SP:F9 CYC:14002
F9EE  10 18     BPL $FA08                       A:80 X:55 Y:71 P:E5 SP:F9 CYC:14004
F9F0  50 16     BVC $FA08                       A:80 X:55 Y:71 P:E5 SP:F9 CYC:14006
F9F2  C9 80     CMP #$80                        A:80 X:55 Y:71 P:E5 SP:F9 CYC:14008
F9F4  D0 12     BNE $FA08                       A:80 X:55 Y:71 P:67 SP:F9 CYC:14010
F9F6  B8        CLV                             A:80 X:55 Y:71 P:67 SP:F9 CYC:14012
F9F7  18        CLC                             A:80 X:55 Y:71 P:27 SP:F9 CYC:14014
F9F8  A9 55     LDA #$55                        A:80 X:55 Y:71 P:26 SP:F9 CYC:14016
F9FA  60        RTS                             A:55 X:55 Y:71 P:24 SP:F9 CYC:14018
E41C  C8        INY                             A:55 X:55 Y:71 P:24 SP:FB CYC:14024
E41D  9D 00 06  STA $0600,X @ 0655 = 80         A:55 X:55 Y:72 P:24 SP:FB CYC:14026
E420  7E 00 06  ROR $0600,X @ 0655 = 55         A:55 X:55 Y:72 P:24 SP:FB CYC:14031
E423  BD 00 06  LDA $0600,X @ 0655 = 2A         A:55 X:55 Y:72 P:25 SP:FB CYC:14038
E426  20 FB F9  JSR $F9FB                       A:2A X:55 Y:72 P:25 SP:FB CYC:14042
F9FB  90 0B     BCC $FA08                       A:2A X:55 Y:72 P:25 SP:F9 CYC:14048
F9FD  F0 09     BEQ $FA08                       A:2A X:55 Y:72 P:25 SP:F9 CYC:14050
F9FF  30 07     BMI $FA08                       A:2A X:55 Y:72 P:25 SP:F9 CYC:14052
FA01  70 05     BVS $FA08                       A:2A X:55 Y:72 P:25 SP:F9 CYC:14054
FA03  C9 2A     CMP #$2A                        A:2A X:55 Y:72 P:25 SP:F9 CYC:14056
FA05  D0 01     BNE $FA08                       A:2A X:55 Y:72 P:27 SP:F9 CYC:14058
FA07  60        RTS                             A:2A X:55 Y:72 P:27 SP:F9 CYC:14060
E429  C8        INY                             A:2A X:55 Y:72 P:27 SP:FB CYC:14066
E42A  20 0A FA  JSR $FA0A                       A:2A X:55 Y:73 P:25 SP:FB CYC:14068
FA0A  24 01     BIT $01 = FF                    A:2A X:55 Y:73 P:25 SP:F9 CYC:14074
FA0C  38        SEC                             A:2A X:55 Y:73 P:E5 SP:F9 CYC:14077
FA0D  A9 80     LDA #$80                        A:2A X:55 Y:73 P:E5 SP:F9 CYC:14079
FA0F  60        RTS                             A:80 X:55 Y:73 P:E5 SP:F9 CYC:14081
E42D  9D 00 06  STA $0600,X @ 0655 = 2A         A:80 X:55 Y:73 P:E5 SP:FB CYC:14087
E430  3E 00 06  ROL $0600,X @ 0655 = 80         A:80 X:55 Y:73 P:E5 SP:FB CYC:14092
E433  BD 00 06  LDA $0600,X @ 0655 = 01         A:80 X:55 Y:73 P:65 SP:FB CYC:14099
E436  20 10 FA  JSR $FA10                       A:01 X:55 Y:73 P:65 SP:FB CYC:14103
FA10  90 1C     BCC $FA2E                       A:01 X:55 Y:73 P:65 SP:F9 CYC:14109
FA12  F0 1A     BEQ $FA2E                       A:01 X:55 Y:73 P:65 SP:F9 CYC:14111
FA14  30 18     BMI $FA2E                       A:01 X:55 Y:73 P:65 SP:F9 CYC:14113
FA16  50 16     BVC $FA2E                       A:01 X:55 Y:73 P:65 SP:F9 CYC:14115
FA18  C9 01     CMP #$01                        A:01 X:55 Y:73 P:65 SP:F9 CYC:14117
FA1A  D0 12     BNE $FA2E                       A:01 X:55 Y:73 P:67 SP:F9 CYC:14119
FA1C  B8        CLV                             A:01 X:55 Y:73 P:67 SP:F9 CYC:14121
FA1D  18        CLC                             A:01 X:55 Y:73 P:27 SP:F9 CYC:14123
FA1E  A9 55     LDA #$55                        A:01 X:55 Y:73 P:26 SP:F9 CYC:14125
FA20  60        RTS                             A:55 X:55 Y:73 P:24 SP:F9 CYC:14127
E439  C8        INY                             A:55 X:55 Y:73 P:24 SP:FB CYC:14133
E43A  9D 00 06  STA $0600,X @ 0655 = 01         A:55 X:55 Y:74 P:24 SP:FB CYC:14135
E43D  3E 00 06  ROL $0600,X @ 0655 = 55         A:55 X:55 Y:74 P:24 SP:FB CYC:14140
E440  BD 00 06  LDA $0600,X @ 0655 = AA         A:55 X:55 Y:74 P:A4 SP:FB CYC:14147
E443  20 21 FA  JSR $FA21                       A:AA X:55 Y:74 P:A4 SP:FB CYC:14151
FA21  B0 0B     BCS $FA2E                       A:AA X:55 Y:74 P:A4 SP:F9 CYC:14157
FA23  F0 09     BEQ $FA2E                       A:AA X:55 Y:74 P:A4 SP:F9 CYC:14159
FA25  10 07     BPL $FA2E                       A:AA X:55 Y:74 P:A4 SP:F9 CYC:14161
FA27  70 05     BVS $FA2E                       A:AA X:55 Y:74 P:A4 SP:F9 CYC:14163
FA29  C9 AA     CMP #$AA                        A:AA X:55 Y:74 P:A4 SP:F9 CYC:14165
FA2B  D0 01     BNE $FA2E                       A:AA X:55 Y:74 P:27 SP:F9 CYC:14167
FA2D  60        RTS                             A:AA X:55 Y:74 P:27 SP:F9 CYC:14169
E446  A9 FF     LDA #$FF                        A:AA X:55 Y:74 P:27 SP:FB CYC:14175
E448  9D 00 06  STA $0600,X @ 0655 = AA         A:FF X:55 Y:74 P:A5 SP:FB CYC:14177
E44B  85 01     STA $01 = FF                    A:FF X:55 Y:74 P:A5 SP:FB CYC:14182
E44D  24 01     BIT $01 = FF                    A:FF X:55 Y:74 P:A5 SP:FB CYC:14185
E44F  38        SEC                             A:FF X:55 Y:74 P:E5 SP:FB CYC:14188
E450  FE 00 06  INC $0600,X @ 0655 = FF         A:FF X:55 Y:74 P:E5 SP:FB CYC:14190
E453  D0 0D     BNE $E462                       A:FF X:55 Y:74 P:67 SP:FB CYC:14197
E455  30 0B     BMI $E462                       A:FF X:55 Y:74 P:67 SP:FB CYC:14199
E457  50 09     BVC $E462                       A:FF X:55 Y:74 P:67 SP:FB CYC:14201
E459  90 07     BCC $E462                       A:FF X:55 Y:74 P:67 SP:FB CYC:14203
E45B  BD 00 06  LDA $0600,X @ 0655 = 00         A:FF X:55 Y:74 P:67 SP:FB CYC:14205
E45E  C9 00     CMP #$00                        A:00 X:55 Y:74 P:67 SP:FB CYC:14209
E460  F0 04     BEQ $E466                       A:00 X:55 Y:74 P:67 SP:FB CYC:14211
E466  A9 7F     LDA #$7F                        A:00 X:55 Y:74 P:67 SP:FB CYC:14213
E468  9D 00 06  STA $0600,X @ 0655 = 00         A:7F X:55 Y:74 P:65 SP:FB CYC:14215
E46B  B8        CLV                             A:7F X:55 Y:74 P:65 SP:FB CYC:14220
E46C  18        CLC                             A:7F X:55 Y:74 P:25 SP:FB CYC:14222
E46D  FE 00 06  INC $0600,X @ 0655 = 7F         A:7F X:55 Y:74 P:24 SP:FB CYC:14224
E470  F0 0D     BEQ $E47F                       A:7F X:55 Y:74 P:A4 SP:FB CYC:14231
E472  10 0B     BPL $E47F                       A:7F X:55 Y:74 P:A4 SP:FB CYC:14233
E474  70 09     BVS $E47F                       A:7F X:55 Y:74 P:A4 SP:FB CYC:14235
E476  B0 07     BCS $E47F                       A:7F X:55 Y:74 P:A4 SP:FB CYC:14237
E478  BD 00 06  LDA $0600,X @ 0655 = 80         A:7F X:55 Y:74 P:A4 SP:FB CYC:14239
E47B  C9 80     CMP #$80                        A:80 X:55 Y:74 P:A4 SP:FB CYC:14243
E47D  F0 04     BEQ $E483                       A:80 X:55 Y:74 P:27 SP:FB CYC:14245
E483  A9 00     LDA #$00                        A:80 X:55 Y:74 P:27 SP:FB CYC:14247
E485  9D 00 06  STA $0600,X @ 0655 = 80         A:00 X:55 Y:74 P:27 SP:FB CYC:14249
E488  24 01     BIT $01 = FF                    A:00 X:55 Y:74 P:27 SP:FB CYC:14254
E48A  38        SEC                             A:00 X:55 Y:74 P:E7 SP:FB CYC:14257
E48B  DE 00 06  DEC $0600,X @ 0655 = 00         A:00 X:55 Y:74 P:E7 SP:FB CYC:14259
E48E  F0 0D     BEQ $E49D                       A:00 X:55 Y:74 P:E5 SP:FB CYC:14266
E490  10 0B     BPL $E49D                       A:00 X:55 Y:74 P:E5 SP:FB CYC:14268
E492  50 09     BVC $E49D                       A:00 X:55 Y:74 P:E5 SP:FB CYC:14270
E494  90 07     BCC $E49D                       A:00 X:55 Y:74 P:E5 SP:FB CYC:14272
E496  BD 00 06  LDA $0600,X @ 0655 = FF         A:00 X:55 Y:74 P:E5 SP:FB CYC:14274
E499  C9 FF     CMP #$FF                        A:FF X:55 Y:74 P:E5 SP:FB CYC:14278
E49B  F0 04     BEQ $E4A1                       A:FF X:55 Y:74 P:67 SP:FB CYC:14280
E4A1  A9 80     LDA #$80                        A:FF X:55 Y:74 P:67 SP:FB CYC:14282
E4A3  9D 00 06  STA $0600,X @ 0655 = FF         A:80 X:55 Y:74 P:E5 SP:FB CYC:14284
E4A6  B8        CLV                             A:80 X:55 Y:74 P:E5 SP:FB CYC:14289
E4A7  18        CLC                             A:80 X:55 Y:74 P:A5 SP:FB CYC:14291
E4A8  DE 00 06  DEC $0600,X @ 0655 = 80         A:80 X:55 Y:74 P:A4 SP:FB CYC:14293
E4AB  F0 0D     BEQ $E4BA                       A:80 X:55 Y:74 P:24 SP:FB CYC:14300
E4AD  30 0B     BMI $E4BA                       A:80 X:55 Y:74 P:24 SP:FB CYC:14302
E4AF  70 09     BVS $E4BA                       A:80 X:55 Y:74 P:24 SP:FB CYC:14304
E4B1  B0 07     BCS $E4BA                       A:80 X:55 Y:74 P:24 SP:FB CYC:14306
E4B3  BD 00 06  LDA $0600,X @ 0655 = 7F         A:80 X:55 Y:74 P:24 SP:FB CYC:14308
E4B6  C9 7F     CMP #$7F                        A:7F X:55 Y:74 P:24 SP:FB CYC:14312
E4B8  F0 04     BEQ $E4BE                       A:7F X:55 Y:74 P:27 SP:FB CYC:14314
E4BE  A9 01     LDA #$01                        A:7F X:55 Y:74 P:27 SP:FB CYC:14316
E4C0  9D 00 06  STA $0600,X @ 0655 = 7F         A:01 X:55 Y:74 P:25 SP:FB CYC:14318
E4C3  DE 00 06  DEC $0600,X @ 0655 = 01         A:01 X:55 Y:74 P:25 SP:FB CYC:14323
E4C6  F0 04     BEQ $E4CC                       A:01 X:55 Y:74 P:27 SP:FB CYC:14330
E4CC  A9 33     LDA #$33                        A:01 X:55 Y:74 P:27 SP:FB CYC:14332
E4CE  8D 78 06  STA $0678 = 7F                  A:33 X:55 Y:74 P:25 SP:FB CYC:14334
E4D1  A9 44     LDA #$44                        A:33 X:55 Y:74 P:25 SP:FB CYC:14338
E4D3  A0 78     LDY #$78                        A:44 X:55 Y:74 P:25 SP:FB CYC:14340
E4D5  A2 00     LDX #$00                        A:44 X:55 Y:78 P:25 SP:FB CYC:14342
E4D7  38        SEC                             A:44 X:00 Y:78 P:27 SP:FB CYC:14344
E4D8  24 01     BIT $01 = FF                    A:44 X:00 Y:78 P:27 SP:FB CYC:14346
E4DA  BE 00 06  LDX $0600,Y @ 0678 = 33         A:44 X:00 Y:78 P:E5 SP:FB CYC:14349
E4DD  90 12     BCC $E4F1                       A:44 X:33 Y:78 P:65 SP:FB CYC:14353
E4DF  50 10     BVC $E4F1                       A:44 X:33 Y:78 P:65 SP:FB CYC:14355
E4E1  30 0E     BMI $E4F1                       A:44 X:33 Y:78 P:65 SP:FB CYC:14357
E4E3  F0 0C     BEQ $E4F1                       A:44 X:33 Y:78 P:65 SP:FB CYC:14359
E4E5  E0 33     CPX #$33                        A:44 X:33 Y:78 P:65 SP:FB CYC:14361
E4E7  D0 08     BNE $E4F1                       A:44 X:33 Y:78 P:67 SP:FB CYC:14363
E4E9  C0 78     CPY #$78                        A:44 X:33 Y:78 P:67 SP:FB CYC:14365
E4EB  D0 04     BNE $E4F1                       A:44 X:33 Y:78 P:67 SP:FB CYC:14367
E4ED  C9 44     CMP #$44                        A:44 X:33 Y:78 P:67 SP:FB CYC:14369
E4EF  F0 04     BEQ $E4F5                       A:44 X:33 Y:78 P:67 SP:FB CYC:14371
E4F5  A9 97     LDA #$97                        A:44 X:33 Y:78 P:67 SP:FB CYC:14373
E4F7  8D 7F 06  STA $067F = 00                  A:97 X:33 Y:78 P:E5 SP:FB CYC:14375
E4FA  A9 47     LDA #$47                        A:97 X:33 Y:78 P:E5 SP:FB CYC:14379
E4FC  A0 FF     LDY #$FF                        A:47 X:33 Y:78 P:65 SP:FB CYC:14381
E4FE  A2 00     LDX #$00                        A:47 X:33 Y:FF P:E5 SP:FB CYC:14383
E500  18        CLC                             A:47 X:00 Y:FF P:67 SP:FB CYC:14385
E501  B8        CLV                             A:47 X:00 Y:FF P:66 SP:FB CYC:14387
E502  BE 80 05  LDX $0580,Y @ 067F = 97         A:47 X:00 Y:FF P:26 SP:FB CYC:14389
E505  B0 12     BCS $E519                       A:47 X:97 Y:FF P:A4 SP:FB CYC:14393
E507  70 10     BVS $E519                       A:47 X:97 Y:FF P:A4 SP:FB CYC:14395
E509  10 0E     BPL $E519                       A:47 X:97 Y:FF P:A4 SP:FB CYC:14397
E50B  F0 0C     BEQ $E519                       A:47 X:97 Y:FF P:A4 SP:FB CYC:14399
E50D  E0 97     CPX #$97                        A:47 X:97 Y:FF P:A4 SP:FB CYC:14401
E50F  D0 08     BNE $E519                       A:47 X:97 Y:FF P:27 SP:FB CYC:14403
E511  C0 FF     CPY #$FF                        A:47 X:97 Y:FF P:27 SP:FB CYC:14405
E513  D0 04     BNE $E519                       A:47 X:97 Y:FF P:27 SP:FB CYC:14407
E515  C9 47     CMP #$47                        A:47 X:97 Y:FF P:27 SP:FB CYC:14409
E517  F0 04     BEQ $E51D                       A:47 X:97 Y:FF P:27 SP:FB CYC:14411
E51D  60        RTS                             A:47 X:97 Y:FF P:27 SP:FB CYC:14413
C62F  20 A3 C6  JSR $C6A3                       A:47 X:97 Y:FF P:27 SP:FD CYC:14419
C6A3  A0 4E     LDY #$4E                        A:47 X:97 Y:FF P:27 SP:FB CYC:14425
C6A5  A9 FF     LDA #$FF                        A:47 X:97 Y:4E P:25 SP:FB CYC:14427
C6A7  85 01     STA $01 = FF                    A:FF X:97 Y:4E P:A5 SP:FB CYC:14429
C6A9  20 B0 C6  JSR $C6B0                       A:FF X:97 Y:4E P:A5 SP:FB CYC:14432
C6B0  A9 FF     LDA #$FF                        A:FF X:97 Y:4E P:A5 SP:F9 CYC:14438
C6B2  48        PHA                             A:FF X:97 Y:4E P:A5 SP:F9 CYC:14440
C6B3  A9 AA     LDA #$AA                        A:FF X:97 Y:4E P:A5 SP:F8 CYC:14443
C6B5  D0 05     BNE $C6BC                       A:AA X:97 Y:4E P:A5 SP:F8 CYC:14445
C6BC  28        PLP                             A:AA X:97 Y:4E P:A5 SP:F8 CYC:14447
C6BD  04 A9    *NOP $A9 = 00                    A:AA X:97 Y:4E P:EF SP:F9 CYC:14451
C6BF  44 A9    *NOP $A9 = 00                    A:AA X:97 Y:4E P:EF SP:F9 CYC:14454
C6C1  64 A9    *NOP $A9 = 00                    A:AA X:97 Y:4E P:EF SP:F9 CYC:14457
C6C3  EA        NOP                             A:AA X:97 Y:4E P:EF SP:F9 CYC:14460
C6C4  EA        NOP                             A:AA X:97 Y:4E P:EF SP:F9 CYC:14462
C6C5  EA        NOP                             A:AA X:97 Y:4E P:EF SP:F9 CYC:14464
C6C6  EA        NOP                             A:AA X:97 Y:4E P:EF SP:F9 CYC:14466
C6C7  08        PHP                             A:AA X:97 Y:4E P:EF SP:F9 CYC:14468
C6C8  48        PHA                             A:AA X:97 Y:4E P:EF SP:F8 CYC:14471
C6C9  0C A9 A9 *NOP $A9A9 = A9                  A:AA X:97 Y:4E P:EF SP:F7 CYC:14474
C6CC  EA        NOP                             A:AA X:97 Y:4E P:EF SP:F7 CYC:14478
C6CD  EA        NOP                             A:AA X:97 Y:4E P:EF SP:F7 CYC:14480
C6CE  EA        NOP                             A:AA X:97 Y:4E P:EF SP:F7 CYC:14482
C6CF  EA        NOP                             A:AA X:97 Y:4E P:EF SP:F7 CYC:14484
C6D0  08        PHP                             A:AA X:97 Y:4E P:EF SP:F7 CYC:14486
C6D1  48        PHA                             A:AA X:97 Y:4E P:EF SP:F6 CYC:14489
C6D2  14 A9    *NOP $A9,X @ 40 = 00             A:AA X:97 Y:4E P:EF SP:F5 CYC:14492
C6D4  34 A9    *NOP $A9,X @ 40 = 00             A:AA X:97 Y:4E P:EF SP:F5 CYC:14496
C6D6  54 A9    *NOP $A9,X @ 40 = 00             A:AA X:97 Y:4E P:EF SP:F5 CYC:14500
C6D8  74 A9    *NOP $A9,X @ 40 = 00             A:AA X:97 Y:4E P:EF SP:F5 CYC:14504
C6DA  D4 A9    *NOP $A9,X @ 40 = 00             A:AA X:97 Y:4E P:EF SP:F5 CYC:14508
C6DC  F4 A9    *NOP $A9,X @ 40 = 00             A:AA X:97 Y:4E P:EF SP:F5 CYC:14512
C6DE  EA        NOP                             A:AA X:97 Y:4E P:EF SP:F5 CYC:14516
C6DF  EA        NOP                             A:AA X:97 Y:4E P:EF SP:F5 CYC:14518
C6E0  EA        NOP                             A:AA X:97 Y:4E P:EF SP:F5 CYC:14520
C6E1  EA        NOP                             A:AA X:97 Y:4E P:EF SP:F5 CYC:14522
C6E2  08        PHP                             A:AA X:97 Y:4E P:EF SP:F5 CYC:14524
C6E3  48        PHA                             A:AA X:97 Y:4E P:EF SP:F4 CYC:14527
C6E4  1A       *NOP                             A:AA X:97 Y:4E P:EF SP:F3 CYC:14530
C6E5  3A       *NOP                             A:AA X:97 Y:4E P:EF SP:F3 CYC:14532
C6E6  5A       *NOP                             A:AA X:97 Y:4E P:EF SP:F3 CYC:14534
C6E7  7A       *NOP                             A:AA X:97 Y:4E P:EF SP:F3 CYC:14536
C6E8  DA       *NOP                             A:AA X:97 Y:4E P:EF SP:F3 CYC:14538
C6E9  FA       *NOP                             A:AA X:97 Y:4E P:EF SP:F3 CYC:14540
C6EA  80 89    *NOP #$89                        A:AA X:97 Y:4E P:EF SP:F3 CYC:14542
C6EC  EA        NOP                             A:AA X:97 Y:4E P:EF SP:F3 CYC:14544
C6ED  EA        NOP                             A:AA X:97 Y:4E P:EF SP:F3 CYC:14546
C6EE  EA        NOP                             A:AA X:97 Y:4E P:EF SP:F3 CYC:14548
C6EF  EA        NOP                             A:AA X:97 Y:4E P:EF SP:F3 CYC:14550
C6F0  08        PHP                             A:AA X:97 Y:4E P:EF SP:F3 CYC:14552
C6F1  48        PHA                             A:AA X:97 Y:4E P:EF SP:F2 CYC:14555
C6F2  1C A9 A9 *NOP $A9A9,X @ AA40 = 00         A:AA X:97 Y:4E P:EF SP:F1 CYC:14558
C6F5  3C A9 A9 *NOP $A9A9,X @ AA40 = 00         A:AA X:97 Y:4E P:EF SP:F1 CYC:14562
C6F8  5C A9 A9 *NOP $A9A9,X @ AA40 = 00         A:AA X:97 Y:4E P:EF SP:F1 CYC:14566
C6FB  7C A9 A9 *NOP $A9A9,X @ AA40 = 00         A:AA X:97 Y:4E P:EF SP:F1 CYC:14570
C6FE  DC A9 A9 *NOP $A9A9,X @ AA40 = 00         A:AA X:97 Y:4E P:EF SP:F1 CYC:14574
C701  FC A9 A9 *NOP $A9A9,X @ AA40 = 00         A:AA X:97 Y:4E P:EF SP:F1 CYC:14578
C704  EA        NOP                             A:AA X:97 Y:4E P:EF SP:F1 CYC:14582
C705  EA        NOP                             A:AA X:97 Y:4E P:EF SP:F1 CYC:14584
C706  EA        NOP                             A:AA X:97 Y:4E P:EF SP:F1 CYC:14586
C707  EA        NOP                             A:AA X:97 Y:4E P:EF SP:F1 CYC:14588
C708  08        PHP                             A:AA X:97 Y:4E P:EF SP:F1 CYC:14590
C709  48        PHA                             A:AA X:97 Y:4E P:EF SP:F0 CYC:14593
C70A  A2 05     LDX #$05                        A:AA X:97 Y:4E P:EF SP:EF CYC:14596
C70C  68        PLA                             A:AA X:05 Y:4E P:6D SP:EF CYC:14598
C70D  C9 55     CMP #$55                        A:AA X:05 Y:4E P:ED SP:F0 CYC:14602
C70F  F0 0A     BEQ $C71B                       A:AA X:05 Y:4E P:6D SP:F0 CYC:14604
C711  C9 AA     CMP #$AA                        A:AA X:05 Y:4E P:6D SP:F0 CYC:14606
C713  F0 06     BEQ $C71B                       A:AA X:05 Y:4E P:6F SP:F0 CYC:14608
C71B  68        PLA                             A:AA X:05 Y:4E P:6F SP:F0 CYC:14610
C71C  29 CB     AND #$CB                        A:FF X:05 Y:4E P:ED SP:F1 CYC:14614
C71E  C9 00     CMP #$00                        A:CB X:05 Y:4E P:ED SP:F1 CYC:14616
C720  F0 06     BEQ $C728                       A:CB X:05 Y:4E P:ED SP:F1 CYC:14618
C722  C9 CB     CMP #$CB                        A:CB X:05 Y:4E P:ED SP:F1 CYC:14620
C724  F0 02     BEQ $C728                       A:CB X:05 Y:4E P:6F SP:F1 CYC:14622
C728  C8        INY                             A:CB X:05 Y:4E P:6F SP:F1 CYC:14624
C729  CA        DEX                             A:CB X:05 Y:4F P:6D SP:F1 CYC:14626
C72A  D0 E0     BNE $C80C                       A:CB X:04 Y:4F P:6D SP:F1 CYC:14628
C70C  68        PLA                             A:CB X:04 Y:4F P:6D SP:F1 CYC:14630
C70D  C9 55     CMP #$55                        A:AA X:04 Y:4F P:ED SP:F2 CYC:14634
C70F  F0 0A     BEQ $C71B                       A:AA X:04 Y:4F P:6D SP:F2 CYC:14636
C711  C9 AA     CMP #$AA                        A:AA X:04 Y:4F P:6D SP:F2 CYC:14638
C713  F0 06     BEQ $C71B                       A:AA X:04 Y:4F P:6F SP:F2 CYC:14640
C71B  68        PLA                             A:AA X:04 Y:4F P:6F SP:F2 CYC:14642
C71C  29 CB     AND #$CB                        A:FF X:04 Y:4F P:ED SP:F3 CYC:14646
C71E  C9 00     CMP #$00                        A:CB X:04 Y:4F P:ED SP:F3 CYC:14648
C720  F0 06     BEQ $C728                       A:CB X:04 Y:4F P:ED SP:F3 CYC:14650
C722  C9 CB     CMP #$CB                        A:CB X:04 Y:4F P:ED SP:F3 CYC:14652
C724  F0 02     BEQ $C728                       A:CB X:04 Y:4F P:6F SP:F3 CYC:14654
C728  C8        INY                             A:CB X:04 Y:4F P:6F SP:F3 CYC:14656
C729  CA        DEX                             A:CB X:04 Y:50 P:6D SP:F3 CYC:14658
C72A  D0 E0     BNE $C80C                       A:CB X:03 Y:50 P:6D SP:F3 CYC:14660
C70C  68        PLA                             A:CB X:03 Y:50 P:6D SP:F3 CYC:14662
C70D  C9 55     CMP #$55                        A:AA X:03 Y:50 P:ED SP:F4 CYC:14666
C70F  F0 0A     BEQ $C71B                       A:AA X:03 Y:50 P:6D SP:F4 CYC:14668
C711  C9 AA     CMP #$AA                        A:AA X:03 Y:50 P:6D SP:F4 CYC:14670
C713  F0 06     BEQ $C71B                       A:AA X:03 Y:50 P:6F SP:F4 CYC:14672
C71B  68        PLA                             A:AA X:03 Y:50 P:6F SP:F4 CYC:14674
C71C  29 CB     AND #$CB                        A:FF X:03 Y:50 P:ED SP:F5 CYC:14678
C71E  C9 00     CMP #$00                        A:CB X:03 Y:50 P:ED SP:F5 CYC:14680
C720  F0 06     BEQ $C728                       A:CB X:03 Y:50 P:ED SP:F5 CYC:14682
C722  C9 CB     CMP #$CB                        A:CB X:03 Y:50 P:ED SP:F5 CYC:14684
C724  F0 02     BEQ $C728                       A:CB X:03 Y:50 P:6F SP:F5 CYC:14686
C728  C8        INY                             A:CB X:03 Y:50 P:6F SP:F5 CYC:14688
C729  CA        DEX                             A:CB X:03 Y:51 P:6D SP:F5 CYC:14690
C72A  D0 E0     BNE $C80C                       A:CB X:02 Y:51 P:6D SP:F5 CYC:14692
C70C  68        PLA                             A:CB X:02 Y:51 P:6D SP:F5 CYC:14694
C70D  C9 55     CMP #$55                        A:AA X:02 Y:51 P:ED SP:F6 CYC:14698
C70F  F0 0A     BEQ $C71B                       A:AA X:02 Y:51 P:6D SP:F6 CYC:14700
C711  C9 AA     CMP #$AA                        A:AA X:02 Y:51 P:6D SP:F6 CYC:14702
C713  F0 06     BEQ $C71B                       A:AA X:02 Y:51 P:6F SP:F6 CYC:14704
C71B  68        PLA                             A:AA X:02 Y:51 P:6F SP:F6 CYC:14706
C71C  29 CB     AND #$CB                        A:FF X:02 Y:51 P:ED SP:F7 CYC:14710
C71E  C9 00     CMP #$00                        A:CB X:02 Y:51 P:ED SP:F7 CYC:14712
C720  F0 06     BEQ $C728                       A:CB X:02 Y:51 P:ED SP:F7 CYC:14714
C722  C9 CB     CMP #$CB                        A:CB X:02 Y:51 P:ED SP:F7 CYC:14716
C724  F0 02     BEQ $C728                       A:CB X:02 Y:51 P:6F SP:F7 CYC:14718
C728  C8        INY                             A:CB X:02 Y:51 P:6F SP:F7 CYC:14720
C729  CA        DEX                             A:CB X:02 Y:52 P:6D SP:F7 CYC:14722
C72A  D0 E0     BNE $C80C                       A:CB X:01 Y:52 P:6D SP:F7 CYC:14724
C70C  68        PLA                             A:CB X:01 Y:52 P:6D SP:F7 CYC:14726
C70D  C9 55     CMP #$55                        A:AA X:01 Y:52 P:ED SP:F8 CYC:14730
C70F  F0 0A     BEQ $C71B                       A:AA X:01 Y:52 P:6D SP:F8 CYC:14732
C711  C9 AA     CMP #$AA                        A:AA X:01 Y:52 P:6D SP:F8 CYC:14734
C713  F0 06     BEQ $C71B                       A:AA X:01 Y:52 P:6F SP:F8 CYC:14736
C71B  68        PLA                             A:AA X:01 Y:52 P:6F SP:F8 CYC:14738
C71C  29 CB     AND #$CB                        A:FF X:01 Y:52 P:ED SP:F9 CYC:14742
C71E  C9 00     CMP #$00                        A:CB X:01 Y:52 P:ED SP:F9 CYC:14744
C720  F0 06     BEQ $C728                       A:CB X:01 Y:52 P:ED SP:F9 CYC:14746
C722  C9 CB     CMP #$CB                        A:CB X:01 Y:52 P:ED SP:F9 CYC:14748
C724  F0 02     BEQ $C728                       A:CB X:01 Y:52 P:6F SP:F9 CYC:14750
C728  C8        INY                             A:CB X:01 Y:52 P:6F SP:F9 CYC:14752
C729  CA        DEX                             A:CB X:01 Y:53 P:6D SP:F9 CYC:14754
C72A  D0 E0     BNE $C80C                       A:CB X:00 Y:53 P:6F SP:F9 CYC:14756
C72C  60        RTS                             A:CB X:00 Y:53 P:6F SP:F9 CYC:14758
C6AC  20 B7 C6  JSR $C6B7                       A:CB X:00 Y:53 P:6F SP:FB CYC:14764
C6B7  A9 34     LDA #$34                        A:CB X:00 Y:53 P:6F SP:F9 CYC:14770
C6B9  48        PHA                             A:34 X:00 Y:53 P:6D SP:F9 CYC:14772
C6BA  A9 55     LDA #$55                        A:34 X:00 Y:53 P:6D SP:F8 CYC:14775
C6BC  28        PLP                             A:55 X:00 Y:53 P:6D SP:F8 CYC:14777
C6BD  04 A9    *NOP $A9 = 00                    A:55 X:00 Y:53 P:24 SP:F9 CYC:14781
C6BF  44 A9    *NOP $A9 = 00                    A:55 X:00 Y:53 P:24 SP:F9 CYC:14784
C6C1  64 A9    *NOP $A9 = 00                    A:55 X:00 Y:53 P:24 SP:F9 CYC:14787
C6C3  EA        NOP                             A:55 X:00 Y:53 P:24 SP:F9 CYC:14790
C6C4  EA        NOP                             A:55 X:00 Y:53 P:24 SP:F9 CYC:14792
C6C5  EA        NOP                             A:55 X:00 Y:53 P:24 SP:F9 CYC:14794
C6C6  EA        NOP                             A:55 X:00 Y:53 P:24 SP:F9 CYC:14796
C6C7  08        PHP                             A:55 X:00 Y:53 P:24 SP:F9 CYC:14798
C6C8  48        PHA                             A:55 X:00 Y:53 P:24 SP:F8 CYC:14801
C6C9  0C A9 A9 *NOP $A9A9 = A9                  A:55 X:00 Y:53 P:24 SP:F7 CYC:14804
C6CC  EA        NOP                             A:55 X:00 Y:53 P:24 SP:F7 CYC:14808
C6CD  EA        NOP                             A:55 X:00 Y:53 P:24 SP:F7 CYC:14810
C6CE  EA        NOP                             A:55 X:00 Y:53 P:24 SP:F7 CYC:14812
C6CF  EA        NOP                             A:55 X:00 Y:53 P:24 SP:F7 CYC:14814
C6D0  08        PHP                             A:55 X:00 Y:53 P:24 SP:F7 CYC:14816
C6D1  48        PHA                             A:55 X:00 Y:53 P:24 SP:F6 CYC:14819
C6D2  14 A9    *NOP $A9,X @ A9 = 00             A:55 X:00 Y:53 P:24 SP:F5 CYC:14822
C6D4  34 A9    *NOP $A9,X @ A9 = 00             A:55 X:00 Y:53 P:24 SP:F5 CYC:14826
C6D6  54 A9    *NOP $A9,X @ A9 = 00             A:55 X:00 Y:53 P:24 SP:F5 CYC:14830
C6D8  74 A9    *NOP $A9,X @ A9 = 00             A:55 X:00 Y:53 P:24 SP:F5 CYC:14834
C6DA  D4 A9    *NOP $A9,X @ A9 = 00             A:55 X:00 Y:53 P:24 SP:F5 CYC:14838
C6DC  F4 A9    *NOP $A9,X @ A9 = 00             A:55 X:00 Y:53 P:24 SP:F5 CYC:14842
C6DE  EA        NOP                             A:55 X:00 Y:53 P:24 SP:F5 CYC:14846
C6DF  EA        NOP                             A:55 X:00 Y:53 P:24 SP:F5 CYC:14848
C6E0  EA        NOP                             A:55 X:00 Y:53 P:24 SP:F5 CYC:14850
C6E1  EA        NOP                             A:55 X:00 Y:53 P:24 SP:F5 CYC:14852
C6E2  08        PHP                             A:55 X:00 Y:53 P:24 SP:F5 CYC:14854
C6E3  48        PHA                             A:55 X:00 Y:53 P:24 SP:F4 CYC:14857
C6E4  1A       *NOP                             A:55 X:00 Y:53 P:24 SP:F3 CYC:14860
C6E5  3A       *NOP                             A:55 X:00 Y:53 P:24 SP:F3 CYC:14862
C6E6  5A       *NOP                             A:55 X:00 Y:53 P:24 SP:F3 CYC:14864
C6E7  7A       *NOP                             A:55 X:00 Y:53 P:24 SP:F3 CYC:14866
C6E8  DA       *NOP                             A:55 X:00 Y:53 P:24 SP:F3 CYC:14868
C6E9  FA       *NOP                             A:55 X:00 Y:53 P:24 SP:F3 CYC:14870
C6EA  80 89    *NOP #$89                        A:55 X:00 Y:53 P:24 SP:F3 CYC:14872
C6EC  EA        NOP                             A:55 X:00 Y:53 P:24 SP:F3 CYC:14874
C6ED  EA        NOP                             A:55 X:00 Y:53 P:24 SP:F3 CYC:14876
C6EE  EA        NOP                             A:55 X:00 Y:53 P:24 SP:F3 CYC:14878
C6EF  EA        NOP                             A:55 X:00 Y:53 P:24 SP:F3 CYC:14880
C6F0  08        PHP                             A:55 X:00 Y:53 P:24 SP:F3 CYC:14882
C6F1  48        PHA                             A:55 X:00 Y:53 P:24 SP:F2 CYC:14885
C6F2  1C A9 A9 *NOP $A9A9,X @ A9A9 = A9         A:55 X:00 Y:53 P:24 SP:F1 CYC:14888
C6F5  3C A9 A9 *NOP $A9A9,X @ A9A9 = A9         A:55 X:00 Y:53 P:24 SP:F1 CYC:14892
C6F8  5C A9 A9 *NOP $A9A9,X @ A9A9 = A9         A:55 X:00 Y:53 P:24 SP:F1 CYC:14896
C6FB  7C A9 A9 *NOP $A9A9,X @ A9A9 = A9         A:55 X:00 Y:53 P:24 SP:F1 CYC:14900
C6FE  DC A9 A9 *NOP $A9A9,X @ A9A9 = A9         A:55 X:00 Y:53 P:24 SP:F1 CYC:14904
C701  FC A9 A9 *NOP $A9A9,X @ A9A9 = A9         A:55 X:00 Y:53 P:24 SP:F1 CYC:14908
C704  EA        NOP                             A:55 X:00 Y:53 P:24 SP:F1 CYC:14912
C705  EA        NOP                             A:55 X:00 Y:53 P:24 SP:F1 CYC:14914
C706  EA        NOP                             A:55 X:00 Y:53 P:24 SP:F1 CYC:14916
C707  EA        NOP                             A:55 X:00 Y:53 P:24 SP:F1 CYC:14918
C708  08        PHP                             A:55 X:00 Y:53 P:24 SP:F1 CYC:14920
C709  48        PHA                             A:55 X:00 Y:53 P:24 SP:F0 CYC:14923
C70A  A2 05     LDX #$05                        A:55 X:00 Y:53 P:24 SP:EF CYC:14926
C70C  68        PLA                             A:55 X:05 Y:53 P:24 SP:EF CYC:14928
C70D  C9 55     CMP #$55                        A:55 X:05 Y:53 P:24 SP:F0 CYC:14932
C70F  F0 0A     BEQ $C71B                       A:55 X:05 Y:53 P:27 SP:F0 CYC:14934
C71B  68        PLA                             A:55 X:05 Y:53 P:27 SP:F0 CYC:14936
C71C  29 CB     AND #$CB                        A:34 X:05 Y:53 P:25 SP:F1 CYC:14940
C71E  C9 00     CMP #$00                        A:00 X:05 Y:53 P:27 SP:F1 CYC:14942
C720  F0 06     BEQ $C728                       A:00 X:05 Y:53 P:27 SP:F1 CYC:14944
C728  C8        INY                             A:00 X:05 Y:53 P:27 SP:F1 CYC:14946
C729  CA        DEX                             A:00 X:05 Y:54 P:25 SP:F1 CYC:14948
C72A  D0 E0     BNE $C80C                       A:00 X:04 Y:54 P:25 SP:F1 CYC:14950
C70C  68        PLA                             A:00 X:04 Y:54 P:25 SP:F1 CYC:14952
C70D  C9 55     CMP #$55                        A:55 X:04 Y:54 P:25 SP:F2 CYC:14956
C70F  F0 0A     BEQ $C71B                       A:55 X:04 Y:54 P:27 SP:F2 CYC:14958
C71B  68        PLA                             A:55 X:04 Y:54 P:27 SP:F2 CYC:14960
C71C  29 CB     AND #$CB                        A:34 X:04 Y:54 P:25 SP:F3 CYC:14964
C71E  C9 00     CMP #$00                        A:00 X:04 Y:54 P:27 SP:F3 CYC:14966
C720  F0 06     BEQ $C728                       A:00 X:04 Y:54 P:27 SP:F3 CYC:14968
C728  C8        INY                             A:00 X:04 Y:54 P:27 SP:F3 CYC:14970
C729  CA        DEX                             A:00 X:04 Y:55 P:25 SP:F3 CYC:14972
C72A  D0 E0     BNE $C80C                       A:00 X:03 Y:55 P:25 SP:F3 CYC:14974
C70C  68        PLA                             A:00 X:03 Y:55 P:25 SP:F3 CYC:14976
C70D  C9 55     CMP #$55                        A:55 X:03 Y:55 P:25 SP:F4 CYC:14980
C70F  F0 0A     BEQ $C71B                       A:55 X:03 Y:55 P:27 SP:F4 CYC:14982
C71B  68        PLA                             A:55 X:03 Y:55 P:27 SP:F4 CYC:14984
C71C  29 CB     AND #$CB                        A:34 X:03 Y:55 P:25 SP:F5 CYC:14988
C71E  C9 00     CMP #$00                        A:00 X:03 Y:55 P:27 SP:F5 CYC:14990
C720  F0 06     BEQ $C728                       A:00 X:03 Y:55 P:27 SP:F5 CYC:14992
C728  C8        INY                             A:00 X:03 Y:55 P:27 SP:F5 CYC:14994
C729  CA        DEX                             A:00 X:03 Y:56 P:25 SP:F5 CYC:14996
C72A  D0 E0     BNE $C80C                       A:00 X:02 Y:56 P:25 SP:F5 CYC:14998
C70C  68        PLA                             A:00 X:02 Y:56 P:25 SP:F5 CYC:15000
C70D  C9 55     CMP #$55                        A:55 X:02 Y:56 P:25 SP:F6 CYC:15004
C70F  F0 0A     BEQ $C71B                       A:55 X:02 Y:56 P:27 SP:F6 CYC:15006
C71B  68        PLA                             A:55 X:02 Y:56 P:27 SP:F6 CYC:15008
C71C  29 CB     AND #$CB                        A:34 X:02 Y:56 P:25 SP:F7 CYC:15012
C71E  C9 00     CMP #$00                        A:00 X:02 Y:56 P:27 SP:F7 CYC:15014
C720  F0 06     BEQ $C728                       A:00 X:02 Y:56 P:27 SP:F7 CYC:15016
C728  C8        INY                             A:00 X:02 Y:56 P:27 SP:F7 CYC:15018
C729  CA        DEX                             A:00 X:02 Y:57 P:25 SP:F7 CYC:15020
C72A  D0 E0     BNE $C80C                       A:00 X:01 Y:57 P:25 SP:F7 CYC:15022
C70C  68        PLA                             A:00 X:01 Y:57 P:25 SP:F7 CYC:15024
C70D  C9 55     CMP #$55                        A:55 X:01 Y:57 P:25 SP:F8 CYC:15028
C70F  F0 0A     BEQ $C71B                       A:55 X:01 Y:57 P:27 SP:F8 CYC:15030
C71B  68        PLA                             A:55 X:01 Y:57 P:27 SP:F8 CYC:15032
C71C  29 CB     AND #$CB                        A:34 X:01 Y:57 P:25 SP:F9 CYC:15036
C71E  C9 00     CMP #$00                        A:00 X:01 Y:57 P:27 SP:F9 CYC:15038
C720  F0 06     BEQ $C728                       A:00 X:01 Y:57 P:27 SP:F9 CYC:15040
C728  C8        INY                             A:00 X:01 Y:57 P:27 SP:F9 CYC:15042
C729  CA        DEX                             A:00 X:01 Y:58 P:25 SP:F9 CYC:15044
C72A  D0 E0     BNE $C80C                       A:00 X:00 Y:58 P:27 SP:F9 CYC:15046
C72C  60        RTS                             A:00 X:00 Y:58 P:27 SP:F9 CYC:15048
C6AF  60        RTS                             A:00 X:00 Y:58 P:27 SP:FB CYC:15054
C632  20 1E E5  JSR $E51E                       A:00 X:00 Y:58 P:27 SP:FD CYC:15060
E51E  A9 55     LDA #$55                        A:00 X:00 Y:58 P:27 SP:FB CYC:15066
E520  8D 80 05  STA $0580 = 00                  A:55 X:00 Y:58 P:25 SP:FB CYC:15068
E523  A9 AA     LDA #$AA                        A:55 X:00 Y:58 P:25 SP:FB CYC:15072
E525  8D 32 04  STA $0432 = 00                  A:AA X:00 Y:58 P:A5 SP:FB CYC:15074
E528  A9 80     LDA #$80                        A:AA X:00 Y:58 P:A5 SP:FB CYC:15078
E52A  85 43     STA $43 = 00                    A:80 X:00 Y:58 P:A5 SP:FB CYC:15080
E52C  A9 05     LDA #$05                        A:80 X:00 Y:58 P:A5 SP:FB CYC:15083
E52E  85 44     STA $44 = 00                    A:05 X:00 Y:58 P:25 SP:FB CYC:15085
E530  A9 32     LDA #$32                        A:05 X:00 Y:58 P:25 SP:FB CYC:15088
E532  85 45     STA $45 = 00                    A:32 X:00 Y:58 P:25 SP:FB CYC:15090
E534  A9 04     LDA #$04                        A:32 X:00 Y:58 P:25 SP:FB CYC:15093
E536  85 46     STA $46 = 00                    A:04 X:00 Y:58 P:25 SP:FB CYC:15095
E538  A2 03     LDX #$03                        A:04 X:00 Y:58 P:25 SP:FB CYC:15098
E53A  A0 77     LDY #$77                        A:04 X:03 Y:58 P:25 SP:FB CYC:15100
E53C  A9 FF     LDA #$FF                        A:04 X:03 Y:77 P:25 SP:FB CYC:15102
E53E  85 01     STA $01 = FF                    A:FF X:03 Y:77 P:A5 SP:FB CYC:15104
E540  24 01     BIT $01 = FF                    A:FF X:03 Y:77 P:A5 SP:FB CYC:15107
E542  38        SEC                             A:FF X:03 Y:77 P:E5 SP:FB CYC:15110
E543  A9 00     LDA #$00                        A:FF X:03 Y:77 P:E5 SP:FB CYC:15112
E545  A3 40    *LAX ($40,X) @ 43 = 0580 = 55    A:00 X:03 Y:77 P:67 SP:FB CYC:15114
E547  EA        NOP                             A:55 X:55 Y:77 P:65 SP:FB CYC:15120
E548  EA        NOP                             A:55 X:55 Y:77 P:65 SP:FB CYC:15122
E549  EA        NOP                             A:55 X:55 Y:77 P:65 SP:FB CYC:15124
E54A  EA        NOP                             A:55 X:55 Y:77 P:65 SP:FB CYC:15126
E54B  F0 12     BEQ $E55F                       A:55 X:55 Y:77 P:65 SP:FB CYC:15128
E54D  30 10     BMI $E55F                       A:55 X:55 Y:77 P:65 SP:FB CYC:15130
E54F  50 0E     BVC $E55F                       A:55 X:55 Y:77 P:65 SP:FB CYC:15132
E551  90 0C     BCC $E55F                       A:55 X:55 Y:77 P:65 SP:FB CYC:15134
E553  C9 55     CMP #$55                        A:55 X:55 Y:77 P:65 SP:FB CYC:15136
E555  D0 08     BNE $E55F                       A:55 X:55 Y:77 P:67 SP:FB CYC:15138
E557  E0 55     CPX #$55                        A:55 X:55 Y:77 P:67 SP:FB CYC:15140
E559  D0 04     BNE $E55F                       A:55 X:55 Y:77 P:67 SP:FB CYC:15142
E55B  C0 77     CPY #$77                        A:55 X:55 Y:77 P:67 SP:FB CYC:15144
E55D  F0 04     BEQ $E563                       A:55 X:55 Y:77 P:67 SP:FB CYC:15146
E563  A2 05     LDX #$05                        A:55 X:55 Y:77 P:67 SP:FB CYC:15148
E565  A0 33     LDY #$33                        A:55 X:05 Y:77 P:65 SP:FB CYC:15150
E567  B8        CLV                             A:55 X:05 Y:33 P:65 SP:FB CYC:15152
E568  18        CLC                             A:55 X:05 Y:33 P:25 SP:FB CYC:15154
E569  A9 00     LDA #$00                        A:55 X:05 Y:33 P:24 SP:FB CYC:15156
E56B  A3 40    *LAX ($40,X) @ 45 = 0432 = AA    A:00 X:05 Y:33 P:26 SP:FB CYC:15158
E56D  EA        NOP                             A:AA X:AA Y:33 P:A4 SP:FB CYC:15164
E56E  EA        NOP                             A:AA X:AA Y:33 P:A4 SP:FB CYC:15166
E56F  EA        NOP                             A:AA X:AA Y:33 P:A4 SP:FB CYC:15168
E570  EA        NOP                             A:AA X:AA Y:33 P:A4 SP:FB CYC:15170
E571  F0 12     BEQ $E585                       A:AA X:AA Y:33 P:A4 SP:FB CYC:15172
E573  10 10     BPL $E585                       A:AA X:AA Y:33 P:A4 SP:FB CYC:15174
E575  70 0E     BVS $E585                       A:AA X:AA Y:33 P:A4 SP:FB CYC:15176
E577  B0 0C     BCS $E585                       A:AA X:AA Y:33 P:A4 SP:FB CYC:15178
E579  C9 AA     CMP #$AA                        A:AA X:AA Y:33 P:A4 SP:FB CYC:15180
E57B  D0 08     BNE $E585                       A:AA X:AA Y:33 P:27 SP:FB CYC:15182
E57D  E0 AA     CPX #$AA                        A:AA X:AA Y:33 P:27 SP:FB CYC:15184
E57F  D0 04     BNE $E585                       A:AA X:AA Y:33 P:27 SP:FB CYC:15186
E581  C0 33     CPY #$33                        A:AA X:AA Y:33 P:27 SP:FB CYC:15188
E583  F0 04     BEQ $E589                       A:AA X:AA Y:33 P:27 SP:FB CYC:15190
E589  A9 87     LDA #$87                        A:AA X:AA Y:33 P:27 SP:FB CYC:15192
E58B  85 67     STA $67 = 00                    A:87 X:AA Y:33 P:A5 SP:FB CYC:15194
E58D  A9 32     LDA #$32                        A:87 X:AA Y:33 P:A5 SP:FB CYC:15197
E58F  85 68     STA $68 = 00                    A:32 X:AA Y:33 P:25 SP:FB CYC:15199
E591  A0 57     LDY #$57                        A:32 X:AA Y:33 P:25 SP:FB CYC:15202
E593  24 01     BIT $01 = FF                    A:32 X:AA Y:57 P:25 SP:FB CYC:15204
E595  38        SEC                             A:32 X:AA Y:57 P:E5 SP:FB CYC:15207
E596  A9 00     LDA #$00                        A:32 X:AA Y:57 P:E5 SP:FB CYC:15209
E598  A7 67    *LAX $67 = 87                    A:00 X:AA Y:57 P:67 SP:FB CYC:15211
E59A  EA        NOP                             A:87 X:87 Y:57 P:E5 SP:FB CYC:15214
E59B  EA        NOP                             A:87 X:87 Y:57 P:E5 SP:FB CYC:15216
E59C  EA        NOP                             A:87 X:87 Y:57 P:E5 SP:FB CYC:15218
E59D  EA        NOP                             A:87 X:87 Y:57 P:E5 SP:FB CYC:15220
E59E  F0 12     BEQ $E5B2                       A:87 X:87 Y:57 P:E5 SP:FB CYC:15222
E5A0  10 10     BPL $E5B2                       A:87 X:87 Y:57 P:E5 SP:FB CYC:15224
E5A2  50 0E     BVC $E5B2                       A:87 X:87 Y:57 P:E5 SP:FB CYC:15226
E5A4  90 0C     BCC $E5B2                       A:87 X:87 Y:57 P:E5 SP:FB CYC:15228
E5A6  C9 87     CMP #$87                        A:87 X:87 Y:57 P:E5 SP:FB CYC:15230
E5A8  D0 08     BNE $E5B2                       A:87 X:87 Y:57 P:67 SP:FB CYC:15232
E5AA  E0 87     CPX #$87                        A:87 X:87 Y:57 P:67 SP:FB CYC:15234
E5AC  D0 04     BNE $E5B2                       A:87 X:87 Y:57 P:67 SP:FB CYC:15236
E5AE  C0 57     CPY #$57                        A:87 X:87 Y:57 P:67 SP:FB CYC:15238
E5B0  F0 04     BEQ $E5B6                       A:87 X:87 Y:57 P:67 SP:FB CYC:15240
E5B6  A0 53     LDY #$53                        A:87 X:87 Y:57 P:67 SP:FB CYC:15242
E5B8  B8        CLV                             A:87 X:87 Y:53 P:65 SP:FB CYC:15244
E5B9  18        CLC                             A:87 X:87 Y:53 P:25 SP:FB CYC:15246
E5BA  A9 00     LDA #$00                        A:87 X:87 Y:53 P:24 SP:FB CYC:15248
E5BC  A7 68    *LAX $68 = 32                    A:00 X:87 Y:53 P:26 SP:FB CYC:15250
E5BE  EA        NOP                             A:32 X:32 Y:53 P:24 SP:FB CYC:15253
E5BF  EA        NOP                             A:32 X:32 Y:53 P:24 SP:FB CYC:15255
E5C0  EA        NOP                             A:32 X:32 Y:53 P:24 SP:FB CYC:15257
E5C1  EA        NOP                             A:32 X:32 Y:53 P:24 SP:FB CYC:15259
E5C2  F0 12     BEQ $E5D6                       A:32 X:32 Y:53 P:24 SP:FB CYC:15261
E5C4  30 10     BMI $E5D6                       A:32 X:32 Y:53 P:24 SP:FB CYC:15263
E5C6  70 0E     BVS $E5D6                       A:32 X:32 Y:53 P:24 SP:FB CYC:15265
E5C8  B0 0C     BCS $E5D6                       A:32 X:32 Y:53 P:24 SP:FB CYC:15267
E5CA  C9 32     CMP #$32                        A:32 X:32 Y:53 P:24 SP:FB CYC:15269
E5CC  D0 08     BNE $E5D6                       A:32 X:32 Y:53 P:27 SP:FB CYC:15271
E5CE  E0 32     CPX #$32                        A:32 X:32 Y:53 P:27 SP:FB CYC:15273
E5D0  D0 04     BNE $E5D6                       A:32 X:32 Y:53 P:27 SP:FB CYC:15275
E5D2  C0 53     CPY #$53                        A:32 X:32 Y:53 P:27 SP:FB CYC:15277
E5D4  F0 04     BEQ $E5DA                       A:32 X:32 Y:53 P:27 SP:FB CYC:15279
E5DA  A9 87     LDA #$87                        A:32 X:32 Y:53 P:27 SP:FB CYC:15281
E5DC  8D 77 05  STA $0577 = 00                  A:87 X:32 Y:53 P:A5 SP:FB CYC:15283
E5DF  A9 32     LDA #$32                        A:87 X:32 Y:53 P:A5 SP:FB CYC:15287
E5E1  8D 78 05  STA $0578 = 00                  A:32 X:32 Y:53 P:25 SP:FB CYC:15289
E5E4  A0 57     LDY #$57                        A:32 X:32 Y:53 P:25 SP:FB CYC:15293
E5E6  24 01     BIT $01 = FF                    A:32 X:32 Y:57 P:25 SP:FB CYC:15295
E5E8  38        SEC                             A:32 X:32 Y:57 P:E5 SP:FB CYC:15298
E5E9  A9 00     LDA #$00                        A:32 X:32 Y:57 P:E5 SP:FB CYC:15300
E5EB  AF 77 05 *LAX $0577 = 87                  A:00 X:32 Y:57 P:67 SP:FB CYC:15302
E5EE  EA        NOP                             A:87 X:87 Y:57 P:E5 SP:FB CYC:15306
E5EF  EA        NOP                             A:87 X:87 Y:57 P:E5 SP:FB CYC:15308
E5F0  EA        NOP                             A:87 X:87 Y:57 P:E5 SP:FB CYC:15310
E5F1  EA        NOP                             A:87 X:87 Y:57 P:E5 SP:FB CYC:15312
E5F2  F0 12     BEQ $E606                       A:87 X:87 Y:57 P:E5 SP:FB CYC:15314
E5F4  10 10     BPL $E606                       A:87 X:87 Y:57 P:E5 SP:FB CYC:15316
E5F6  50 0E     BVC $E606                       A:87 X:87 Y:57 P:E5 SP:FB CYC:15318
E5F8  90 0C     BCC $E606                       A:87 X:87 Y:57 P:E5 SP:FB CYC:15320
E5FA  C9 87     CMP #$87                        A:87 X:87 Y:57 P:E5 SP:FB CYC:15322
E5FC  D0 08     BNE $E606                       A:87 X:87 Y:57 P:67 SP:FB CYC:15324
E5FE  E0 87     CPX #$87                        A:87 X:87 Y:57 P:67 SP:FB CYC:15326
E600  D0 04     BNE $E606                       A:87 X:87 Y:57 P:67 SP:FB CYC:15328
E602  C0 57     CPY #$57                        A:87 X:87 Y:57 P:67 SP:FB CYC:15330
E604  F0 04     BEQ $E60A                       A:87 X:87 Y:57 P:67 SP:FB CYC:15332
E60A  A0 53     LDY #$53                        A:87 X:87 Y:57 P:67 SP:FB CYC:15334
E60C  B8        CLV                             A:87 X:87 Y:53 P:65 SP:FB CYC:15336
E60D  18        CLC                             A:87 X:87 Y:53 P:25 SP:FB CYC:15338
E60E  A9 00     LDA #$00                        A:87 X:87 Y:53 P:24 SP:FB CYC:15340
E610  AF 78 05 *LAX $0578 = 32                  A:00 X:87 Y:53 P:26 SP:FB CYC:15342
E613  EA        NOP                             A:32 X:32 Y:53 P:24 SP:FB CYC:15346
E614  EA        NOP                             A:32 X:32 Y:53 P:24 SP:FB CYC:15348
E615  EA        NOP                             A:32 X:32 Y:53 P:24 SP:FB CYC:15350
E616  EA        NOP                             A:32 X:32 Y:53 P:24 SP:FB CYC:15352
E617  F0 12     BEQ $E62B                       A:32 X:32 Y:53 P:24 SP:FB CYC:15354
E619  30 10     BMI $E62B                       A:32 X:32 Y:53 P:24 SP:FB CYC:15356
E61B  70 0E     BVS $E62B                       A:32 X:32 Y:53 P:24 SP:FB CYC:15358
E61D  B0 0C     BCS $E62B                       A:32 X:32 Y:53 P:24 SP:FB CYC:15360
E61F  C9 32     CMP #$32                        A:32 X:32 Y:53 P:24 SP:FB CYC:15362
E621  D0 08     BNE $E62B                       A:32 X:32 Y:53 P:27 SP:FB CYC:15364
E623  E0 32     CPX #$32                        A:32 X:32 Y:53 P:27 SP:FB CYC:15366
E625  D0 04     BNE $E62B                       A:32 X:32 Y:53 P:27 SP:FB CYC:15368
E627  C0 53     CPY #$53                        A:32 X:32 Y:53 P:27 SP:FB CYC:15370
E629  F0 04     BEQ $E62F                       A:32 X:32 Y:53 P:27 SP:FB CYC:15372
E62F  A9 FF     LDA #$FF                        A:32 X:32 Y:53 P:27 SP:FB CYC:15374
E631  85 43     STA $43 = 80                    A:FF X:32 Y:53 P:A5 SP:FB CYC:15376
E633  A9 04     LDA #$04                        A:FF X:32 Y:53 P:A5 SP:FB CYC:15379
E635  85 44     STA $44 = 05                    A:04 X:32 Y:53 P:25 SP:FB CYC:15381
E637  A9 32     LDA #$32                        A:04 X:32 Y:53 P:25 SP:FB CYC:15384
E639  85 45     STA $45 = 32                    A:32 X:32 Y:53 P:25 SP:FB CYC:15386
E63B  A9 04     LDA #$04                        A:32 X:32 Y:53 P:25 SP:FB CYC:15389
E63D  85 46     STA $46 = 04                    A:04 X:32 Y:53 P:25 SP:FB CYC:15391
E63F  A9 55     LDA #$55                        A:04 X:32 Y:53 P:25 SP:FB CYC:15394
E641  8D 80 05  STA $0580 = 55                  A:55 X:32 Y:53 P:25 SP:FB CYC:15396
E644  A9 AA     LDA #$AA                        A:55 X:32 Y:53 P:25 SP:FB CYC:15400
E646  8D 32 04  STA $0432 = AA                  A:AA X:32 Y:53 P:A5 SP:FB CYC:15402
E649  A2 03     LDX #$03                        A:AA X:32 Y:53 P:A5 SP:FB CYC:15406
E64B  A0 81     LDY #$81                        A:AA X:03 Y:53 P:25 SP:FB CYC:15408
E64D  24 01     BIT $01 = FF                    A:AA X:03 Y:81 P:A5 SP:FB CYC:15410
E64F  38        SEC                             A:AA X:03 Y:81 P:E5 SP:FB CYC:15413
E650  A9 00     LDA #$00                        A:AA X:03 Y:81 P:E5 SP:FB CYC:15415
E652  B3 43    *LAX ($43),Y = 04FF @ 0580 = 55  A:00 X:03 Y:81 P:67 SP:FB CYC:15417
E654  EA        NOP                             A:55 X:55 Y:81 P:65 SP:FB CYC:15422
E655  EA        NOP                             A:55 X:55 Y:81 P:65 SP:FB CYC:15424
E656  EA        NOP                             A:55 X:55 Y:81 P:65 SP:FB CYC:15426
E657  EA        NOP                             A:55 X:55 Y:81 P:65 SP:FB CYC:15428
E658  F0 12     BEQ $E66C                       A:55 X:55 Y:81 P:65 SP:FB CYC:15430
E65A  30 10     BMI $E66C                       A:55 X:55 Y:81 P:65 SP:FB CYC:15432
E65C  50 0E     BVC $E66C                       A:55 X:55 Y:81 P:65 SP:FB CYC:15434
E65E  90 0C     BCC $E66C                       A:55 X:55 Y:81 P:65 SP:FB CYC:15436
E660  C9 55     CMP #$55                        A:55 X:55 Y:81 P:65 SP:FB CYC:15438
E662  D0 08     BNE $E66C                       A:55 X:55 Y:81 P:67 SP:FB CYC:15440
E664  E0 55     CPX #$55                        A:55 X:55 Y:81 P:67 SP:FB CYC:15442
E666  D0 04     BNE $E66C                       A:55 X:55 Y:81 P:67 SP:FB CYC:15444
E668  C0 81     CPY #$81                        A:55 X:55 Y:81 P:67 SP:FB CYC:15446
E66A  F0 04     BEQ $E670                       A:55 X:55 Y:81 P:67 SP:FB CYC:15448
E670  A2 05     LDX #$05                        A:55 X:55 Y:81 P:67 SP:FB CYC:15450
E672  A0 00     LDY #$00                        A:55 X:05 Y:81 P:65 SP:FB CYC:15452
E674  B8        CLV                             A:55 X:05 Y:00 P:67 SP:FB CYC:15454
E675  18        CLC                             A:55 X:05 Y:00 P:27 SP:FB CYC:15456
E676  A9 00     LDA #$00                        A:55 X:05 Y:00 P:26 SP:FB CYC:15458
E678  B3 45    *LAX ($45),Y = 0432 @ 0432 = AA  A:00 X:05 Y:00 P:26 SP:FB CYC:15460
E67A  EA        NOP                             A:AA X:AA Y:00 P:A4 SP:FB CYC:15465
E67B  EA        NOP                             A:AA X:AA Y:00 P:A4 SP:FB CYC:15467
E67C  EA        NOP                             A:AA X:AA Y:00 P:A4 SP:FB CYC:15469
E67D  EA        NOP                             A:AA X:AA Y:00 P:A4 SP:FB CYC:15471
E67E  F0 12     BEQ $E692                       A:AA X:AA Y:00 P:A4 SP:FB CYC:15473
E680  10 10     BPL $E692                       A:AA X:AA Y:00 P:A4 SP:FB CYC:15475
E682  70 0E     BVS $E692                       A:AA X:AA Y:00 P:A4 SP:FB CYC:15477
E684  B0 0C     BCS $E692                       A:AA X:AA Y:00 P:A4 SP:FB CYC:15479
E686  C9 AA     CMP #$AA                        A:AA X:AA Y:00 P:A4 SP:FB CYC:15481
E688  D0 08     BNE $E692                       A:AA X:AA Y:00 P:27 SP:FB CYC:15483
E68A  E0 AA     CPX #$AA                        A:AA X:AA Y:00 P:27 SP:FB CYC:15485
E68C  D0 04     BNE $E692                       A:AA X:AA Y:00 P:27 SP:FB CYC:15487
E68E  C0 00     CPY #$00                        A:AA X:AA Y:00 P:27 SP:FB CYC:15489
E690  F0 04     BEQ $E696                       A:AA X:AA Y:00 P:27 SP:FB CYC:15491
E696  A9 87     LDA #$87                        A:AA X:AA Y:00 P:27 SP:FB CYC:15493
E698  85 67     STA $67 = 87                    A:87 X:AA Y:00 P:A5 SP:FB CYC:15495
E69A  A9 32     LDA #$32                        A:87 X:AA Y:00 P:A5 SP:FB CYC:15498
E69C  85 68     STA $68 = 32                    A:32 X:AA Y:00 P:25 SP:FB CYC:15500
E69E  A0 57     LDY #$57                        A:32 X:AA Y:00 P:25 SP:FB CYC:15503
E6A0  24 01     BIT $01 = FF                    A:32 X:AA Y:57 P:25 SP:FB CYC:15505
E6A2  38        SEC                             A:32 X:AA Y:57 P:E5 SP:FB CYC:15508
E6A3  A9 00     LDA #$00                        A:32 X:AA Y:57 P:E5 SP:FB CYC:15510
E6A5  B7 10    *LAX $10,Y @ 67 = 87             A:00 X:AA Y:57 P:67 SP:FB CYC:15512
E6A7  EA        NOP                             A:87 X:87 Y:57 P:E5 SP:FB CYC:15516
E6A8  EA        NOP                             A:87 X:87 Y:57 P:E5 SP:FB CYC:15518
E6A9  EA        NOP                             A:87 X:87 Y:57 P:E5 SP:FB CYC:15520
E6AA  EA        NOP                             A:87 X:87 Y:57 P:E5 SP:FB CYC:15522
E6AB  F0 12     BEQ $E6BF                       A:87 X:87 Y:57 P:E5 SP:FB CYC:15524
E6AD  10 10     BPL $E6BF                       A:87 X:87 Y:57 P:E5 SP:FB CYC:15526
E6AF  50 0E     BVC $E6BF                       A:87 X:87 Y:57 P:E5 SP:FB CYC:15528
E6B1  90 0C     BCC $E6BF                       A:87 X:87 Y:57 P:E5 SP:FB CYC:15530
E6B3  C9 87     CMP #$87                        A:87 X:87 Y:57 P:E5 SP:FB CYC:15532
E6B5  D0 08     BNE $E6BF                       A:87 X:87 Y:57 P:67 SP:FB CYC:15534
E6B7  E0 87     CPX #$87                        A:87 X:87 Y:57 P:67 SP:FB CYC:15536
E6B9  D0 04     BNE $E6BF                       A:87 X:87 Y:57 P:67 SP:FB CYC:15538
E6BB  C0 57     CPY #$57                        A:87 X:87 Y:57 P:67 SP:FB CYC:15540
E6BD  F0 04     BEQ $E6C3                       A:87 X:87 Y:57 P:67 SP:FB CYC:15542
E6C3  A0 FF     LDY #$FF                        A:87 X:87 Y:57 P:67 SP:FB CYC:15544
E6C5  B8        CLV                             A:87 X:87 Y:FF P:E5 SP:FB CYC:15546
E6C6  18        CLC                             A:87 X:87 Y:FF P:A5 SP:FB CYC:15548
E6C7  A9 00     LDA #$00                        A:87 X:87 Y:FF P:A4 SP:FB CYC:15550
E6C9  B7 69    *LAX $69,Y @ 68 = 32             A:00 X:87 Y:FF P:26 SP:FB CYC:15552
E6CB  EA        NOP                             A:32 X:32 Y:FF P:24 SP:FB CYC:15556
E6CC  EA        NOP                             A:32 X:32 Y:FF P:24 SP:FB CYC:15558
E6CD  EA        NOP                             A:32 X:32 Y:FF P:24 SP:FB CYC:15560
E6CE  EA        NOP                             A:32 X:32 Y:FF P:24 SP:FB CYC:15562
E6CF  F0 12     BEQ $E6E3                       A:32 X:32 Y:FF P:24 SP:FB CYC:15564
E6D1  30 10     BMI $E6E3                       A:32 X:32 Y:FF P:24 SP:FB CYC:15566
E6D3  70 0E     BVS $E6E3                       A:32 X:32 Y:FF P:24 SP:FB CYC:15568
E6D5  B0 0C     BCS $E6E3                       A:32 X:32 Y:FF P:24 SP:FB CYC:15570
E6D7  C9 32     CMP #$32                        A:32 X:32 Y:FF P:24 SP:FB CYC:15572
E6D9  D0 08     BNE $E6E3                       A:32 X:32 Y:FF P:27 SP:FB CYC:15574
E6DB  E0 32     CPX #$32                        A:32 X:32 Y:FF P:27 SP:FB CYC:15576
E6DD  D0 04     BNE $E6E3                       A:32 X:32 Y:FF P:27 SP:FB CYC:15578
E6DF  C0 FF     CPY #$FF                        A:32 X:32 Y:FF P:27 SP:FB CYC:15580
E6E1  F0 04     BEQ $E6E7                       A:32 X:32 Y:FF P:27 SP:FB CYC:15582
E6E7  A9 87     LDA #$87                        A:32 X:32 Y:FF P:27 SP:FB CYC:15584
E6E9  8D 87 05  STA $0587 = 00                  A:87 X:32 Y:FF P:A5 SP:FB CYC:15586
E6EC  A9 32     LDA #$32                        A:87 X:32 Y:FF P:A5 SP:FB CYC:15590
E6EE  8D 88 05  STA $0588 = 00                  A:32 X:32 Y:FF P:25 SP:FB CYC:15592
E6F1  A0 30     LDY #$30                        A:32 X:32 Y:FF P:25 SP:FB CYC:15596
E6F3  24 01     BIT $01 = FF                    A:32 X:32 Y:30 P:25 SP:FB CYC:15598
E6F5  38        SEC                             A:32 X:32 Y:30 P:E5 SP:FB CYC:15601
E6F6  A9 00     LDA #$00                        A:32 X:32 Y:30 P:E5 SP:FB CYC:15603
E6F8  BF 57 05 *LAX $0557,Y @ 0587 = 87         A:00 X:32 Y:30 P:67 SP:FB CYC:15605
E6FB  EA        NOP                             A:87 X:87 Y:30 P:E5 SP:FB CYC:15609
E6FC  EA        NOP                             A:87 X:87 Y:30 P:E5 SP:FB CYC:15611
E6FD  EA        NOP                             A:87 X:87 Y:30 P:E5 SP:FB CYC:15613
E6FE  EA        NOP                             A:87 X:87 Y:30 P:E5 SP:FB CYC:15615
E6FF  F0 12     BEQ $E713                       A:87 X:87 Y:30 P:E5 SP:FB CYC:15617
E701  10 10     BPL $E713                       A:87 X:87 Y:30 P:E5 SP:FB CYC:15619
E703  50 0E     BVC $E713                       A:87 X:87 Y:30 P:E5 SP:FB CYC:15621
E705  90 0C     BCC $E713                       A:87 X:87 Y:30 P:E5 SP:FB CYC:15623
E707  C9 87     CMP #$87                        A:87 X:87 Y:30 P:E5 SP:FB CYC:15625
E709  D0 08     BNE $E713                       A:87 X:87 Y:30 P:67 SP:FB CYC:15627
E70B  E0 87     CPX #$87                        A:87 X:87 Y:30 P:67 SP:FB CYC:15629
E70D  D0 04     BNE $E713                       A:87 X:87 Y:30 P:67 SP:FB CYC:15631
E70F  C0 30     CPY #$30                        A:87 X:87 Y:30 P:67 SP:FB CYC:15633
E711  F0 04     BEQ $E717                       A:87 X:87 Y:30 P:67 SP:FB CYC:15635
E717  A0 40     LDY #$40                        A:87 X:87 Y:30 P:67 SP:FB CYC:15637
E719  B8        CLV                             A:87 X:87 Y:40 P:65 SP:FB CYC:15639
E71A  18        CLC                             A:87 X:87 Y:40 P:25 SP:FB CYC:15641
E71B  A9 00     LDA #$00                        A:87 X:87 Y:40 P:24 SP:FB CYC:15643
E71D  BF 48 05 *LAX $0548,Y @ 0588 = 32         A:00 X:87 Y:40 P:26 SP:FB CYC:15645
E720  EA        NOP                             A:32 X:32 Y:40 P:24 SP:FB CYC:15649
E721  EA        NOP                             A:32 X:32 Y:40 P:24 SP:FB CYC:15651
E722  EA        NOP                             A:32 X:32 Y:40 P:24 SP:FB CYC:15653
E723  EA        NOP                             A:32 X:32 Y:40 P:24 SP:FB CYC:15655
E724  F0 12     BEQ $E738                       A:32 X:32 Y:40 P:24 SP:FB CYC:15657
E726  30 10     BMI $E738                       A:32 X:32 Y:40 P:24 SP:FB CYC:15659
E728  70 0E     BVS $E738                       A:32 X:32 Y:40 P:24 SP:FB CYC:15661
E72A  B0 0C     BCS $E738                       A:32 X:32 Y:40 P:24 SP:FB CYC:15663
E72C  C9 32     CMP #$32                        A:32 X:32 Y:40 P:24 SP:FB CYC:15665
E72E  D0 08     BNE $E738                       A:32 X:32 Y:40 P:27 SP:FB CYC:15667
E730  E0 32     CPX #$32                        A:32 X:32 Y:40 P:27 SP:FB CYC:15669
E732  D0 04     BNE $E738                       A:32 X:32 Y:40 P:27 SP:FB CYC:15671
E734  C0 40     CPY #$40                        A:32 X:32 Y:40 P:27 SP:FB CYC:15673
E736  F0 04     BEQ $E73C                       A:32 X:32 Y:40 P:27 SP:FB CYC:15675
E73C  60        RTS                             A:32 X:32 Y:40 P:27 SP:FB CYC:15677
C635  20 3D E7  JSR $E73D                       A:32 X:32 Y:40 P:27 SP:FD CYC:15683
E73D  A9 C0     LDA #$C0                        A:32 X:32 Y:40 P:27 SP:FB CYC:15689
E73F  85 01     STA $01 = FF                    A:C0 X:32 Y:40 P:A5 SP:FB CYC:15691
E741  A9 00     LDA #$00                        A:C0 X:32 Y:40 P:A5 SP:FB CYC:15694
E743  8D 89 04  STA $0489 = 00                  A:00 X:32 Y:40 P:27 SP:FB CYC:15696
E746  A9 89     LDA #$89                        A:00 X:32 Y:40 P:27 SP:FB CYC:15700
E748  85 60     STA $60 = 00                    A:89 X:32 Y:40 P:A5 SP:FB CYC:15702
E74A  A9 04     LDA #$04                        A:89 X:32 Y:40 P:A5 SP:FB CYC:15705
E74C  85 61     STA $61 = 00                    A:04 X:32 Y:40 P:25 SP:FB CYC:15707
E74E  A0 44     LDY #$44                        A:04 X:32 Y:40 P:25 SP:FB CYC:15710
E750  A2 17     LDX #$17                        A:04 X:32 Y:44 P:25 SP:FB CYC:15712
E752  A9 3E     LDA #$3E                        A:04 X:17 Y:44 P:25 SP:FB CYC:15714
E754  24 01     BIT $01 = C0                    A:3E X:17 Y:44 P:25 SP:FB CYC:15716
E756  18        CLC                             A:3E X:17 Y:44 P:E7 SP:FB CYC:15719
E757  83 49    *SAX ($49,X) @ 60 = 0489 = 00    A:3E X:17 Y:44 P:E6 SP:FB CYC:15721
E759  EA        NOP                             A:3E X:17 Y:44 P:E6 SP:FB CYC:15727
E75A  EA        NOP                             A:3E X:17 Y:44 P:E6 SP:FB CYC:15729
E75B  EA        NOP                             A:3E X:17 Y:44 P:E6 SP:FB CYC:15731
E75C  EA        NOP                             A:3E X:17 Y:44 P:E6 SP:FB CYC:15733
E75D  D0 19     BNE $E778                       A:3E X:17 Y:44 P:E6 SP:FB CYC:15735
E75F  B0 17     BCS $E778                       A:3E X:17 Y:44 P:E6 SP:FB CYC:15737
E761  50 15     BVC $E778                       A:3E X:17 Y:44 P:E6 SP:FB CYC:15739
E763  10 13     BPL $E778                       A:3E X:17 Y:44 P:E6 SP:FB CYC:15741
E765  C9 3E     CMP #$3E                        A:3E X:17 Y:44 P:E6 SP:FB CYC:15743
E767  D0 0F     BNE $E778                       A:3E X:17 Y:44 P:67 SP:FB CYC:15745
E769  C0 44     CPY #$44                        A:3E X:17 Y:44 P:67 SP:FB CYC:15747
E76B  D0 0B     BNE $E778                       A:3E X:17 Y:44 P:67 SP:FB CYC:15749
E76D  E0 17     CPX #$17                        A:3E X:17 Y:44 P:67 SP:FB CYC:15751
E76F  D0 07     BNE $E778                       A:3E X:17 Y:44 P:67 SP:FB CYC:15753
E771  AD 89 04  LDA $0489 = 16                  A:3E X:17 Y:44 P:67 SP:FB CYC:15755
E774  C9 16     CMP #$16                        A:16 X:17 Y:44 P:65 SP:FB CYC:15759
E776  F0 04     BEQ $E77C                       A:16 X:17 Y:44 P:67 SP:FB CYC:15761
E77C  A0 44     LDY #$44                        A:16 X:17 Y:44 P:67 SP:FB CYC:15763
E77E  A2 7A     LDX #$7A                        A:16 X:17 Y:44 P:65 SP:FB CYC:15765
E780  A9 66     LDA #$66                        A:16 X:7A Y:44 P:65 SP:FB CYC:15767
E782  38        SEC                             A:66 X:7A Y:44 P:65 SP:FB CYC:15769
E783  B8        CLV                             A:66 X:7A Y:44 P:65 SP:FB CYC:15771
E784  83 E6    *SAX ($E6,X) @ 60 = 0489 = 16    A:66 X:7A Y:44 P:25 SP:FB CYC:15773
E786  EA        NOP                             A:66 X:7A Y:44 P:25 SP:FB CYC:15779
E787  EA        NOP                             A:66 X:7A Y:44 P:25 SP:FB CYC:15781
E788  EA        NOP                             A:66 X:7A Y:44 P:25 SP:FB CYC:15783
E789  EA        NOP                             A:66 X:7A Y:44 P:25 SP:FB CYC:15785
E78A  F0 19     BEQ $E7A5                       A:66 X:7A Y:44 P:25 SP:FB CYC:15787
E78C  90 17     BCC $E7A5                       A:66 X:7A Y:44 P:25 SP:FB CYC:15789
E78E  70 15     BVS $E7A5                       A:66 X:7A Y:44 P:25 SP:FB CYC:15791
E790  30 13     BMI $E7A5                       A:66 X:7A Y:44 P:25 SP:FB CYC:15793
E792  C9 66     CMP #$66                        A:66 X:7A Y:44 P:25 SP:FB CYC:15795
E794  D0 0F     BNE $E7A5                       A:66 X:7A Y:44 P:27 SP:FB CYC:15797
E796  C0 44     CPY #$44                        A:66 X:7A Y:44 P:27 SP:FB CYC:15799
E798  D0 0B     BNE $E7A5                       A:66 X:7A Y:44 P:27 SP:FB CYC:15801
E79A  E0 7A     CPX #$7A                        A:66 X:7A Y:44 P:27 SP:FB CYC:15803
E79C  D0 07     BNE $E7A5                       A:66 X:7A Y:44 P:27 SP:FB CYC:15805
E79E  AD 89 04  LDA $0489 = 62                  A:66 X:7A Y:44 P:27 SP:FB CYC:15807
E7A1  C9 62     CMP #$62                        A:62 X:7A Y:44 P:25 SP:FB CYC:15811
E7A3  F0 04     BEQ $E7A9                       A:62 X:7A Y:44 P:27 SP:FB CYC:15813
E7A9  A9 FF     LDA #$FF                        A:62 X:7A Y:44 P:27 SP:FB CYC:15815
E7AB  85 49     STA $49 = 00                    A:FF X:7A Y:44 P:A5 SP:FB CYC:15817
E7AD  A0 44     LDY #$44                        A:FF X:7A Y:44 P:A5 SP:FB CYC:15820
E7AF  A2 AA     LDX #$AA                        A:FF X:7A Y:44 P:25 SP:FB CYC:15822
E7B1  A9 55     LDA #$55                        A:FF X:AA Y:44 P:A5 SP:FB CYC:15824
E7B3  24 01     BIT $01 = C0                    A:55 X:AA Y:44 P:25 SP:FB CYC:15826
E7B5  18        CLC                             A:55 X:AA Y:44 P:E5 SP:FB CYC:15829
E7B6  87 49    *SAX $49 = FF                    A:55 X:AA Y:44 P:E4 SP:FB CYC:15831
E7B8  EA        NOP                             A:55 X:AA Y:44 P:E4 SP:FB CYC:15834
E7B9  EA        NOP                             A:55 X:AA Y:44 P:E4 SP:FB CYC:15836
E7BA  EA        NOP                             A:55 X:AA Y:44 P:E4 SP:FB CYC:15838
E7BB  EA        NOP                             A:55 X:AA Y:44 P:E4 SP:FB CYC:15840
E7BC  F0 18     BEQ $E7D6                       A:55 X:AA Y:44 P:E4 SP:FB CYC:15842
E7BE  B0 16     BCS $E7D6                       A:55 X:AA Y:44 P:E4 SP:FB CYC:15844
E7C0  50 14     BVC $E7D6                       A:55 X:AA Y:44 P:E4 SP:FB CYC:15846
E7C2  10 12     BPL $E7D6                       A:55 X:AA Y:44 P:E4 SP:FB CYC:15848
E7C4  C9 55     CMP #$55                        A:55 X:AA Y:44 P:E4 SP:FB CYC:15850
E7C6  D0 0E     BNE $E7D6                       A:55 X:AA Y:44 P:67 SP:FB CYC:15852
E7C8  C0 44     CPY #$44                        A:55 X:AA Y:44 P:67 SP:FB CYC:15854
E7CA  D0 0A     BNE $E7D6                       A:55 X:AA Y:44 P:67 SP:FB CYC:15856
E7CC  E0 AA     CPX #$AA                        A:55 X:AA Y:44 P:67 SP:FB CYC:15858
E7CE  D0 06     BNE $E7D6                       A:55 X:AA Y:44 P:67 SP:FB CYC:15860
E7D0  A5 49     LDA $49 = 00                    A:55 X:AA Y:44 P:67 SP:FB CYC:15862
E7D2  C9 00     CMP #$00                        A:00 X:AA Y:44 P:67 SP:FB CYC:15865
E7D4  F0 04     BEQ $E7DA                       A:00 X:AA Y:44 P:67 SP:FB CYC:15867
E7DA  A9 00     LDA #$00                        A:00 X:AA Y:44 P:67 SP:FB CYC:15869
E7DC  85 56     STA $56 = 00                    A:00 X:AA Y:44 P:67 SP:FB CYC:15871
E7DE  A0 58     LDY #$58                        A:00 X:AA Y:44 P:67 SP:FB CYC:15874
E7E0  A2 EF     LDX #$EF                        A:00 X:AA Y:58 P:65 SP:FB CYC:15876
E7E2  A9 66     LDA #$66                        A:00 X:EF Y:58 P:E5 SP:FB CYC:15878
E7E4  38        SEC                             A:66 X:EF Y:58 P:65 SP:FB CYC:15880
E7E5  B8        CLV                             A:66 X:EF Y:58 P:65 SP:FB CYC:15882
E7E6  87 56    *SAX $56 = 00                    A:66 X:EF Y:58 P:25 SP:FB CYC:15884
E7E8  EA        NOP                             A:66 X:EF Y:58 P:25 SP:FB CYC:15887
E7E9  EA        NOP                             A:66 X:EF Y:58 P:25 SP:FB CYC:15889
E7EA  EA        NOP                             A:66 X:EF Y:58 P:25 SP:FB CYC:15891
E7EB  EA        NOP                             A:66 X:EF Y:58 P:25 SP:FB CYC:15893
E7EC  F0 18     BEQ $E806                       A:66 X:EF Y:58 P:25 SP:FB CYC:15895
E7EE  90 16     BCC $E806                       A:66 X:EF Y:58 P:25 SP:FB CYC:15897
E7F0  70 14     BVS $E806                       A:66 X:EF Y:58 P:25 SP:FB CYC:15899
E7F2  30 12     BMI $E806                       A:66 X:EF Y:58 P:25 SP:FB CYC:15901
E7F4  C9 66     CMP #$66                        A:66 X:EF Y:58 P:25 SP:FB CYC:15903
E7F6  D0 0E     BNE $E806                       A:66 X:EF Y:58 P:27 SP:FB CYC:15905
E7F8  C0 58     CPY #$58                        A:66 X:EF Y:58 P:27 SP:FB CYC:15907
E7FA  D0 0A     BNE $E806                       A:66 X:EF Y:58 P:27 SP:FB CYC:15909
E7FC  E0 EF     CPX #$EF                        A:66 X:EF Y:58 P:27 SP:FB CYC:15911
E7FE  D0 06     BNE $E806                       A:66 X:EF Y:58 P:27 SP:FB CYC:15913
E800  A5 56     LDA $56 = 66                    A:66 X:EF Y:58 P:27 SP:FB CYC:15915
E802  C9 66     CMP #$66                        A:66 X:EF Y:58 P:25 SP:FB CYC:15918
E804  F0 04     BEQ $E80A                       A:66 X:EF Y:58 P:27 SP:FB CYC:15920
E80A  A9 FF     LDA #$FF                        A:66 X:EF Y:58 P:27 SP:FB CYC:15922
E80C  8D 49 05  STA $0549 = 00                  A:FF X:EF Y:58 P:A5 SP:FB CYC:15924
E80F  A0 E5     LDY #$E5                        A:FF X:EF Y:58 P:A5 SP:FB CYC:15928
E811  A2 AF     LDX #$AF                        A:FF X:EF Y:E5 P:A5 SP:FB CYC:15930
E813  A9 F5     LDA #$F5                        A:FF X:AF Y:E5 P:A5 SP:FB CYC:15932
E815  24 01     BIT $01 = C0                    A:F5 X:AF Y:E5 P:A5 SP:FB CYC:15934
E817  18        CLC                             A:F5 X:AF Y:E5 P:E5 SP:FB CYC:15937
E818  8F 49 05 *SAX $0549 = FF                  A:F5 X:AF Y:E5 P:E4 SP:FB CYC:15939
E81B  EA        NOP                             A:F5 X:AF Y:E5 P:E4 SP:FB CYC:15943
E81C  EA        NOP                             A:F5 X:AF Y:E5 P:E4 SP:FB CYC:15945
E81D  EA        NOP                             A:F5 X:AF Y:E5 P:E4 SP:FB CYC:15947
E81E  EA        NOP                             A:F5 X:AF Y:E5 P:E4 SP:FB CYC:15949
E81F  F0 19     BEQ $E83A                       A:F5 X:AF Y:E5 P:E4 SP:FB CYC:15951
E821  B0 17     BCS $E83A                       A:F5 X:AF Y:E5 P:E4 SP:FB CYC:15953
E823  50 15     BVC $E83A                       A:F5 X:AF Y:E5 P:E4 SP:FB CYC:15955
E825  10 13     BPL $E83A                       A:F5 X:AF Y:E5 P:E4 SP:FB CYC:15957
E827  C9 F5     CMP #$F5                        A:F5 X:AF Y:E5 P:E4 SP:FB CYC:15959
E829  D0 0F     BNE $E83A                       A:F5 X:AF Y:E5 P:67 SP:FB CYC:15961
E82B  C0 E5     CPY #$E5                        A:F5 X:AF Y:E5 P:67 SP:FB CYC:15963
E82D  D0 0B     BNE $E83A                       A:F5 X:AF Y:E5 P:67 SP:FB CYC:15965
E82F  E0 AF     CPX #$AF                        A:F5 X:AF Y:E5 P:67 SP:FB CYC:15967
E831  D0 07     BNE $E83A                       A:F5 X:AF Y:E5 P:67 SP:FB CYC:15969
E833  AD 49 05  LDA $0549 = A5                  A:F5 X:AF Y:E5 P:67 SP:FB CYC:15971
E836  C9 A5     CMP #$A5                        A:A5 X:AF Y:E5 P:E5 SP:FB CYC:15975
E838  F0 04     BEQ $E83E                       A:A5 X:AF Y:E5 P:67 SP:FB CYC:15977
E83E  A9 00     LDA #$00                        A:A5 X:AF Y:E5 P:67 SP:FB CYC:15979
E840  8D 56 05  STA $0556 = 00                  A:00 X:AF Y:E5 P:67 SP:FB CYC:15981
E843  A0 58     LDY #$58                        A:00 X:AF Y:E5 P:67 SP:FB CYC:15985
E845  A2 B3     LDX #$B3                        A:00 X:AF Y:58 P:65 SP:FB CYC:15987
E847  A9 97     LDA #$97                        A:00 X:B3 Y:58 P:E5 SP:FB CYC:15989
E849  38        SEC                             A:97 X:B3 Y:58 P:E5 SP:FB CYC:15991
E84A  B8        CLV                             A:97 X:B3 Y:58 P:E5 SP:FB CYC:15993
E84B  8F 56 05 *SAX $0556 = 00                  A:97 X:B3 Y:58 P:A5 SP:FB CYC:15995
E84E  EA        NOP                             A:97 X:B3 Y:58 P:A5 SP:FB CYC:15999
E84F  EA        NOP                             A:97 X:B3 Y:58 P:A5 SP:FB CYC:16001
E850  EA        NOP                             A:97 X:B3 Y:58 P:A5 SP:FB CYC:16003
E851  EA        NOP                             A:97 X:B3 Y:58 P:A5 SP:FB CYC:16005
E852  F0 19     BEQ $E86D                       A:97 X:B3 Y:58 P:A5 SP:FB CYC:16007
E854  90 17     BCC $E86D                       A:97 X:B3 Y:58 P:A5 SP:FB CYC:16009
E856  70 15     BVS $E86D                       A:97 X:B3 Y:58 P:A5 SP:FB CYC:16011
E858  10 13     BPL $E86D                       A:97 X:B3 Y:58 P:A5 SP:FB CYC:16013
E85A  C9 97     CMP #$97                        A:97 X:B3 Y:58 P:A5 SP:FB CYC:16015
E85C  D0 0F     BNE $E86D                       A:97 X:B3 Y:58 P:27 SP:FB CYC:16017
E85E  C0 58     CPY #$58                        A:97 X:B3 Y:58 P:27 SP:FB CYC:16019
E860  D0 0B     BNE $E86D                       A:97 X:B3 Y:58 P:27 SP:FB CYC:16021
E862  E0 B3     CPX #$B3                        A:97 X:B3 Y:58 P:27 SP:FB CYC:16023
E864  D0 07     BNE $E86D                       A:97 X:B3 Y:58 P:27 SP:FB CYC:16025
E866  AD 56 05  LDA $0556 = 93                  A:97 X:B3 Y:58 P:27 SP:FB CYC:16027
E869  C9 93     CMP #$93                        A:93 X:B3 Y:58 P:A5 SP:FB CYC:16031
E86B  F0 04     BEQ $E871                       A:93 X:B3 Y:58 P:27 SP:FB CYC:16033
E871  A9 FF     LDA #$FF                        A:93 X:B3 Y:58 P:27 SP:FB CYC:16035
E873  85 49     STA $49 = 00                    A:FF X:B3 Y:58 P:A5 SP:FB CYC:16037
E875  A0 FF     LDY #$FF                        A:FF X:B3 Y:58 P:A5 SP:FB CYC:16040
E877  A2 AA     LDX #$AA                        A:FF X:B3 Y:FF P:A5 SP:FB CYC:16042
E879  A9 55     LDA #$55                        A:FF X:AA Y:FF P:A5 SP:FB CYC:16044
E87B  24 01     BIT $01 = C0                    A:55 X:AA Y:FF P:25 SP:FB CYC:16046
E87D  18        CLC                             A:55 X:AA Y:FF P:E5 SP:FB CYC:16049
E87E  97 4A    *SAX $4A,Y @ 49 = FF             A:55 X:AA Y:FF P:E4 SP:FB CYC:16051
E880  EA        NOP                             A:55 X:AA Y:FF P:E4 SP:FB CYC:16055
E881  EA        NOP                             A:55 X:AA Y:FF P:E4 SP:FB CYC:16057
E882  EA        NOP                             A:55 X:AA Y:FF P:E4 SP:FB CYC:16059
E883  EA        NOP                             A:55 X:AA Y:FF P:E4 SP:FB CYC:16061
E884  F0 18     BEQ $E89E                       A:55 X:AA Y:FF P:E4 SP:FB CYC:16063
E886  B0 16     BCS $E89E                       A:55 X:AA Y:FF P:E4 SP:FB CYC:16065
E888  50 14     BVC $E89E                       A:55 X:AA Y:FF P:E4 SP:FB CYC:16067
E88A  10 12     BPL $E89E                       A:55 X:AA Y:FF P:E4 SP:FB CYC:16069
E88C  C9 55     CMP #$55                        A:55 X:AA Y:FF P:E4 SP:FB CYC:16071
E88E  D0 0E     BNE $E89E                       A:55 X:AA Y:FF P:67 SP:FB CYC:16073
E890  C0 FF     CPY #$FF                        A:55 X:AA Y:FF P:67 SP:FB CYC:16075
E892  D0 0A     BNE $E89E                       A:55 X:AA Y:FF P:67 SP:FB CYC:16077
E894  E0 AA     CPX #$AA                        A:55 X:AA Y:FF P:67 SP:FB CYC:16079
E896  D0 06     BNE $E89E                       A:55 X:AA Y:FF P:67 SP:FB CYC:16081
E898  A5 49     LDA $49 = 00                    A:55 X:AA Y:FF P:67 SP:FB CYC:16083
E89A  C9 00     CMP #$00                        A:00 X:AA Y:FF P:67 SP:FB CYC:16086
E89C  F0 04     BEQ $E8A2                       A:00 X:AA Y:FF P:67 SP:FB CYC:16088
E8A2  A9 00     LDA #$00                        A:00 X:AA Y:FF P:67 SP:FB CYC:16090
E8A4  85 56     STA $56 = 66                    A:00 X:AA Y:FF P:67 SP:FB CYC:16092
E8A6  A0 06     LDY #$06                        A:00 X:AA Y:FF P:67 SP:FB CYC:16095
E8A8  A2 EF     LDX #$EF                        A:00 X:AA Y:06 P:65 SP:FB CYC:16097
E8AA  A9 66     LDA #$66                        A:00 X:EF Y:06 P:E5 SP:FB CYC:16099
E8AC  38        SEC                             A:66 X:EF Y:06 P:65 SP:FB CYC:16101
E8AD  B8        CLV                             A:66 X:EF Y:06 P:65 SP:FB CYC:16103
E8AE  97 50    *SAX $50,Y @ 56 = 00             A:66 X:EF Y:06 P:25 SP:FB CYC:16105
E8B0  EA        NOP                             A:66 X:EF Y:06 P:25 SP:FB CYC:16109
E8B1  EA        NOP                             A:66 X:EF Y:06 P:25 SP:FB CYC:16111
E8B2  EA        NOP                             A:66 X:EF Y:06 P:25 SP:FB CYC:16113
E8B3  EA        NOP                             A:66 X:EF Y:06 P:25 SP:FB CYC:16115
E8B4  F0 18     BEQ $E8CE                       A:66 X:EF Y:06 P:25 SP:FB CYC:16117
E8B6  90 16     BCC $E8CE                       A:66 X:EF Y:06 P:25 SP:FB CYC:16119
E8B8  70 14     BVS $E8CE                       A:66 X:EF Y:06 P:25 SP:FB CYC:16121
E8BA  30 12     BMI $E8CE                       A:66 X:EF Y:06 P:25 SP:FB CYC:16123
E8BC  C9 66     CMP #$66                        A:66 X:EF Y:06 P:25 SP:FB CYC:16125
E8BE  D0 0E     BNE $E8CE                       A:66 X:EF Y:06 P:27 SP:FB CYC:16127
E8C0  C0 06     CPY #$06                        A:66 X:EF Y:06 P:27 SP:FB CYC:16129
E8C2  D0 0A     BNE $E8CE                       A:66 X:EF Y:06 P:27 SP:FB CYC:16131
E8C4  E0 EF     CPX #$EF                        A:66 X:EF Y:06 P:27 SP:FB CYC:16133
E8C6  D0 06     BNE $E8CE                       A:66 X:EF Y:06 P:27 SP:FB CYC:16135
E8C8  A5 56     LDA $56 = 66                    A:66 X:EF Y:06 P:27 SP:FB CYC:16137
E8CA  C9 66     CMP #$66                        A:66 X:EF Y:06 P:25 SP:FB CYC:16140
E8CC  F0 04     BEQ $E8D2                       A:66 X:EF Y:06 P:27 SP:FB CYC:16142
E8D2  60        RTS                             A:66 X:EF Y:06 P:27 SP:FB CYC:16144
C638  20 D3 E8  JSR $E8D3                       A:66 X:EF Y:06 P:27 SP:FD CYC:16150
E8D3  A0 90     LDY #$90                        A:66 X:EF Y:06 P:27 SP:FB CYC:16156
E8D5  20 31 F9  JSR $F931                       A:66 X:EF Y:90 P:A5 SP:FB CYC:16158
F931  24 01     BIT $01 = C0                    A:66 X:EF Y:90 P:A5 SP:F9 CYC:16164
F933  A9 40     LDA #$40                        A:66 X:EF Y:90 P:E5 SP:F9 CYC:16167
F935  38        SEC                             A:40 X:EF Y:90 P:65 SP:F9 CYC:16169
F936  60        RTS                             A:40 X:EF Y:90 P:65 SP:F9 CYC:16171
E8D8  EB 40    *SBC #$40                        A:40 X:EF Y:90 P:65 SP:FB CYC:16177
E8DA  EA        NOP                             A:00 X:EF Y:90 P:27 SP:FB CYC:16179
E8DB  EA        NOP                             A:00 X:EF Y:90 P:27 SP:FB CYC:16181
E8DC  EA        NOP                             A:00 X:EF Y:90 P:27 SP:FB CYC:16183
E8DD  EA        NOP                             A:00 X:EF Y:90 P:27 SP:FB CYC:16185
E8DE  20 37 F9  JSR $F937                       A:00 X:EF Y:90 P:27 SP:FB CYC:16187
F937  30 0B     BMI $F944                       A:00 X:EF Y:90 P:27 SP:F9 CYC:16193
F939  90 09     BCC $F944                       A:00 X:EF Y:90 P:27 SP:F9 CYC:16195
F93B  D0 07     BNE $F944                       A:00 X:EF Y:90 P:27 SP:F9 CYC:16197
F93D  70 05     BVS $F944                       A:00 X:EF Y:90 P:27 SP:F9 CYC:16199
F93F  C9 00     CMP #$00                        A:00 X:EF Y:90 P:27 SP:F9 CYC:16201
F941  D0 01     BNE $F944                       A:00 X:EF Y:90 P:27 SP:F9 CYC:16203
F943  60        RTS                             A:00 X:EF Y:90 P:27 SP:F9 CYC:16205
E8E1  C8        INY                             A:00 X:EF Y:90 P:27 SP:FB CYC:16211
E8E2  20 47 F9  JSR $F947                       A:00 X:EF Y:91 P:A5 SP:FB CYC:16213
F947  B8        CLV                             A:00 X:EF Y:91 P:A5 SP:F9 CYC:16219
F948  38        SEC                             A:00 X:EF Y:91 P:A5 SP:F9 CYC:16221
F949  A9 40     LDA #$40                        A:00 X:EF Y:91 P:A5 SP:F9 CYC:16223
F94B  60        RTS                             A:40 X:EF Y:91 P:25 SP:F9 CYC:16225
E8E5  EB 3F    *SBC #$3F                        A:40 X:EF Y:91 P:25 SP:FB CYC:16231
E8E7  EA        NOP                             A:01 X:EF Y:91 P:25 SP:FB CYC:16233
E8E8  EA        NOP                             A:01 X:EF Y:91 P:25 SP:FB CYC:16235
E8E9  EA        NOP                             A:01 X:EF Y:91 P:25 SP:FB CYC:16237
E8EA  EA        NOP                             A:01 X:EF Y:91 P:25 SP:FB CYC:16239
E8EB  20 4C F9  JSR $F94C                       A:01 X:EF Y:91 P:25 SP:FB CYC:16241
F94C  F0 0B     BEQ $F959                       A:01 X:EF Y:91 P:25 SP:F9 CYC:16247
F94E  30 09     BMI $F959                       A:01 X:EF Y:91 P:25 SP:F9 CYC:16249
F950  90 07     BCC $F959                       A:01 X:EF Y:91 P:25 SP:F9 CYC:16251
F952  70 05     BVS $F959                       A:01 X:EF Y:91 P:25 SP:F9 CYC:16253
F954  C9 01     CMP #$01                        A:01 X:EF Y:91 P:25 SP:F9 CYC:16255
F956  D0 01     BNE $F959                       A:01 X:EF Y:91 P:27 SP:F9 CYC:16257
F958  60        RTS                             A:01 X:EF Y:91 P:27 SP:F9 CYC:16259
E8EE  C8        INY                             A:01 X:EF Y:91 P:27 SP:FB CYC:16265
E8EF  20 5C F9  JSR $F95C                       A:01 X:EF Y:92 P:A5 SP:FB CYC:16267
F95C  A9 40     LDA #$40                        A:01 X:EF Y:92 P:A5 SP:F9 CYC:16273
F95E  38        SEC                             A:40 X:EF Y:92 P:25 SP:F9 CYC:16275
F95F  24 01     BIT $01 = C0                    A:40 X:EF Y:92 P:25 SP:F9 CYC:16277
F961  60        RTS                             A:40 X:EF Y:92 P:E5 SP:F9 CYC:16280
E8F2  EB 41    *SBC #$41                        A:40 X:EF Y:92 P:E5 SP:FB CYC:16286
E8F4  EA        NOP                             A:FF X:EF Y:92 P:A4 SP:FB CYC:16288
E8F5  EA        NOP                             A:FF X:EF Y:92 P:A4 SP:FB CYC:16290
E8F6  EA        NOP                             A:FF X:EF Y:92 P:A4 SP:FB CYC:16292
E8F7  EA        NOP                             A:FF X:EF Y:92 P:A4 SP:FB CYC:16294
E8F8  20 62 F9  JSR $F962                       A:FF X:EF Y:92 P:A4 SP:FB CYC:16296
F962  B0 0B     BCS $F96F                       A:FF X:EF Y:92 P:A4 SP:F9 CYC:16302
F964  F0 09     BEQ $F96F                       A:FF X:EF Y:92 P:A4 SP:F9 CYC:16304
F966  10 07     BPL $F96F                       A:FF X:EF Y:92 P:A4 SP:F9 CYC:16306
F968  70 05     BVS $F96F                       A:FF X:EF Y:92 P:A4 SP:F9 CYC:16308
F96A  C9 FF     CMP #$FF                        A:FF X:EF Y:92 P:A4 SP:F9 CYC:16310
F96C  D0 01     BNE $F96F                       A:FF X:EF Y:92 P:27 SP:F9 CYC:16312
F96E  60        RTS                             A:FF X:EF Y:92 P:27 SP:F9 CYC:16314
E8FB  C8        INY                             A:FF X:EF Y:92 P:27 SP:FB CYC:16320
E8FC  20 72 F9  JSR $F972                       A:FF X:EF Y:93 P:A5 SP:FB CYC:16322
F972  18        CLC                             A:FF X:EF Y:93 P:A5 SP:F9 CYC:16328
F973  A9 80     LDA #$80                        A:FF X:EF Y:93 P:A4 SP:F9 CYC:16330
F975  60        RTS                             A:80 X:EF Y:93 P:A4 SP:F9 CYC:16332
E8FF  EB 00    *SBC #$00                        A:80 X:EF Y:93 P:A4 SP:FB CYC:16338
E901  EA        NOP                             A:7F X:EF Y:93 P:65 SP:FB CYC:16340
E902  EA        NOP                             A:7F X:EF Y:93 P:65 SP:FB CYC:16342
E903  EA        NOP                             A:7F X:EF Y:93 P:65 SP:FB CYC:16344
E904  EA        NOP                             A:7F X:EF Y:93 P:65 SP:FB CYC:16346
E905  20 76 F9  JSR $F976                       A:7F X:EF Y:93 P:65 SP:FB CYC:16348
F976  90 05     BCC $F97D                       A:7F X:EF Y:93 P:65 SP:F9 CYC:16354
F978  C9 7F     CMP #$7F                        A:7F X:EF Y:93 P:65 SP:F9 CYC:16356
F97A  D0 01     BNE $F97D                       A:7F X:EF Y:93 P:67 SP:F9 CYC:16358
F97C  60        RTS                             A:7F X:EF Y:93 P:67 SP:F9 CYC:16360
E908  C8        INY                             A:7F X:EF Y:93 P:67 SP:FB CYC:16366
E909  20 80 F9  JSR $F980                       A:7F X:EF Y:94 P:E5 SP:FB CYC:16368
F980  38        SEC                             A:7F X:EF Y:94 P:E5 SP:F9 CYC:16374
F981  A9 81     LDA #$81                        A:7F X:EF Y:94 P:E5 SP:F9 CYC:16376
F983  60        RTS                             A:81 X:EF Y:94 P:E5 SP:F9 CYC:16378
E90C  EB 7F    *SBC #$7F                        A:81 X:EF Y:94 P:E5 SP:FB CYC:16384
E90E  EA        NOP                             A:02 X:EF Y:94 P:65 SP:FB CYC:16386
E90F  EA        NOP                             A:02 X:EF Y:94 P:65 SP:FB CYC:16388
E910  EA        NOP                             A:02 X:EF Y:94 P:65 SP:FB CYC:16390
E911  EA        NOP                             A:02 X:EF Y:94 P:65 SP:FB CYC:16392
E912  20 84 F9  JSR $F984                       A:02 X:EF Y:94 P:65 SP:FB CYC:16394
F984  50 07     BVC $F98D                       A:02 X:EF Y:94 P:65 SP:F9 CYC:16400
F986  90 05     BCC $F98D                       A:02 X:EF Y:94 P:65 SP:F9 CYC:16402
F988  C9 02     CMP #$02                        A:02 X:EF Y:94 P:65 SP:F9 CYC:16404
F98A  D0 01     BNE $F98D                       A:02 X:EF Y:94 P:67 SP:F9 CYC:16406
F98C  60        RTS                             A:02 X:EF Y:94 P:67 SP:F9 CYC:16408
E915  60        RTS                             A:02 X:EF Y:94 P:67 SP:FB CYC:16414
C63B  20 16 E9  JSR $E916                       A:02 X:EF Y:94 P:67 SP:FD CYC:16420
E916  A9 FF     LDA #$FF                        A:02 X:EF Y:94 P:67 SP:FB CYC:16426
E918  85 01     STA $01 = C0                    A:FF X:EF Y:94 P:E5 SP:FB CYC:16428
E91A  A0 95     LDY #$95                        A:FF X:EF Y:94 P:E5 SP:FB CYC:16431
E91C  A2 02     LDX #$02                        A:FF X:EF Y:95 P:E5 SP:FB CYC:16433
E91E  A9 47     LDA #$47                        A:FF X:02 Y:95 P:65 SP:FB CYC:16435
E920  85 47     STA $47 = 00                    A:47 X:02 Y:95 P:65 SP:FB CYC:16437
E922  A9 06     LDA #$06                        A:47 X:02 Y:95 P:65 SP:FB CYC:16440
E924  85 48     STA $48 = 00                    A:06 X:02 Y:95 P:65 SP:FB CYC:16442
E926  A9 EB     LDA #$EB                        A:06 X:02 Y:95 P:65 SP:FB CYC:16445
E928  8D 47 06  STA $0647 = 00                  A:EB X:02 Y:95 P:E5 SP:FB CYC:16447
E92B  20 31 FA  JSR $FA31                       A:EB X:02 Y:95 P:E5 SP:FB CYC:16451
FA31  24 01     BIT $01 = FF                    A:EB X:02 Y:95 P:E5 SP:F9 CYC:16457
FA33  18        CLC                             A:EB X:02 Y:95 P:E5 SP:F9 CYC:16460
FA34  A9 40     LDA #$40                        A:EB X:02 Y:95 P:E4 SP:F9 CYC:16462
FA36  60        RTS                             A:40 X:02 Y:95 P:64 SP:F9 CYC:16464
E92E  C3 45    *DCP ($45,X) @ 47 = 0647 = EB    A:40 X:02 Y:95 P:64 SP:FB CYC:16470
E930  EA        NOP                             A:40 X:02 Y:95 P:64 SP:FB CYC:16478
E931  EA        NOP                             A:40 X:02 Y:95 P:64 SP:FB CYC:16480
E932  EA        NOP                             A:40 X:02 Y:95 P:64 SP:FB CYC:16482
E933  EA        NOP                             A:40 X:02 Y:95 P:64 SP:FB CYC:16484
E934  20 37 FA  JSR $FA37                       A:40 X:02 Y:95 P:64 SP:FB CYC:16486
FA37  50 2C     BVC $FA65                       A:40 X:02 Y:95 P:64 SP:F9 CYC:16492
FA39  B0 2A     BCS $FA65                       A:40 X:02 Y:95 P:64 SP:F9 CYC:16494
FA3B  30 28     BMI $FA65                       A:40 X:02 Y:95 P:64 SP:F9 CYC:16496
FA3D  C9 40     CMP #$40                        A:40 X:02 Y:95 P:64 SP:F9 CYC:16498
FA3F  D0 24     BNE $FA65                       A:40 X:02 Y:95 P:67 SP:F9 CYC:16500
FA41  60        RTS                             A:40 X:02 Y:95 P:67 SP:F9 CYC:16502
E937  AD 47 06  LDA $0647 = EA                  A:40 X:02 Y:95 P:67 SP:FB CYC:16508
E93A  C9 EA     CMP #$EA                        A:EA X:02 Y:95 P:E5 SP:FB CYC:16512
E93C  F0 02     BEQ $E940                       A:EA X:02 Y:95 P:67 SP:FB CYC:16514
E940  C8        INY                             A:EA X:02 Y:95 P:67 SP:FB CYC:16516
E941  A9 00     LDA #$00                        A:EA X:02 Y:96 P:E5 SP:FB CYC:16518
E943  8D 47 06  STA $0647 = EA                  A:00 X:02 Y:96 P:67 SP:FB CYC:16520
E946  20 42 FA  JSR $FA42                       A:00 X:02 Y:96 P:67 SP:FB CYC:16524
FA42  B8        CLV                             A:00 X:02 Y:96 P:67 SP:F9 CYC:16530
FA43  38        SEC                             A:00 X:02 Y:96 P:27 SP:F9 CYC:16532
FA44  A9 FF     LDA #$FF                        A:00 X:02 Y:96 P:27 SP:F9 CYC:16534
FA46  60        RTS                             A:FF X:02 Y:96 P:A5 SP:F9 CYC:16536
E949  C3 45    *DCP ($45,X) @ 47 = 0647 = 00    A:FF X:02 Y:96 P:A5 SP:FB CYC:16542
E94B  EA        NOP                             A:FF X:02 Y:96 P:27 SP:FB CYC:16550
E94C  EA        NOP                             A:FF X:02 Y:96 P:27 SP:FB CYC:16552
E94D  EA        NOP                             A:FF X:02 Y:96 P:27 SP:FB CYC:16554
E94E  EA        NOP                             A:FF X:02 Y:96 P:27 SP:FB CYC:16556
E94F  20 47 FA  JSR $FA47                       A:FF X:02 Y:96 P:27 SP:FB CYC:16558
FA47  70 1C     BVS $FA65                       A:FF X:02 Y:96 P:27 SP:F9 CYC:16564
FA49  D0 1A     BNE $FA65                       A:FF X:02 Y:96 P:27 SP:F9 CYC:16566
FA4B  30 18     BMI $FA65                       A:FF X:02 Y:96 P:27 SP:F9 CYC:16568
FA4D  90 16     BCC $FA65                       A:FF X:02 Y:96 P:27 SP:F9 CYC:16570
FA4F  C9 FF     CMP #$FF                        A:FF X:02 Y:96 P:27 SP:F9 CYC:16572
FA51  D0 12     BNE $FA65                       A:FF X:02 Y:96 P:27 SP:F9 CYC:16574
FA53  60        RTS                             A:FF X:02 Y:96 P:27 SP:F9 CYC:16576
E952  AD 47 06  LDA $0647 = FF                  A:FF X:02 Y:96 P:27 SP:FB CYC:16582
E955  C9 FF     CMP #$FF                        A:FF X:02 Y:96 P:A5 SP:FB CYC:16586
E957  F0 02     BEQ $E95B                       A:FF X:02 Y:96 P:27 SP:FB CYC:16588
E95B  C8        INY                             A:FF X:02 Y:96 P:27 SP:FB CYC:16590
E95C  A9 37     LDA #$37                        A:FF X:02 Y:97 P:A5 SP:FB CYC:16592
E95E  8D 47 06  STA $0647 = FF                  A:37 X:02 Y:97 P:25 SP:FB CYC:16594
E961  20 54 FA  JSR $FA54                       A:37 X:02 Y:97 P:25 SP:FB CYC:16598
FA54  24 01     BIT $01 = FF                    A:37 X:02 Y:97 P:25 SP:F9 CYC:16604
FA56  A9 F0     LDA #$F0                        A:37 X:02 Y:97 P:E5 SP:F9 CYC:16607
FA58  60        RTS                             A:F0 X:02 Y:97 P:E5 SP:F9 CYC:16609
E964  C3 45    *DCP ($45,X) @ 47 = 0647 = 37    A:F0 X:02 Y:97 P:E5 SP:FB CYC:16615
E966  EA        NOP                             A:F0 X:02 Y:97 P:E5 SP:FB CYC:16623
E967  EA        NOP                             A:F0 X:02 Y:97 P:E5 SP:FB CYC:16625
E968  EA        NOP                             A:F0 X:02 Y:97 P:E5 SP:FB CYC:16627
E969  EA        NOP                             A:F0 X:02 Y:97 P:E5 SP:FB CYC:16629
E96A  20 59 FA  JSR $FA59                       A:F0 X:02 Y:97 P:E5 SP:FB CYC:16631
FA59  50 0A     BVC $FA65                       A:F0 X:02 Y:97 P:E5 SP:F9 CYC:16637
FA5B  F0 08     BEQ $FA65                       A:F0 X:02 Y:97 P:E5 SP:F9 CYC:16639
FA5D  10 06     BPL $FA65                       A:F0 X:02 Y:97 P:E5 SP:F9 CYC:16641
FA5F  90 04     BCC $FA65                       A:F0 X:02 Y:97 P:E5 SP:F9 CYC:16643
FA61  C9 F0     CMP #$F0                        A:F0 X:02 Y:97 P:E5 SP:F9 CYC:16645
FA63  F0 02     BEQ $FA67                       A:F0 X:02 Y:97 P:67 SP:F9 CYC:16647
FA67  60        RTS                             A:F0 X:02 Y:97 P:67 SP:F9 CYC:16649
E96D  AD 47 06  LDA $0647 = 36                  A:F0 X:02 Y:97 P:67 SP:FB CYC:16655
E970  C9 36     CMP #$36                        A:36 X:02 Y:97 P:65 SP:FB CYC:16659
E972  F0 02     BEQ $E976                       A:36 X:02 Y:97 P:67 SP:FB CYC:16661
E976  C8        INY                             A:36 X:02 Y:97 P:67 SP:FB CYC:16663
E977  A9 EB     LDA #$EB                        A:36 X:02 Y:98 P:E5 SP:FB CYC:16665
E979  85 47     STA $47 = 47                    A:EB X:02 Y:98 P:E5 SP:FB CYC:16667
E97B  20 31 FA  JSR $FA31                       A:EB X:02 Y:98 P:E5 SP:FB CYC:16670
FA31  24 01     BIT $01 = FF                    A:EB X:02 Y:98 P:E5 SP:F9 CYC:16676
FA33  18        CLC                             A:EB X:02 Y:98 P:E5 SP:F9 CYC:16679
FA34  A9 40     LDA #$40                        A:EB X:02 Y:98 P:E4 SP:F9 CYC:16681
FA36  60        RTS                             A:40 X:02 Y:98 P:64 SP:F9 CYC:16683
E97E  C7 47    *DCP $47 = EB                    A:40 X:02 Y:98 P:64 SP:FB CYC:16689
E980  EA        NOP                             A:40 X:02 Y:98 P:64 SP:FB CYC:16694
E981  EA        NOP                             A:40 X:02 Y:98 P:64 SP:FB CYC:16696
E982  EA        NOP                             A:40 X:02 Y:98 P:64 SP:FB CYC:16698
E983  EA        NOP                             A:40 X:02 Y:98 P:64 SP:FB CYC:16700
E984  20 37 FA  JSR $FA37                       A:40 X:02 Y:98 P:64 SP:FB CYC:16702
FA37  50 2C     BVC $FA65                       A:40 X:02 Y:98 P:64 SP:F9 CYC:16708
FA39  B0 2A     BCS $FA65                       A:40 X:02 Y:98 P:64 SP:F9 CYC:16710
FA3B  30 28     BMI $FA65                       A:40 X:02 Y:98 P:64 SP:F9 CYC:16712
FA3D  C9 40     CMP #$40                        A:40 X:02 Y:98 P:64 SP:F9 CYC:16714
FA3F  D0 24     BNE $FA65                       A:40 X:02 Y:98 P:67 SP:F9 CYC:16716
FA41  60        RTS                             A:40 X:02 Y:98 P:67 SP:F9 CYC:16718
E987  A5 47     LDA $47 = EA                    A:40 X:02 Y:98 P:67 SP:FB CYC:16724
E989  C9 EA     CMP #$EA                        A:EA X:02 Y:98 P:E5 SP:FB CYC:16727
E98B  F0 02     BEQ $E98F                       A:EA X:02 Y:98 P:67 SP:FB CYC:16729
E98F  C8        INY                             A:EA X:02 Y:98 P:67 SP:FB CYC:16731
E990  A9 00     LDA #$00                        A:EA X:02 Y:99 P:E5 SP:FB CYC:16733
E992  85 47     STA $47 = EA                    A:00 X:02 Y:99 P:67 SP:FB CYC:16735
E994  20 42 FA  JSR $FA42                       A:00 X:02 Y:99 P:67 SP:FB CYC:16738
FA42  B8        CLV                             A:00 X:02 Y:99 P:67 SP:F9 CYC:16744
FA43  38        SEC                             A:00 X:02 Y:99 P:27 SP:F9 CYC:16746
FA44  A9 FF     LDA #$FF                        A:00 X:02 Y:99 P:27 SP:F9 CYC:16748
FA46  60        RTS                             A:FF X:02 Y:99 P:A5 SP:F9 CYC:16750
E997  C7 47    *DCP $47 = 00                    A:FF X:02 Y:99 P:A5 SP:FB CYC:16756
E999  EA        NOP                             A:FF X:02 Y:99 P:27 SP:FB CYC:16761
E99A  EA        NOP                             A:FF X:02 Y:99 P:27 SP:FB CYC:16763
E99B  EA        NOP                             A:FF X:02 Y:99 P:27 SP:FB CYC:16765
E99C  EA        NOP                             A:FF X:02 Y:99 P:27 SP:FB CYC:16767
E99D  20 47 FA  JSR $FA47                       A:FF X:02 Y:99 P:27 SP:FB CYC:16769
FA47  70 1C     BVS $FA65                       A:FF X:02 Y:99 P:27 SP:F9 CYC:16775
FA49  D0 1A     BNE $FA65                       A:FF X:02 Y:99 P:27 SP:F9 CYC:16777
FA4B  30 18     BMI $FA65                       A:FF X:02 Y:99 P:27 SP:F9 CYC:16779
FA4D  90 16     BCC $FA65                       A:FF X:02 Y:99 P:27 SP:F9 CYC:16781
FA4F  C9 FF     CMP #$FF                        A:FF X:02 Y:99 P:27 SP:F9 CYC:16783
FA51  D0 12     BNE $FA65                       A:FF X:02 Y:99 P:27 SP:F9 CYC:16785
FA53  60        RTS                             A:FF X:02 Y:99 P:27 SP:F9 CYC:16787
E9A0  A5 47     LDA $47 = FF                    A:FF X:02 Y:99 P:27 SP:FB CYC:16793
E9A2  C9 FF     CMP #$FF                        A:FF X:02 Y:99 P:A5 SP:FB CYC:16796
E9A4  F0 02     BEQ $E9A8                       A:FF X:02 Y:99 P:27 SP:FB CYC:16798
E9A8  C8        INY                             A:FF X:02 Y:99 P:27 SP:FB CYC:16800
E9A9  A9 37     LDA #$37                        A:FF X:02 Y:9A P:A5 SP:FB CYC:16802
E9AB  85 47     STA $47 = FF                    A:37 X:02 Y:9A P:25 SP:FB CYC:16804
E9AD  20 54 FA  JSR $FA54                       A:37 X:02 Y:9A P:25 SP:FB CYC:16807
FA54  24 01     BIT $01 = FF                    A:37 X:02 Y:9A P:25 SP:F9 CYC:16813
FA56  A9 F0     LDA #$F0                        A:37 X:02 Y:9A P:E5 SP:F9 CYC:16816
FA58  60        RTS                             A:F0 X:02 Y:9A P:E5 SP:F9 CYC:16818
E9B0  C7 47    *DCP $47 = 37                    A:F0 X:02 Y:9A P:E5 SP:FB CYC:16824
E9B2  EA        NOP                             A:F0 X:02 Y:9A P:E5 SP:FB CYC:16829
E9B3  EA        NOP                             A:F0 X:02 Y:9A P:E5 SP:FB CYC:16831
E9B4  EA        NOP                             A:F0 X:02 Y:9A P:E5 SP:FB CYC:16833
E9B5  EA        NOP                             A:F0 X:02 Y:9A P:E5 SP:FB CYC:16835
E9B6  20 59 FA  JSR $FA59                       A:F0 X:02 Y:9A P:E5 SP:FB CYC:16837
FA59  50 0A     BVC $FA65                       A:F0 X:02 Y:9A P:E5 SP:F9 CYC:16843
FA5B  F0 08     BEQ $FA65                       A:F0 X:02 Y:9A P:E5 SP:F9 CYC:16845
FA5D  10 06     BPL $FA65                       A:F0 X:02 Y:9A P:E5 SP:F9 CYC:16847
FA5F  90 04     BCC $FA65                       A:F0 X:02 Y:9A P:E5 SP:F9 CYC:16849
FA61  C9 F0     CMP #$F0                        A:F0 X:02 Y:9A P:E5 SP:F9 CYC:16851
FA63  F0 02     BEQ $FA67                       A:F0 X:02 Y:9A P:67 SP:F9 CYC:16853
FA67  60        RTS                             A:F0 X:02 Y:9A P:67 SP:F9 CYC:16855
E9B9  A5 47     LDA $47 = 36                    A:F0 X:02 Y:9A P:67 SP:FB CYC:16861
E9BB  C9 36     CMP #$36                        A:36 X:02 Y:9A P:65 SP:FB CYC:16864
E9BD  F0 02     BEQ $E9C1                       A:36 X:02 Y:9A P:67 SP:FB CYC:16866
E9C1  C8        INY                             A:36 X:02 Y:9A P:67 SP:FB CYC:16868
E9C2  A9 EB     LDA #$EB                        A:36 X:02 Y:9B P:E5 SP:FB CYC:16870
E9C4  8D 47 06  STA $0647 = 36                  A:EB X:02 Y:9B P:E5 SP:FB CYC:16872
E9C7  20 31 FA  JSR $FA31                       A:EB X:02 Y:9B P:E5 SP:FB CYC:16876
FA31  24 01     BIT $01 = FF                    A:EB X:02 Y:9B P:E5 SP:F9 CYC:16882
FA33  18        CLC                             A:EB X:02 Y:9B P:E5 SP:F9 CYC:16885
FA34  A9 40     LDA #$40                        A:EB X:02 Y:9B P:E4 SP:F9 CYC:16887
FA36  60        RTS                             A:40 X:02 Y:9B P:64 SP:F9 CYC:16889
E9CA  CF 47 06 *DCP $0647 = EB                  A:40 X:02 Y:9B P:64 SP:FB CYC:16895
E9CD  EA        NOP                             A:40 X:02 Y:9B P:64 SP:FB CYC:16901
E9CE  EA        NOP                             A:40 X:02 Y:9B P:64 SP:FB CYC:16903
E9CF  EA        NOP                             A:40 X:02 Y:9B P:64 SP:FB CYC:16905
E9D0  EA        NOP                             A:40 X:02 Y:9B P:64 SP:FB CYC:16907
E9D1  20 37 FA  JSR $FA37                       A:40 X:02 Y:9B P:64 SP:FB CYC:16909
FA37  50 2C     BVC $FA65                       A:40 X:02 Y:9B P:64 SP:F9 CYC:16915
FA39  B0 2A     BCS $FA65                       A:40 X:02 Y:9B P:64 SP:F9 CYC:16917
FA3B  30 28     BMI $FA65                       A:40 X:02 Y:9B P:64 SP:F9 CYC:16919
FA3D  C9 40     CMP #$40                        A:40 X:02 Y:9B P:64 SP:F9 CYC:16921
FA3F  D0 24     BNE $FA65                       A:40 X:02 Y:9B P:67 SP:F9 CYC:16923
FA41  60        RTS                             A:40 X:02 Y:9B P:67 SP:F9 CYC:16925
E9D4  AD 47 06  LDA $0647 = EA                  A:40 X:02 Y:9B P:67 SP:FB CYC:16931
E9D7  C9 EA     CMP #$EA                        A:EA X:02 Y:9B P:E5 SP:FB CYC:16935
E9D9  F0 02     BEQ $E9DD                       A:EA X:02 Y:9B P:67 SP:FB CYC:16937
E9DD  C8        INY                             A:EA X:02 Y:9B P:67 SP:FB CYC:16939
E9DE  A9 00     LDA #$00                        A:EA X:02 Y:9C P:E5 SP:FB CYC:16941
E9E0  8D 47 06  STA $0647 = EA                  A:00 X:02 Y:9C P:67 SP:FB CYC:16943
E9E3  20 42 FA  JSR $FA42                       A:00 X:02 Y:9C P:67 SP:FB CYC:16947
FA42  B8        CLV                             A:00 X:02 Y:9C P:67 SP:F9 CYC:16953
FA43  38        SEC                             A:00 X:02 Y:9C P:27 SP:F9 CYC:16955
FA44  A9 FF     LDA #$FF                        A:00 X:02 Y:9C P:27 SP:F9 CYC:16957
FA46  60        RTS                             A:FF X:02 Y:9C P:A5 SP:F9 CYC:16959
E9E6  CF 47 06 *DCP $0647 = 00                  A:FF X:02 Y:9C P:A5 SP:FB CYC:16965
E9E9  EA        NOP                             A:FF X:02 Y:9C P:27 SP:FB CYC:16971
E9EA  EA        NOP                             A:FF X:02 Y:9C P:27 SP:FB CYC:16973
E9EB  EA        NOP                             A:FF X:02 Y:9C P:27 SP:FB CYC:16975
E9EC  EA        NOP                             A:FF X:02 Y:9C P:27 SP:FB CYC:16977
E9ED  20 47 FA  JSR $FA47                       A:FF X:02 Y:9C P:27 SP:FB CYC:16979
FA47  70 1C     BVS $FA65                       A:FF X:02 Y:9C P:27 SP:F9 CYC:16985
FA49  D0 1A     BNE $FA65                       A:FF X:02 Y:9C P:27 SP:F9 CYC:16987
FA4B  30 18     BMI $FA65                       A:FF X:02 Y:9C P:27 SP:F9 CYC:16989
FA4D  90 16     BCC $FA65                       A:FF X:02 Y:9C P:27 SP:F9 CYC:16991
FA4F  C9 FF     CMP #$FF                        A:FF X:02 Y:9C P:27 SP:F9 CYC:16993
FA51  D0 12     BNE $FA65                       A:FF X:02 Y:9C P:27 SP:F9 CYC:16995
FA53  60        RTS                             A:FF X:02 Y:9C P:27 SP:F9 CYC:16997
E9F0  AD 47 06  LDA $0647 = FF                  A:FF X:02 Y:9C P:27 SP:FB CYC:17003
E9F3  C9 FF     CMP #$FF                        A:FF X:02 Y:9C P:A5 SP:FB CYC:17007
E9F5  F0 02     BEQ $E9F9                       A:FF X:02 Y:9C P:27 SP:FB CYC:17009
E9F9  C8        INY                             A:FF X:02 Y:9C P:27 SP:FB CYC:17011
E9FA  A9 37     LDA #$37                        A:FF X:02 Y:9D P:A5 SP:FB CYC:17013
E9FC  8D 47 06  STA $0647 = FF                  A:37 X:02 Y:9D P:25 SP:FB CYC:17015
E9FF  20 54 FA  JSR $FA54                       A:37 X:02 Y:9D P:25 SP:FB CYC:17019
FA54  24 01     BIT $01 = FF                    A:37 X:02 Y:9D P:25 SP:F9 CYC:17025
FA56  A9 F0     LDA #$F0                        A:37 X:02 Y:9D P:E5 SP:F9 CYC:17028
FA58  60        RTS                             A:F0 X:02 Y:9D P:E5 SP:F9 CYC:17030
EA02  CF 47 06 *DCP $0647 = 37                  A:F0 X:02 Y:9D P:E5 SP:FB CYC:17036
EA05  EA        NOP                             A:F0 X:02 Y:9D P:E5 SP:FB CYC:17042
EA06  EA        NOP                             A:F0 X:02 Y:9D P:E5 SP:FB CYC:17044
EA07  EA        NOP                             A:F0 X:02 Y:9D P:E5 SP:FB CYC:17046
EA08  EA        NOP                             A:F0 X:02 Y:9D P:E5 SP:FB CYC:17048
EA09  20 59 FA  JSR $FA59                       A:F0 X:02 Y:9D P:E5 SP:FB CYC:17050
FA59  50 0A     BVC $FA65                       A:F0 X:02 Y:9D P:E5 SP:F9 CYC:17056
FA5B  F0 08     BEQ $FA65                       A:F0 X:02 Y:9D P:E5 SP:F9 CYC:17058
FA5D  10 06     BPL $FA65                       A:F0 X:02 Y:9D P:E5 SP:F9 CYC:17060
FA5F  90 04     BCC $FA65                       A:F0 X:02 Y:9D P:E5 SP:F9 CYC:17062
FA61  C9 F0     CMP #$F0                        A:F0 X:02 Y:9D P:E5 SP:F9 CYC:17064
FA63  F0 02     BEQ $FA67                       A:F0 X:02 Y:9D P:67 SP:F9 CYC:17066
FA67  60        RTS                             A:F0 X:02 Y:9D P:67 SP:F9 CYC:17068
EA0C  AD 47 06  LDA $0647 = 36                  A:F0 X:02 Y:9D P:67 SP:FB CYC:17074
EA0F  C9 36     CMP #$36                        A:36 X:02 Y:9D P:65 SP:FB CYC:17078
EA11  F0 02     BEQ $EA15                       A:36 X:02 Y:9D P:67 SP:FB CYC:17080
EA15  A9 EB     LDA #$EB                        A:36 X:02 Y:9D P:67 SP:FB CYC:17082
EA17  8D 47 06  STA $0647 = 36                  A:EB X:02 Y:9D P:E5 SP:FB CYC:17084
EA1A  A9 48     LDA #$48                        A:EB X:02 Y:9D P:E5 SP:FB CYC:17088
EA1C  85 45     STA $45 = 32                    A:48 X:02 Y:9D P:65 SP:FB CYC:17090
EA1E  A9 05     LDA #$05                        A:48 X:02 Y:9D P:65 SP:FB CYC:17093
EA20  85 46     STA $46 = 04                    A:05 X:02 Y:9D P:65 SP:FB CYC:17095
EA22  A0 FF     LDY #$FF                        A:05 X:02 Y:9D P:65 SP:FB CYC:17098
EA24  20 31 FA  JSR $FA31                       A:05 X:02 Y:FF P:E5 SP:FB CYC:17100
FA31  24 01     BIT $01 = FF                    A:05 X:02 Y:FF P:E5 SP:F9 CYC:17106
FA33  18        CLC                             A:05 X:02 Y:FF P:E5 SP:F9 CYC:17109
FA34  A9 40     LDA #$40                        A:05 X:02 Y:FF P:E4 SP:F9 CYC:17111
FA36  60        RTS                             A:40 X:02 Y:FF P:64 SP:F9 CYC:17113
EA27  D3 45    *DCP ($45),Y = 0548 @ 0647 = EB  A:40 X:02 Y:FF P:64 SP:FB CYC:17119
EA29  EA        NOP                             A:40 X:02 Y:FF P:64 SP:FB CYC:17127
EA2A  EA        NOP                             A:40 X:02 Y:FF P:64 SP:FB CYC:17129
EA2B  08        PHP                             A:40 X:02 Y:FF P:64 SP:FB CYC:17131
EA2C  48        PHA                             A:40 X:02 Y:FF P:64 SP:FA CYC:17134
EA2D  A0 9E     LDY #$9E                        A:40 X:02 Y:FF P:64 SP:F9 CYC:17137
EA2F  68        PLA                             A:40 X:02 Y:9E P:E4 SP:F9 CYC:17139
EA30  28        PLP                             A:40 X:02 Y:9E P:64 SP:FA CYC:17143
EA31  20 37 FA  JSR $FA37                       A:40 X:02 Y:9E P:64 SP:FB CYC:17147
FA37  50 2C     BVC $FA65                       A:40 X:02 Y:9E P:64 SP:F9 CYC:17153
FA39  B0 2A     BCS $FA65                       A:40 X:02 Y:9E P:64 SP:F9 CYC:17155
FA3B  30 28     BMI $FA65                       A:40 X:02 Y:9E P:64 SP:F9 CYC:17157
FA3D  C9 40     CMP #$40                        A:40 X:02 Y:9E P:64 SP:F9 CYC:17159
FA3F  D0 24     BNE $FA65                       A:40 X:02 Y:9E P:67 SP:F9 CYC:17161
FA41  60        RTS                             A:40 X:02 Y:9E P:67 SP:F9 CYC:17163
EA34  AD 47 06  LDA $0647 = EA                  A:40 X:02 Y:9E P:67 SP:FB CYC:17169
EA37  C9 EA     CMP #$EA                        A:EA X:02 Y:9E P:E5 SP:FB CYC:17173
EA39  F0 02     BEQ $EA3D                       A:EA X:02 Y:9E P:67 SP:FB CYC:17175
EA3D  A0 FF     LDY #$FF                        A:EA X:02 Y:9E P:67 SP:FB CYC:17177
EA3F  A9 00     LDA #$00                        A:EA X:02 Y:FF P:E5 SP:FB CYC:17179
EA41  8D 47 06  STA $0647 = EA                  A:00 X:02 Y:FF P:67 SP:FB CYC:17181
EA44  20 42 FA  JSR $FA42                       A:00 X:02 Y:FF P:67 SP:FB CYC:17185
FA42  B8        CLV                             A:00 X:02 Y:FF P:67 SP:F9 CYC:17191
FA43  38        SEC                             A:00 X:02 Y:FF P:27 SP:F9 CYC:17193
FA44  A9 FF     LDA #$FF                        A:00 X:02 Y:FF P:27 SP:F9 CYC:17195
FA46  60        RTS                             A:FF X:02 Y:FF P:A5 SP:F9 CYC:17197
EA47  D3 45    *DCP ($45),Y = 0548 @ 0647 = 00  A:FF X:02 Y:FF P:A5 SP:FB CYC:17203
EA49  EA        NOP                             A:FF X:02 Y:FF P:27 SP:FB CYC:17211
EA4A  EA        NOP                             A:FF X:02 Y:FF P:27 SP:FB CYC:17213
EA4B  08        PHP                             A:FF X:02 Y:FF P:27 SP:FB CYC:17215
EA4C  48        PHA                             A:FF X:02 Y:FF P:27 SP:FA CYC:17218
EA4D  A0 9F     LDY #$9F                        A:FF X:02 Y:FF P:27 SP:F9 CYC:17221
EA4F  68        PLA                             A:FF X:02 Y:9F P:A5 SP:F9 CYC:17223
EA50  28        PLP                             A:FF X:02 Y:9F P:A5 SP:FA CYC:17227
EA51  20 47 FA  JSR $FA47                       A:FF X:02 Y:9F P:27 SP:FB CYC:17231
FA47  70 1C     BVS $FA65                       A:FF X:02 Y:9F P:27 SP:F9 CYC:17237
FA49  D0 1A     BNE $FA65                       A:FF X:02 Y:9F P:27 SP:F9 CYC:17239
FA4B  30 18     BMI $FA65                       A:FF X:02 Y:9F P:27 SP:F9 CYC:17241
FA4D  90 16     BCC $FA65                       A:FF X:02 Y:9F P:27 SP:F9 CYC:17243
FA4F  C9 FF     CMP #$FF                        A:FF X:02 Y:9F P:27 SP:F9 CYC:17245
FA51  D0 12     BNE $FA65                       A:FF X:02 Y:9F P:27 SP:F9 CYC:17247
FA53  60        RTS                             A:FF X:02 Y:9F P:27 SP:F9 CYC:17249
EA54  AD 47 06  LDA $0647 = FF                  A:FF X:02 Y:9F P:27 SP:FB CYC:17255
EA57  C9 FF     CMP #$FF                        A:FF X:02 Y:9F P:A5 SP:FB CYC:17259
EA59  F0 02     BEQ $EA5D                       A:FF X:02 Y:9F P:27 SP:FB CYC:17261
EA5D  A0 FF     LDY #$FF                        A:FF X:02 Y:9F P:27 SP:FB CYC:17263
EA5F  A9 37     LDA #$37                        A:FF X:02 Y:FF P:A5 SP:FB CYC:17265
EA61  8D 47 06  STA $0647 = FF                  A:37 X:02 Y:FF P:25 SP:FB CYC:17267
EA64  20 54 FA  JSR $FA54                       A:37 X:02 Y:FF P:25 SP:FB CYC:17271
FA54  24 01     BIT $01 = FF                    A:37 X:02 Y:FF P:25 SP:F9 CYC:17277
FA56  A9 F0     LDA #$F0                        A:37 X:02 Y:FF P:E5 SP:F9 CYC:17280
FA58  60        RTS                             A:F0 X:02 Y:FF P:E5 SP:F9 CYC:17282
EA67  D3 45    *DCP ($45),Y = 0548 @ 0647 = 37  A:F0 X:02 Y:FF P:E5 SP:FB CYC:17288
EA69  EA        NOP                             A:F0 X:02 Y:FF P:E5 SP:FB CYC:17296
EA6A  EA        NOP                             A:F0 X:02 Y:FF P:E5 SP:FB CYC:17298
EA6B  08        PHP                             A:F0 X:02 Y:FF P:E5 SP:FB CYC:17300
EA6C  48        PHA                             A:F0 X:02 Y:FF P:E5 SP:FA CYC:17303
EA6D  A0 A0     LDY #$A0                        A:F0 X:02 Y:FF P:E5 SP:F9 CYC:17306
EA6F  68        PLA                             A:F0 X:02 Y:A0 P:E5 SP:F9 CYC:17308
EA70  28        PLP                             A:F0 X:02 Y:A0 P:E5 SP:FA CYC:17312
EA71  20 59 FA  JSR $FA59                       A:F0 X:02 Y:A0 P:E5 SP:FB CYC:17316
FA59  50 0A     BVC $FA65                       A:F0 X:02 Y:A0 P:E5 SP:F9 CYC:17322
FA5B  F0 08     BEQ $FA65                       A:F0 X:02 Y:A0 P:E5 SP:F9 CYC:17324
FA5D  10 06     BPL $FA65                       A:F0 X:02 Y:A0 P:E5 SP:F9 CYC:17326
FA5F  90 04     BCC $FA65                       A:F0 X:02 Y:A0 P:E5 SP:F9 CYC:17328
FA61  C9 F0     CMP #$F0                        A:F0 X:02 Y:A0 P:E5 SP:F9 CYC:17330
FA63  F0 02     BEQ $FA67                       A:F0 X:02 Y:A0 P:67 SP:F9 CYC:17332
FA67  60        RTS                             A:F0 X:02 Y:A0 P:67 SP:F9 CYC:17334
EA74  AD 47 06  LDA $0647 = 36                  A:F0 X:02 Y:A0 P:67 SP:FB CYC:17340
EA77  C9 36     CMP #$36                        A:36 X:02 Y:A0 P:65 SP:FB CYC:17344
EA79  F0 02     BEQ $EA7D                       A:36 X:02 Y:A0 P:67 SP:FB CYC:17346
EA7D  A0 A1     LDY #$A1                        A:36 X:02 Y:A0 P:67 SP:FB CYC:17348
EA7F  A2 FF     LDX #$FF                        A:36 X:02 Y:A1 P:E5 SP:FB CYC:17350
EA81  A9 EB     LDA #$EB                        A:36 X:FF Y:A1 P:E5 SP:FB CYC:17352
EA83  85 47     STA $47 = 36                    A:EB X:FF Y:A1 P:E5 SP:FB CYC:17354
EA85  20 31 FA  JSR $FA31                       A:EB X:FF Y:A1 P:E5 SP:FB CYC:17357
FA31  24 01     BIT $01 = FF                    A:EB X:FF Y:A1 P:E5 SP:F9 CYC:17363
FA33  18        CLC                             A:EB X:FF Y:A1 P:E5 SP:F9 CYC:17366
FA34  A9 40     LDA #$40                        A:EB X:FF Y:A1 P:E4 SP:F9 CYC:17368
FA36  60        RTS                             A:40 X:FF Y:A1 P:64 SP:F9 CYC:17370
EA88  D7 48    *DCP $48,X @ 47 = EB             A:40 X:FF Y:A1 P:64 SP:FB CYC:17376
EA8A  EA        NOP                             A:40 X:FF Y:A1 P:64 SP:FB CYC:17382
EA8B  EA        NOP                             A:40 X:FF Y:A1 P:64 SP:FB CYC:17384
EA8C  EA        NOP                             A:40 X:FF Y:A1 P:64 SP:FB CYC:17386
EA8D  EA        NOP                             A:40 X:FF Y:A1 P:64 SP:FB CYC:17388
EA8E  20 37 FA  JSR $FA37                       A:40 X:FF Y:A1 P:64 SP:FB CYC:17390
FA37  50 2C     BVC $FA65                       A:40 X:FF Y:A1 P:64 SP:F9 CYC:17396
FA39  B0 2A     BCS $FA65                       A:40 X:FF Y:A1 P:64 SP:F9 CYC:17398
FA3B  30 28     BMI $FA65                       A:40 X:FF Y:A1 P:64 SP:F9 CYC:17400
FA3D  C9 40     CMP #$40                        A:40 X:FF Y:A1 P:64 SP:F9 CYC:17402
FA3F  D0 24     BNE $FA65                       A:40 X:FF Y:A1 P:67 SP:F9 CYC:17404
FA41  60        RTS                             A:40 X:FF Y:A1 P:67 SP:F9 CYC:17406
EA91  A5 47     LDA $47 = EA                    A:40 X:FF Y:A1 P:67 SP:FB CYC:17412
EA93  C9 EA     CMP #$EA                        A:EA X:FF Y:A1 P:E5 SP:FB CYC:17415
EA95  F0 02     BEQ $EA99                       A:EA X:FF Y:A1 P:67 SP:FB CYC:17417
EA99  C8        INY                             A:EA X:FF Y:A1 P:67 SP:FB CYC:17419
EA9A  A9 00     LDA #$00                        A:EA X:FF Y:A2 P:E5 SP:FB CYC:17421
EA9C  85 47     STA $47 = EA                    A:00 X:FF Y:A2 P:67 SP:FB CYC:17423
EA9E  20 42 FA  JSR $FA42                       A:00 X:FF Y:A2 P:67 SP:FB CYC:17426
FA42  B8        CLV                             A:00 X:FF Y:A2 P:67 SP:F9 CYC:17432
FA43  38        SEC                             A:00 X:FF Y:A2 P:27 SP:F9 CYC:17434
FA44  A9 FF     LDA #$FF                        A:00 X:FF Y:A2 P:27 SP:F9 CYC:17436
FA46  60        RTS                             A:FF X:FF Y:A2 P:A5 SP:F9 CYC:17438
EAA1  D7 48    *DCP $48,X @ 47 = 00             A:FF X:FF Y:A2 P:A5 SP:FB CYC:17444
EAA3  EA        NOP                             A:FF X:FF Y:A2 P:27 SP:FB CYC:17450
EAA4  EA        NOP                             A:FF X:FF Y:A2 P:27 SP:FB CYC:17452
EAA5  EA        NOP                             A:FF X:FF Y:A2 P:27 SP:FB CYC:17454
EAA6  EA        NOP                             A:FF X:FF Y:A2 P:27 SP:FB CYC:17456
EAA7  20 47 FA  JSR $FA47                       A:FF X:FF Y:A2 P:27 SP:FB CYC:17458
FA47  70 1C     BVS $FA65                       A:FF X:FF Y:A2 P:27 SP:F9 CYC:17464
FA49  D0 1A     BNE $FA65                       A:FF X:FF Y:A2 P:27 SP:F9 CYC:17466
FA4B  30 18     BMI $FA65                       A:FF X:FF Y:A2 P:27 SP:F9 CYC:17468
FA4D  90 16     BCC $FA65                       A:FF X:FF Y:A2 P:27 SP:F9 CYC:17470
FA4F  C9 FF     CMP #$FF                        A:FF X:FF Y:A2 P:27 SP:F9 CYC:17472
FA51  D0 12     BNE $FA65                       A:FF X:FF Y:A2 P:27 SP:F9 CYC:17474
FA53  60        RTS                             A:FF X:FF Y:A2 P:27 SP:F9 CYC:17476
EAAA  A5 47     LDA $47 = FF                    A:FF X:FF Y:A2 P:27 SP:FB CYC:17482
EAAC  C9 FF     CMP #$FF                        A:FF X:FF Y:A2 P:A5 SP:FB CYC:17485
EAAE  F0 02     BEQ $EAB2                       A:FF X:FF Y:A2 P:27 SP:FB CYC:17487
EAB2  C8        INY                             A:FF X:FF Y:A2 P:27 SP:FB CYC:17489
EAB3  A9 37     LDA #$37                        A:FF X:FF Y:A3 P:A5 SP:FB CYC:17491
EAB5  85 47     STA $47 = FF                    A:37 X:FF Y:A3 P:25 SP:FB CYC:17493
EAB7  20 54 FA  JSR $FA54                       A:37 X:FF Y:A3 P:25 SP:FB CYC:17496
FA54  24 01     BIT $01 = FF                    A:37 X:FF Y:A3 P:25 SP:F9 CYC:17502
FA56  A9 F0     LDA #$F0                        A:37 X:FF Y:A3 P:E5 SP:F9 CYC:17505
FA58  60        RTS                             A:F0 X:FF Y:A3 P:E5 SP:F9 CYC:17507
EABA  D7 48    *DCP $48,X @ 47 = 37             A:F0 X:FF Y:A3 P:E5 SP:FB CYC:17513
EABC  EA        NOP                             A:F0 X:FF Y:A3 P:E5 SP:FB CYC:17519
EABD  EA        NOP                             A:F0 X:FF Y:A3 P:E5 SP:FB CYC:17521
EABE  EA        NOP                             A:F0 X:FF Y:A3 P:E5 SP:FB CYC:17523
EABF  EA        NOP                             A:F0 X:FF Y:A3 P:E5 SP:FB CYC:17525
EAC0  20 59 FA  JSR $FA59                       A:F0 X:FF Y:A3 P:E5 SP:FB CYC:17527
FA59  50 0A     BVC $FA65                       A:F0 X:FF Y:A3 P:E5 SP:F9 CYC:17533
FA5B  F0 08     BEQ $FA65                       A:F0 X:FF Y:A3 P:E5 SP:F9 CYC:17535
FA5D  10 06     BPL $FA65                       A:F0 X:FF Y:A3 P:E5 SP:F9 CYC:17537
FA5F  90 04     BCC $FA65                       A:F0 X:FF Y:A3 P:E5 SP:F9 CYC:17539
FA61  C9 F0     CMP #$F0                        A:F0 X:FF Y:A3 P:E5 SP:F9 CYC:17541
FA63  F0 02     BEQ $FA67                       A:F0 X:FF Y:A3 P:67 SP:F9 CYC:17543
FA67  60        RTS                             A:F0 X:FF Y:A3 P:67 SP:F9 CYC:17545
EAC3  A5 47     LDA $47 = 36                    A:F0 X:FF Y:A3 P:67 SP:FB CYC:17551
EAC5  C9 36     CMP #$36                        A:36 X:FF Y:A3 P:65 SP:FB CYC:17554
EAC7  F0 02     BEQ $EACB                       A:36 X:FF Y:A3 P:67 SP:FB CYC:17556
EACB  A9 EB     LDA #$EB                        A:36 X:FF Y:A3 P:67 SP:FB CYC:17558
EACD  8D 47 06  STA $0647 = 36                  A:EB X:FF Y:A3 P:E5 SP:FB CYC:17560
EAD0  A0 FF     LDY #$FF                        A:EB X:FF Y:A3 P:E5 SP:FB CYC:17564
EAD2  20 31 FA  JSR $FA31                       A:EB X:FF Y:FF P:E5 SP:FB CYC:17566
FA31  24 01     BIT $01 = FF                    A:EB X:FF Y:FF P:E5 SP:F9 CYC:17572
FA33  18        CLC                             A:EB X:FF Y:FF P:E5 SP:F9 CYC:17575
FA34  A9 40     LDA #$40                        A:EB X:FF Y:FF P:E4 SP:F9 CYC:17577
FA36  60        RTS                             A:40 X:FF Y:FF P:64 SP:F9 CYC:17579
EAD5  DB 48 05 *DCP $0548,Y @ 0647 = EB         A:40 X:FF Y:FF P:64 SP:FB CYC:17585
EAD8  EA        NOP                             A:40 X:FF Y:FF P:64 SP:FB CYC:17592
EAD9  EA        NOP                             A:40 X:FF Y:FF P:64 SP:FB CYC:17594
EADA  08        PHP                             A:40 X:FF Y:FF P:64 SP:FB CYC:17596
EADB  48        PHA                             A:40 X:FF Y:FF P:64 SP:FA CYC:17599
EADC  A0 A4     LDY #$A4                        A:40 X:FF Y:FF P:64 SP:F9 CYC:17602
EADE  68        PLA                             A:40 X:FF Y:A4 P:E4 SP:F9 CYC:17604
EADF  28        PLP                             A:40 X:FF Y:A4 P:64 SP:FA CYC:17608
EAE0  20 37 FA  JSR $FA37                       A:40 X:FF Y:A4 P:64 SP:FB CYC:17612
FA37  50 2C     BVC $FA65                       A:40 X:FF Y:A4 P:64 SP:F9 CYC:17618
FA39  B0 2A     BCS $FA65                       A:40 X:FF Y:A4 P:64 SP:F9 CYC:17620
FA3B  30 28     BMI $FA65                       A:40 X:FF Y:A4 P:64 SP:F9 CYC:17622
FA3D  C9 40     CMP #$40                        A:40 X:FF Y:A4 P:64 SP:F9 CYC:17624
FA3F  D0 24     BNE $FA65                       A:40 X:FF Y:A4 P:67 SP:F9 CYC:17626
FA41  60        RTS                             A:40 X:FF Y:A4 P:67 SP:F9 CYC:17628
EAE3  AD 47 06  LDA $0647 = EA                  A:40 X:FF Y:A4 P:67 SP:FB CYC:17634
EAE6  C9 EA     CMP #$EA                        A:EA X:FF Y:A4 P:E5 SP:FB CYC:17638
EAE8  F0 02     BEQ $EAEC                       A:EA X:FF Y:A4 P:67 SP:FB CYC:17640
EAEC  A0 FF     LDY #$FF                        A:EA X:FF Y:A4 P:67 SP:FB CYC:17642
EAEE  A9 00     LDA #$00                        A:EA X:FF Y:FF P:E5 SP:FB CYC:17644
EAF0  8D 47 06  STA $0647 = EA                  A:00 X:FF Y:FF P:67 SP:FB CYC:17646
EAF3  20 42 FA  JSR $FA42                       A:00 X:FF Y:FF P:67 SP:FB CYC:17650
FA42  B8        CLV                             A:00 X:FF Y:FF P:67 SP:F9 CYC:17656
FA43  38        SEC                             A:00 X:FF Y:FF P:27 SP:F9 CYC:17658
FA44  A9 FF     LDA #$FF                        A:00 X:FF Y:FF P:27 SP:F9 CYC:17660
FA46  60        RTS                             A:FF X:FF Y:FF P:A5 SP:F9 CYC:17662
EAF6  DB 48 05 *DCP $0548,Y @ 0647 = 00         A:FF X:FF Y:FF P:A5 SP:FB CYC:17668
EAF9  EA        NOP                             A:FF X:FF Y:FF P:27 SP:FB CYC:17675
EAFA  EA        NOP                             A:FF X:FF Y:FF P:27 SP:FB CYC:17677
EAFB  08        PHP                             A:FF X:FF Y:FF P:27 SP:FB CYC:17679
EAFC  48        PHA                             A:FF X:FF Y:FF P:27 SP:FA CYC:17682
EAFD  A0 A5     LDY #$A5                        A:FF X:FF Y:FF P:27 SP:F9 CYC:17685
EAFF  68        PLA                             A:FF X:FF Y:A5 P:A5 SP:F9 CYC:17687
EB00  28        PLP                             A:FF X:FF Y:A5 P:A5 SP:FA CYC:17691
EB01  20 47 FA  JSR $FA47                       A:FF X:FF Y:A5 P:27 SP:FB CYC:17695
FA47  70 1C     BVS $FA65                       A:FF X:FF Y:A5 P:27 SP:F9 CYC:17701
FA49  D0 1A     BNE $FA65                       A:FF X:FF Y:A5 P:27 SP:F9 CYC:17703
FA4B  30 18     BMI $FA65                       A:FF X:FF Y:A5 P:27 SP:F9 CYC:17705
FA4D  90 16     BCC $FA65                       A:FF X:FF Y:A5 P:27 SP:F9 CYC:17707
FA4F  C9 FF     CMP #$FF                        A:FF X:FF Y:A5 P:27 SP:F9 CYC:17709
FA51  D0 12     BNE $FA65                       A:FF X:FF Y:A5 P:27 SP:F9 CYC:17711
FA53  60        RTS                             A:FF X:FF Y:A5 P:27 SP:F9 CYC:17713
EB04  AD 47 06  LDA $0647 = FF                  A:FF X:FF Y:A5 P:27 SP:FB CYC:17719
EB07  C9 FF     CMP #$FF                        A:FF X:FF Y:A5 P:A5 SP:FB CYC:17723
EB09  F0 02     BEQ $EB0D                       A:FF X:FF Y:A5 P:27 SP:FB CYC:17725
EB0D  A0 FF     LDY #$FF                        A:FF X:FF Y:A5 P:27 SP:FB CYC:17727
EB0F  A9 37     LDA #$37                        A:FF X:FF Y:FF P:A5 SP:FB CYC:17729
EB11  8D 47 06  STA $0647 = FF                  A:37 X:FF Y:FF P:25 SP:FB CYC:17731
EB14  20 54 FA  JSR $FA54                       A:37 X:FF Y:FF P:25 SP:FB CYC:17735
FA54  24 01     BIT $01 = FF                    A:37 X:FF Y:FF P:25 SP:F9 CYC:17741
FA56  A9 F0     LDA #$F0                        A:37 X:FF Y:FF P:E5 SP:F9 CYC:17744
FA58  60        RTS                             A:F0 X:FF Y:FF P:E5 SP:F9 CYC:17746
EB17  DB 48 05 *DCP $0548,Y @ 0647 = 37         A:F0 X:FF Y:FF P:E5 SP:FB CYC:17752
EB1A  EA        NOP                             A:F0 X:FF Y:FF P:E5 SP:FB CYC:17759
EB1B  EA        NOP                             A:F0 X:FF Y:FF P:E5 SP:FB CYC:17761
EB1C  08        PHP                             A:F0 X:FF Y:FF P:E5 SP:FB CYC:17763
EB1D  48        PHA                             A:F0 X:FF Y:FF P:E5 SP:FA CYC:17766
EB1E  A0 A6     LDY #$A6                        A:F0 X:FF Y:FF P:E5 SP:F9 CYC:17769
EB20  68        PLA                             A:F0 X:FF Y:A6 P:E5 SP:F9 CYC:17771
EB21  28        PLP                             A:F0 X:FF Y:A6 P:E5 SP:FA CYC:17775
EB22  20 59 FA  JSR $FA59                       A:F0 X:FF Y:A6 P:E5 SP:FB CYC:17779
FA59  50 0A     BVC $FA65                       A:F0 X:FF Y:A6 P:E5 SP:F9 CYC:17785
FA5B  F0 08     BEQ $FA65                       A:F0 X:FF Y:A6 P:E5 SP:F9 CYC:17787
FA5D  10 06     BPL $FA65                       A:F0 X:FF Y:A6 P:E5 SP:F9 CYC:17789
FA5F  90 04     BCC $FA65                       A:F0 X:FF Y:A6 P:E5 SP:F9 CYC:17791
FA61  C9 F0     CMP #$F0                        A:F0 X:FF Y:A6 P:E5 SP:F9 CYC:17793
FA63  F0 02     BEQ $FA67                       A:F0 X:FF Y:A6 P:67 SP:F9 CYC:17795
FA67  60        RTS                             A:F0 X:FF Y:A6 P:67 SP:F9 CYC:17797
EB25  AD 47 06  LDA $0647 = 36                  A:F0 X:FF Y:A6 P:67 SP:FB CYC:17803
EB28  C9 36     CMP #$36                        A:36 X:FF Y:A6 P:65 SP:FB CYC:17807
EB2A  F0 02     BEQ $EB2E                       A:36 X:FF Y:A6 P:67 SP:FB CYC:17809
EB2E  A0 A7     LDY #$A7                        A:36 X:FF Y:A6 P:67 SP:FB CYC:17811
EB30  A2 FF     LDX #$FF                        A:36 X:FF Y:A7 P:E5 SP:FB CYC:17813
EB32  A9 EB     LDA #$EB                        A:36 X:FF Y:A7 P:E5 SP:FB CYC:17815
EB34  8D 47 06  STA $0647 = 36                  A:EB X:FF Y:A7 P:E5 SP:FB CYC:17817
EB37  20 31 FA  JSR $FA31                       A:EB X:FF Y:A7 P:E5 SP:FB CYC:17821
FA31  24 01     BIT $01 = FF                    A:EB X:FF Y:A7 P:E5 SP:F9 CYC:17827
FA33  18        CLC                             A:EB X:FF Y:A7 P:E5 SP:F9 CYC:17830
FA34  A9 40     LDA #$40                        A:EB X:FF Y:A7 P:E4 SP:F9 CYC:17832
FA36  60        RTS                             A:40 X:FF Y:A7 P:64 SP:F9 CYC:17834
EB3A  DF 48 05 *DCP $0548,X @ 0647 = EB         A:40 X:FF Y:A7 P:64 SP:FB CYC:17840
EB3D  EA        NOP                             A:40 X:FF Y:A7 P:64 SP:FB CYC:17847
EB3E  EA        NOP                             A:40 X:FF Y:A7 P:64 SP:FB CYC:17849
EB3F  EA        NOP                             A:40 X:FF Y:A7 P:64 SP:FB CYC:17851
EB40  EA        NOP                             A:40 X:FF Y:A7 P:64 SP:FB CYC:17853
EB41  20 37 FA  JSR $FA37                       A:40 X:FF Y:A7 P:64 SP:FB CYC:17855
FA37  50 2C     BVC $FA65                       A:40 X:FF Y:A7 P:64 SP:F9 CYC:17861
FA39  B0 2A     BCS $FA65                       A:40 X:FF Y:A7 P:64 SP:F9 CYC:17863
FA3B  30 28     BMI $FA65                       A:40 X:FF Y:A7 P:64 SP:F9 CYC:17865
FA3D  C9 40     CMP #$40                        A:40 X:FF Y:A7 P:64 SP:F9 CYC:17867
FA3F  D0 24     BNE $FA65                       A:40 X:FF Y:A7 P:67 SP:F9 CYC:17869
FA41  60        RTS                             A:40 X:FF Y:A7 P:67 SP:F9 CYC:17871
EB44  AD 47 06  LDA $0647 = EA                  A:40 X:FF Y:A7 P:67 SP:FB CYC:17877
EB47  C9 EA     CMP #$EA                        A:EA X:FF Y:A7 P:E5 SP:FB CYC:17881
EB49  F0 02     BEQ $EB4D                       A:EA X:FF Y:A7 P:67 SP:FB CYC:17883
EB4D  C8        INY                             A:EA X:FF Y:A7 P:67 SP:FB CYC:17885
EB4E  A9 00     LDA #$00                        A:EA X:FF Y:A8 P:E5 SP:FB CYC:17887
EB50  8D 47 06  STA $0647 = EA                  A:00 X:FF Y:A8 P:67 SP:FB CYC:17889
EB53  20 42 FA  JSR $FA42                       A:00 X:FF Y:A8 P:67 SP:FB CYC:17893
FA42  B8        CLV                             A:00 X:FF Y:A8 P:67 SP:F9 CYC:17899
FA43  38        SEC                             A:00 X:FF Y:A8 P:27 SP:F9 CYC:17901
FA44  A9 FF     LDA #$FF                        A:00 X:FF Y:A8 P:27 SP:F9 CYC:17903
FA46  60        RTS                             A:FF X:FF Y:A8 P:A5 SP:F9 CYC:17905
EB56  DF 48 05 *DCP $0548,X @ 0647 = 00         A:FF X:FF Y:A8 P:A5 SP:FB CYC:17911
EB59  EA        NOP                             A:FF X:FF Y:A8 P:27 SP:FB CYC:17918
EB5A  EA        NOP                             A:FF X:FF Y:A8 P:27 SP:FB CYC:17920
EB5B  EA        NOP                             A:FF X:FF Y:A8 P:27 SP:FB CYC:17922
EB5C  EA        NOP                             A:FF X:FF Y:A8 P:27 SP:FB CYC:17924
EB5D  20 47 FA  JSR $FA47                       A:FF X:FF Y:A8 P:27 SP:FB CYC:17926
FA47  70 1C     BVS $FA65                       A:FF X:FF Y:A8 P:27 SP:F9 CYC:17932
FA49  D0 1A     BNE $FA65                       A:FF X:FF Y:A8 P:27 SP:F9 CYC:17934
FA4B  30 18     BMI $FA65                       A:FF X:FF Y:A8 P:27 SP:F9 CYC:17936
FA4D  90 16     BCC $FA65                       A:FF X:FF Y:A8 P:27 SP:F9 CYC:17938
FA4F  C9 FF     CMP #$FF                        A:FF X:FF Y:A8 P:27 SP:F9 CYC:17940
FA51  D0 12     BNE $FA65                       A:FF X:FF Y:A8 P:27 SP:F9 CYC:17942
FA53  60        RTS                             A:FF X:FF Y:A8 P:27 SP:F9 CYC:17944
EB60  AD 47 06  LDA $0647 = FF                  A:FF X:FF Y:A8 P:27 SP:FB CYC:17950
EB63  C9 FF     CMP #$FF                        A:FF X:FF Y:A8 P:A5 SP:FB CYC:17954
EB65  F0 02     BEQ $EB69                       A:FF X:FF Y:A8 P:27 SP:FB CYC:17956
EB69  C8        INY                             A:FF X:FF Y:A8 P:27 SP:FB CYC:17958
EB6A  A9 37     LDA #$37                        A:FF X:FF Y:A9 P:A5 SP:FB CYC:17960
EB6C  8D 47 06  STA $0647 = FF                  A:37 X:FF Y:A9 P:25 SP:FB CYC:17962
EB6F  20 54 FA  JSR $FA54                       A:37 X:FF Y:A9 P:25 SP:FB CYC:17966
FA54  24 01     BIT $01 = FF                    A:37 X:FF Y:A9 P:25 SP:F9 CYC:17972
FA56  A9 F0     LDA #$F0                        A:37 X:FF Y:A9 P:E5 SP:F9 CYC:17975
FA58  60        RTS                             A:F0 X:FF Y:A9 P:E5 SP:F9 CYC:17977
EB72  DF 48 05 *DCP $0548,X @ 0647 = 37         A:F0 X:FF Y:A9 P:E5 SP:FB CYC:17983
EB75  EA        NOP                             A:F0 X:FF Y:A9 P:E5 SP:FB CYC:17990
EB76  EA        NOP                             A:F0 X:FF Y:A9 P:E5 SP:FB CYC:17992
EB77  EA        NOP                             A:F0 X:FF Y:A9 P:E5 SP:FB CYC:17994
EB78  EA        NOP                             A:F0 X:FF Y:A9 P:E5 SP:FB CYC:17996
EB79  20 59 FA  JSR $FA59                       A:F0 X:FF Y:A9 P:E5 SP:FB CYC:17998
FA59  50 0A     BVC $FA65                       A:F0 X:FF Y:A9 P:E5 SP:F9 CYC:18004
FA5B  F0 08     BEQ $FA65                       A:F0 X:FF Y:A9 P:E5 SP:F9 CYC:18006
FA5D  10 06     BPL $FA65                       A:F0 X:FF Y:A9 P:E5 SP:F9 CYC:18008
FA5F  90 04     BCC $FA65                       A:F0 X:FF Y:A9 P:E5 SP:F9 CYC:18010
FA61  C9 F0     CMP #$F0                        A:F0 X:FF Y:A9 P:E5 SP:F9 CYC:18012
FA63  F0 02     BEQ $FA67                       A:F0 X:FF Y:A9 P:67 SP:F9 CYC:18014
FA67  60        RTS                             A:F0 X:FF Y:A9 P:67 SP:F9 CYC:18016
EB7C  AD 47 06  LDA $0647 = 36                  A:F0 X:FF Y:A9 P:67 SP:FB CYC:18022
EB7F  C9 36     CMP #$36                        A:36 X:FF Y:A9 P:65 SP:FB CYC:18026
EB81  F0 02     BEQ $EB85                       A:36 X:FF Y:A9 P:67 SP:FB CYC:18028
EB85  60        RTS                             A:36 X:FF Y:A9 P:67 SP:FB CYC:18030
C63E  20 86 EB  JSR $EB86                       A:36 X:FF Y:A9 P:67 SP:FD CYC:18036
EB86  A9 FF     LDA #$FF                        A:36 X:FF Y:A9 P:67 SP:FB CYC:18042
EB88  85 01     STA $01 = FF                    A:FF X:FF Y:A9 P:E5 SP:FB CYC:18044
EB8A  A0 AA     LDY #$AA                        A:FF X:FF Y:A9 P:E5 SP:FB CYC:18047
EB8C  A2 02     LDX #$02                        A:FF X:FF Y:AA P:E5 SP:FB CYC:18049
EB8E  A9 47     LDA #$47                        A:FF X:02 Y:AA P:65 SP:FB CYC:18051
EB90  85 47     STA $47 = 36                    A:47 X:02 Y:AA P:65 SP:FB CYC:18053
EB92  A9 06     LDA #$06                        A:47 X:02 Y:AA P:65 SP:FB CYC:18056
EB94  85 48     STA $48 = 06                    A:06 X:02 Y:AA P:65 SP:FB CYC:18058
EB96  A9 EB     LDA #$EB                        A:06 X:02 Y:AA P:65 SP:FB CYC:18061
EB98  8D 47 06  STA $0647 = 36                  A:EB X:02 Y:AA P:E5 SP:FB CYC:18063
EB9B  20 B1 FA  JSR $FAB1                       A:EB X:02 Y:AA P:E5 SP:FB CYC:18067
FAB1  24 01     BIT $01 = FF                    A:EB X:02 Y:AA P:E5 SP:F9 CYC:18073
FAB3  18        CLC                             A:EB X:02 Y:AA P:E5 SP:F9 CYC:18076
FAB4  A9 40     LDA #$40                        A:EB X:02 Y:AA P:E4 SP:F9 CYC:18078
FAB6  60        RTS                             A:40 X:02 Y:AA P:64 SP:F9 CYC:18080
EB9E  E3 45    *ISB ($45,X) @ 47 = 0647 = EB    A:40 X:02 Y:AA P:64 SP:FB CYC:18086
EBA0  EA        NOP                             A:53 X:02 Y:AA P:24 SP:FB CYC:18094
EBA1  EA        NOP                             A:53 X:02 Y:AA P:24 SP:FB CYC:18096
EBA2  EA        NOP                             A:53 X:02 Y:AA P:24 SP:FB CYC:18098
EBA3  EA        NOP                             A:53 X:02 Y:AA P:24 SP:FB CYC:18100
EBA4  20 B7 FA  JSR $FAB7                       A:53 X:02 Y:AA P:24 SP:FB CYC:18102
FAB7  70 2D     BVS $FAE6                       A:53 X:02 Y:AA P:24 SP:F9 CYC:18108
FAB9  B0 2B     BCS $FAE6                       A:53 X:02 Y:AA P:24 SP:F9 CYC:18110
FABB  30 29     BMI $FAE6                       A:53 X:02 Y:AA P:24 SP:F9 CYC:18112
FABD  C9 53     CMP #$53                        A:53 X:02 Y:AA P:24 SP:F9 CYC:18114
FABF  D0 25     BNE $FAE6                       A:53 X:02 Y:AA P:27 SP:F9 CYC:18116
FAC1  60        RTS                             A:53 X:02 Y:AA P:27 SP:F9 CYC:18118
EBA7  AD 47 06  LDA $0647 = EC                  A:53 X:02 Y:AA P:27 SP:FB CYC:18124
EBAA  C9 EC     CMP #$EC                        A:EC X:02 Y:AA P:A5 SP:FB CYC:18128
EBAC  F0 02     BEQ $EBB0                       A:EC X:02 Y:AA P:27 SP:FB CYC:18130
EBB0  C8        INY                             A:EC X:02 Y:AA P:27 SP:FB CYC:18132
EBB1  A9 FF     LDA #$FF                        A:EC X:02 Y:AB P:A5 SP:FB CYC:18134
EBB3  8D 47 06  STA $0647 = EC                  A:FF X:02 Y:AB P:A5 SP:FB CYC:18136
EBB6  20 C2 FA  JSR $FAC2                       A:FF X:02 Y:AB P:A5 SP:FB CYC:18140
FAC2  B8        CLV                             A:FF X:02 Y:AB P:A5 SP:F9 CYC:18146
FAC3  38        SEC                             A:FF X:02 Y:AB P:A5 SP:F9 CYC:18148
FAC4  A9 FF     LDA #$FF                        A:FF X:02 Y:AB P:A5 SP:F9 CYC:18150
FAC6  60        RTS                             A:FF X:02 Y:AB P:A5 SP:F9 CYC:18152
EBB9  E3 45    *ISB ($45,X) @ 47 = 0647 = FF    A:FF X:02 Y:AB P:A5 SP:FB CYC:18158
EBBB  EA        NOP                             A:FF X:02 Y:AB P:A5 SP:FB CYC:18166
EBBC  EA        NOP                             A:FF X:02 Y:AB P:A5 SP:FB CYC:18168
EBBD  EA        NOP                             A:FF X:02 Y:AB P:A5 SP:FB CYC:18170
EBBE  EA        NOP                             A:FF X:02 Y:AB P:A5 SP:FB CYC:18172
EBBF  20 C7 FA  JSR $FAC7                       A:FF X:02 Y:AB P:A5 SP:FB CYC:18174
FAC7  70 1D     BVS $FAE6                       A:FF X:02 Y:AB P:A5 SP:F9 CYC:18180
FAC9  F0 1B     BEQ $FAE6                       A:FF X:02 Y:AB P:A5 SP:F9 CYC:18182
FACB  10 19     BPL $FAE6                       A:FF X:02 Y:AB P:A5 SP:F9 CYC:18184
FACD  90 17     BCC $FAE6                       A:FF X:02 Y:AB P:A5 SP:F9 CYC:18186
FACF  C9 FF     CMP #$FF                        A:FF X:02 Y:AB P:A5 SP:F9 CYC:18188
FAD1  D0 13     BNE $FAE6                       A:FF X:02 Y:AB P:27 SP:F9 CYC:18190
FAD3  60        RTS                             A:FF X:02 Y:AB P:27 SP:F9 CYC:18192
EBC2  AD 47 06  LDA $0647 = 00                  A:FF X:02 Y:AB P:27 SP:FB CYC:18198
EBC5  C9 00     CMP #$00                        A:00 X:02 Y:AB P:27 SP:FB CYC:18202
EBC7  F0 02     BEQ $EBCB                       A:00 X:02 Y:AB P:27 SP:FB CYC:18204
EBCB  C8        INY                             A:00 X:02 Y:AB P:27 SP:FB CYC:18206
EBCC  A9 37     LDA #$37                        A:00 X:02 Y:AC P:A5 SP:FB CYC:18208
EBCE  8D 47 06  STA $0647 = 00                  A:37 X:02 Y:AC P:25 SP:FB CYC:18210
EBD1  20 D4 FA  JSR $FAD4                       A:37 X:02 Y:AC P:25 SP:FB CYC:18214
FAD4  24 01     BIT $01 = FF                    A:37 X:02 Y:AC P:25 SP:F9 CYC:18220
FAD6  38        SEC                             A:37 X:02 Y:AC P:E5 SP:F9 CYC:18223
FAD7  A9 F0     LDA #$F0                        A:37 X:02 Y:AC P:E5 SP:F9 CYC:18225
FAD9  60        RTS                             A:F0 X:02 Y:AC P:E5 SP:F9 CYC:18227
EBD4  E3 45    *ISB ($45,X) @ 47 = 0647 = 37    A:F0 X:02 Y:AC P:E5 SP:FB CYC:18233
EBD6  EA        NOP                             A:B8 X:02 Y:AC P:A5 SP:FB CYC:18241
EBD7  EA        NOP                             A:B8 X:02 Y:AC P:A5 SP:FB CYC:18243
EBD8  EA        NOP                             A:B8 X:02 Y:AC P:A5 SP:FB CYC:18245
EBD9  EA        NOP                             A:B8 X:02 Y:AC P:A5 SP:FB CYC:18247
EBDA  20 DA FA  JSR $FADA                       A:B8 X:02 Y:AC P:A5 SP:FB CYC:18249
FADA  70 0A     BVS $FAE6                       A:B8 X:02 Y:AC P:A5 SP:F9 CYC:18255
FADC  F0 08     BEQ $FAE6                       A:B8 X:02 Y:AC P:A5 SP:F9 CYC:18257
FADE  10 06     BPL $FAE6                       A:B8 X:02 Y:AC P:A5 SP:F9 CYC:18259
FAE0  90 04     BCC $FAE6                       A:B8 X:02 Y:AC P:A5 SP:F9 CYC:18261
FAE2  C9 B8     CMP #$B8                        A:B8 X:02 Y:AC P:A5 SP:F9 CYC:18263
FAE4  F0 02     BEQ $FAE8                       A:B8 X:02 Y:AC P:27 SP:F9 CYC:18265
FAE8  60        RTS                             A:B8 X:02 Y:AC P:27 SP:F9 CYC:18267
EBDD  AD 47 06  LDA $0647 = 38                  A:B8 X:02 Y:AC P:27 SP:FB CYC:18273
EBE0  C9 38     CMP #$38                        A:38 X:02 Y:AC P:25 SP:FB CYC:18277
EBE2  F0 02     BEQ $EBE6                       A:38 X:02 Y:AC P:27 SP:FB CYC:18279
EBE6  C8        INY                             A:38 X:02 Y:AC P:27 SP:FB CYC:18281
EBE7  A9 EB     LDA #$EB                        A:38 X:02 Y:AD P:A5 SP:FB CYC:18283
EBE9  85 47     STA $47 = 47                    A:EB X:02 Y:AD P:A5 SP:FB CYC:18285
EBEB  20 B1 FA  JSR $FAB1                       A:EB X:02 Y:AD P:A5 SP:FB CYC:18288
FAB1  24 01     BIT $01 = FF                    A:EB X:02 Y:AD P:A5 SP:F9 CYC:18294
FAB3  18        CLC                             A:EB X:02 Y:AD P:E5 SP:F9 CYC:18297
FAB4  A9 40     LDA #$40                        A:EB X:02 Y:AD P:E4 SP:F9 CYC:18299
FAB6  60        RTS                             A:40 X:02 Y:AD P:64 SP:F9 CYC:18301
EBEE  E7 47    *ISB $47 = EB                    A:40 X:02 Y:AD P:64 SP:FB CYC:18307
EBF0  EA        NOP                             A:53 X:02 Y:AD P:24 SP:FB CYC:18312
EBF1  EA        NOP                             A:53 X:02 Y:AD P:24 SP:FB CYC:18314
EBF2  EA        NOP                             A:53 X:02 Y:AD P:24 SP:FB CYC:18316
EBF3  EA        NOP                             A:53 X:02 Y:AD P:24 SP:FB CYC:18318
EBF4  20 B7 FA  JSR $FAB7                       A:53 X:02 Y:AD P:24 SP:FB CYC:18320
FAB7  70 2D     BVS $FAE6                       A:53 X:02 Y:AD P:24 SP:F9 CYC:18326
FAB9  B0 2B     BCS $FAE6                       A:53 X:02 Y:AD P:24 SP:F9 CYC:18328
FABB  30 29     BMI $FAE6                       A:53 X:02 Y:AD P:24 SP:F9 CYC:18330
FABD  C9 53     CMP #$53                        A:53 X:02 Y:AD P:24 SP:F9 CYC:18332
FABF  D0 25     BNE $FAE6                       A:53 X:02 Y:AD P:27 SP:F9 CYC:18334
FAC1  60        RTS                             A:53 X:02 Y:AD P:27 SP:F9 CYC:18336
EBF7  A5 47     LDA $47 = EC                    A:53 X:02 Y:AD P:27 SP:FB CYC:18342
EBF9  C9 EC     CMP #$EC                        A:EC X:02 Y:AD P:A5 SP:FB CYC:18345
EBFB  F0 02     BEQ $EBFF                       A:EC X:02 Y:AD P:27 SP:FB CYC:18347
EBFF  C8        INY                             A:EC X:02 Y:AD P:27 SP:FB CYC:18349
EC00  A9 FF     LDA #$FF                        A:EC X:02 Y:AE P:A5 SP:FB CYC:18351
EC02  85 47     STA $47 = EC                    A:FF X:02 Y:AE P:A5 SP:FB CYC:18353
EC04  20 C2 FA  JSR $FAC2                       A:FF X:02 Y:AE P:A5 SP:FB CYC:18356
FAC2  B8        CLV                             A:FF X:02 Y:AE P:A5 SP:F9 CYC:18362
FAC3  38        SEC                             A:FF X:02 Y:AE P:A5 SP:F9 CYC:18364
FAC4  A9 FF     LDA #$FF                        A:FF X:02 Y:AE P:A5 SP:F9 CYC:18366
FAC6  60        RTS                             A:FF X:02 Y:AE P:A5 SP:F9 CYC:18368
EC07  E7 47    *ISB $47 = FF                    A:FF X:02 Y:AE P:A5 SP:FB CYC:18374
EC09  EA        NOP                             A:FF X:02 Y:AE P:A5 SP:FB CYC:18379
EC0A  EA        NOP                             A:FF X:02 Y:AE P:A5 SP:FB CYC:18381
EC0B  EA        NOP                             A:FF X:02 Y:AE P:A5 SP:FB CYC:18383
EC0C  EA        NOP                             A:FF X:02 Y:AE P:A5 SP:FB CYC:18385
EC0D  20 C7 FA  JSR $FAC7                       A:FF X:02 Y:AE P:A5 SP:FB CYC:18387
FAC7  70 1D     BVS $FAE6                       A:FF X:02 Y:AE P:A5 SP:F9 CYC:18393
FAC9  F0 1B     BEQ $FAE6                       A:FF X:02 Y:AE P:A5 SP:F9 CYC:18395
FACB  10 19     BPL $FAE6                       A:FF X:02 Y:AE P:A5 SP:F9 CYC:18397
FACD  90 17     BCC $FAE6                       A:FF X:02 Y:AE P:A5 SP:F9 CYC:18399
FACF  C9 FF     CMP #$FF                        A:FF X:02 Y:AE P:A5 SP:F9 CYC:18401
FAD1  D0 13     BNE $FAE6                       A:FF X:02 Y:AE P:27 SP:F9 CYC:18403
FAD3  60        RTS                             A:FF X:02 Y:AE P:27 SP:F9 CYC:18405
EC10  A5 47     LDA $47 = 00                    A:FF X:02 Y:AE P:27 SP:FB CYC:18411
EC12  C9 00     CMP #$00                        A:00 X:02 Y:AE P:27 SP:FB CYC:18414
EC14  F0 02     BEQ $EC18                       A:00 X:02 Y:AE P:27 SP:FB CYC:18416
EC18  C8        INY                             A:00 X:02 Y:AE P:27 SP:FB CYC:18418
EC19  A9 37     LDA #$37                        A:00 X:02 Y:AF P:A5 SP:FB CYC:18420
EC1B  85 47     STA $47 = 00                    A:37 X:02 Y:AF P:25 SP:FB CYC:18422
EC1D  20 D4 FA  JSR $FAD4                       A:37 X:02 Y:AF P:25 SP:FB CYC:18425
FAD4  24 01     BIT $01 = FF                    A:37 X:02 Y:AF P:25 SP:F9 CYC:18431
FAD6  38        SEC                             A:37 X:02 Y:AF P:E5 SP:F9 CYC:18434
FAD7  A9 F0     LDA #$F0                        A:37 X:02 Y:AF P:E5 SP:F9 CYC:18436
FAD9  60        RTS                             A:F0 X:02 Y:AF P:E5 SP:F9 CYC:18438
EC20  E7 47    *ISB $47 = 37                    A:F0 X:02 Y:AF P:E5 SP:FB CYC:18444
EC22  EA        NOP                             A:B8 X:02 Y:AF P:A5 SP:FB CYC:18449
EC23  EA        NOP                             A:B8 X:02 Y:AF P:A5 SP:FB CYC:18451
EC24  EA        NOP                             A:B8 X:02 Y:AF P:A5 SP:FB CYC:18453
EC25  EA        NOP                             A:B8 X:02 Y:AF P:A5 SP:FB CYC:18455
EC26  20 DA FA  JSR $FADA                       A:B8 X:02 Y:AF P:A5 SP:FB CYC:18457
FADA  70 0A     BVS $FAE6                       A:B8 X:02 Y:AF P:A5 SP:F9 CYC:18463
FADC  F0 08     BEQ $FAE6                       A:B8 X:02 Y:AF P:A5 SP:F9 CYC:18465
FADE  10 06     BPL $FAE6                       A:B8 X:02 Y:AF P:A5 SP:F9 CYC:18467
FAE0  90 04     BCC $FAE6                       A:B8 X:02 Y:AF P:A5 SP:F9 CYC:18469
FAE2  C9 B8     CMP #$B8                        A:B8 X:02 Y:AF P:A5 SP:F9 CYC:18471
FAE4  F0 02     BEQ $FAE8                       A:B8 X:02 Y:AF P:27 SP:F9 CYC:18473
FAE8  60        RTS                             A:B8 X:02 Y:AF P:27 SP:F9 CYC:18475
EC29  A5 47     LDA $47 = 38                    A:B8 X:02 Y:AF P:27 SP:FB CYC:18481
EC2B  C9 38     CMP #$38                        A:38 X:02 Y:AF P:25 SP:FB CYC:18484
EC2D  F0 02     BEQ $EC31                       A:38 X:02 Y:AF P:27 SP:FB CYC:18486
EC31  C8        INY                             A:38 X:02 Y:AF P:27 SP:FB CYC:18488
EC32  A9 EB     LDA #$EB                        A:38 X:02 Y:B0 P:A5 SP:FB CYC:18490
EC34  8D 47 06  STA $0647 = 38                  A:EB X:02 Y:B0 P:A5 SP:FB CYC:18492
EC37  20 B1 FA  JSR $FAB1                       A:EB X:02 Y:B0 P:A5 SP:FB CYC:18496
FAB1  24 01     BIT $01 = FF                    A:EB X:02 Y:B0 P:A5 SP:F9 CYC:18502
FAB3  18        CLC                             A:EB X:02 Y:B0 P:E5 SP:F9 CYC:18505
FAB4  A9 40     LDA #$40                        A:EB X:02 Y:B0 P:E4 SP:F9 CYC:18507
FAB6  60        RTS                             A:40 X:02 Y:B0 P:64 SP:F9 CYC:18509
EC3A  EF 47 06 *ISB $0647 = EB                  A:40 X:02 Y:B0 P:64 SP:FB CYC:18515
EC3D  EA        NOP                             A:53 X:02 Y:B0 P:24 SP:FB CYC:18521
EC3E  EA        NOP                             A:53 X:02 Y:B0 P:24 SP:FB CYC:18523
EC3F  EA        NOP                             A:53 X:02 Y:B0 P:24 SP:FB CYC:18525
EC40  EA        NOP                             A:53 X:02 Y:B0 P:24 SP:FB CYC:18527
EC41  20 B7 FA  JSR $FAB7                       A:53 X:02 Y:B0 P:24 SP:FB CYC:18529
FAB7  70 2D     BVS $FAE6                       A:53 X:02 Y:B0 P:24 SP:F9 CYC:18535
FAB9  B0 2B     BCS $FAE6                       A:53 X:02 Y:B0 P:24 SP:F9 CYC:18537
FABB  30 29     BMI $FAE6                       A:53 X:02 Y:B0 P:24 SP:F9 CYC:18539
FABD  C9 53     CMP #$53                        A:53 X:02 Y:B0 P:24 SP:F9 CYC:18541
FABF  D0 25     BNE $FAE6                       A:53 X:02 Y:B0 P:27 SP:F9 CYC:18543
FAC1  60        RTS                             A:53 X:02 Y:B0 P:27 SP:F9 CYC:18545
EC44  AD 47 06  LDA $0647 = EC                  A:53 X:02 Y:B0 P:27 SP:FB CYC:18551
EC47  C9 EC     CMP #$EC                        A:EC X:02 Y:B0 P:A5 SP:FB CYC:18555
EC49  F0 02     BEQ $EC4D                       A:EC X:02 Y:B0 P:27 SP:FB CYC:18557
EC4D  C8        INY                             A:EC X:02 Y:B0 P:27 SP:FB CYC:18559
EC4E  A9 FF     LDA #$FF                        A:EC X:02 Y:B1 P:A5 SP:FB CYC:18561
EC50  8D 47 06  STA $0647 = EC                  A:FF X:02 Y:B1 P:A5 SP:FB CYC:18563
EC53  20 C2 FA  JSR $FAC2                       A:FF X:02 Y:B1 P:A5 SP:FB CYC:18567
FAC2  B8        CLV                             A:FF X:02 Y:B1 P:A5 SP:F9 CYC:18573
FAC3  38        SEC                             A:FF X:02 Y:B1 P:A5 SP:F9 CYC:18575
FAC4  A9 FF     LDA #$FF                        A:FF X:02 Y:B1 P:A5 SP:F9 CYC:18577
FAC6  60        RTS                             A:FF X:02 Y:B1 P:A5 SP:F9 CYC:18579
EC56  EF 47 06 *ISB $0647 = FF                  A:FF X:02 Y:B1 P:A5 SP:FB CYC:18585
EC59  EA        NOP                             A:FF X:02 Y:B1 P:A5 SP:FB CYC:18591
EC5A  EA        NOP                             A:FF X:02 Y:B1 P:A5 SP:FB CYC:18593
EC5B  EA        NOP                             A:FF X:02 Y:B1 P:A5 SP:FB CYC:18595
EC5C  EA        NOP                             A:FF X:02 Y:B1 P:A5 SP:FB CYC:18597
EC5D  20 C7 FA  JSR $FAC7                       A:FF X:02 Y:B1 P:A5 SP:FB CYC:18599
FAC7  70 1D     BVS $FAE6                       A:FF X:02 Y:B1 P:A5 SP:F9 CYC:18605
FAC9  F0 1B     BEQ $FAE6                       A:FF X:02 Y:B1 P:A5 SP:F9 CYC:18607
FACB  10 19     BPL $FAE6                       A:FF X:02 Y:B1 P:A5 SP:F9 CYC:18609
FACD  90 17     BCC $FAE6                       A:FF X:02 Y:B1 P:A5 SP:F9 CYC:18611
FACF  C9 FF     CMP #$FF                        A:FF X:02 Y:B1 P:A5 SP:F9 CYC:18613
FAD1  D0 13     BNE $FAE6                       A:FF X:02 Y:B1 P:27 SP:F9 CYC:18615
FAD3  60        RTS                             A:FF X:02 Y:B1 P:27 SP:F9 CYC:18617
EC60  AD 47 06  LDA $0647 = 00                  A:FF X:02 Y:B1 P:27 SP:FB CYC:18623
EC63  C9 00     CMP #$00                        A:00 X:02 Y:B1 P:27 SP:FB CYC:18627
EC65  F0 02     BEQ $EC69                       A:00 X:02 Y:B1 P:27 SP:FB CYC:18629
EC69  C8        INY                             A:00 X:02 Y:B1 P:27 SP:FB CYC:18631
EC6A  A9 37     LDA #$37                        A:00 X:02 Y:B2 P:A5 SP:FB CYC:18633
EC6C  8D 47 06  STA $0647 = 00                  A:37 X:02 Y:B2 P:25 SP:FB CYC:18635
EC6F  20 D4 FA  JSR $FAD4                       A:37 X:02 Y:B2 P:25 SP:FB CYC:18639
FAD4  24 01     BIT $01 = FF                    A:37 X:02 Y:B2 P:25 SP:F9 CYC:18645
FAD6  38        SEC                             A:37 X:02 Y:B2 P:E5 SP:F9 CYC:18648
FAD7  A9 F0     LDA #$F0                        A:37 X:02 Y:B2 P:E5 SP:F9 CYC:18650
FAD9  60        RTS                             A:F0 X:02 Y:B2 P:E5 SP:F9 CYC:18652
EC72  EF 47 06 *ISB $0647 = 37                  A:F0 X:02 Y:B2 P:E5 SP:FB CYC:18658
EC75  EA        NOP                             A:B8 X:02 Y:B2 P:A5 SP:FB CYC:18664
EC76  EA        NOP                             A:B8 X:02 Y:B2 P:A5 SP:FB CYC:18666
EC77  EA        NOP                             A:B8 X:02 Y:B2 P:A5 SP:FB CYC:18668
EC78  EA        NOP                             A:B8 X:02 Y:B2 P:A5 SP:FB CYC:18670
EC79  20 DA FA  JSR $FADA                       A:B8 X:02 Y:B2 P:A5 SP:FB CYC:18672
FADA  70 0A     BVS $FAE6                       A:B8 X:02 Y:B2 P:A5 SP:F9 CYC:18678
FADC  F0 08     BEQ $FAE6                       A:B8 X:02 Y:B2 P:A5 SP:F9 CYC:18680
FADE  10 06     BPL $FAE6                       A:B8 X:02 Y:B2 P:A5 SP:F9 CYC:18682
FAE0  90 04     BCC $FAE6                       A:B8 X:02 Y:B2 P:A5 SP:F9 CYC:18684
FAE2  C9 B8     CMP #$B8                        A:B8 X:02 Y:B2 P:A5 SP:F9 CYC:18686
FAE4  F0 02     BEQ $FAE8                       A:B8 X:02 Y:B2 P:27 SP:F9 CYC:18688
FAE8  60        RTS                             A:B8 X:02 Y:B2 P:27 SP:F9 CYC:18690
EC7C  AD 47 06  LDA $0647 = 38                  A:B8 X:02 Y:B2 P:27 SP:FB CYC:18696
EC7F  C9 38     CMP #$38                        A:38 X:02 Y:B2 P:25 SP:FB CYC:18700
EC81  F0 02     BEQ $EC85                       A:38 X:02 Y:B2 P:27 SP:FB CYC:18702
EC85  A9 EB     LDA #$EB                        A:38 X:02 Y:B2 P:27 SP:FB CYC:18704
EC87  8D 47 06  STA $0647 = 38                  A:EB X:02 Y:B2 P:A5 SP:FB CYC:18706
EC8A  A9 48     LDA #$48                        A:EB X:02 Y:B2 P:A5 SP:FB CYC:18710
EC8C  85 45     STA $45 = 48                    A:48 X:02 Y:B2 P:25 SP:FB CYC:18712
EC8E  A9 05     LDA #$05                        A:48 X:02 Y:B2 P:25 SP:FB CYC:18715
EC90  85 46     STA $46 = 05                    A:05 X:02 Y:B2 P:25 SP:FB CYC:18717
EC92  A0 FF     LDY #$FF                        A:05 X:02 Y:B2 P:25 SP:FB CYC:18720
EC94  20 B1 FA  JSR $FAB1                       A:05 X:02 Y:FF P:A5 SP:FB CYC:18722
FAB1  24 01     BIT $01 = FF                    A:05 X:02 Y:FF P:A5 SP:F9 CYC:18728
FAB3  18        CLC                             A:05 X:02 Y:FF P:E5 SP:F9 CYC:18731
FAB4  A9 40     LDA #$40                        A:05 X:02 Y:FF P:E4 SP:F9 CYC:18733
FAB6  60        RTS                             A:40 X:02 Y:FF P:64 SP:F9 CYC:18735
EC97  F3 45    *ISB ($45),Y = 0548 @ 0647 = EB  A:40 X:02 Y:FF P:64 SP:FB CYC:18741
EC99  EA        NOP                             A:53 X:02 Y:FF P:24 SP:FB CYC:18745
EC9A  EA        NOP                             A:53 X:02 Y:FF P:24 SP:FB CYC:18747
EC9B  08        PHP                             A:53 X:02 Y:FF P:24 SP:FB CYC:18749
EC9C  48        PHA                             A:53 X:02 Y:FF P:24 SP:FA CYC:18752
EC9D  A0 B3     LDY #$B3                        A:53 X:02 Y:FF P:24 SP:F9 CYC:18755
EC9F  68        PLA                             A:53 X:02 Y:B3 P:A4 SP:F9 CYC:18757
ECA0  28        PLP                             A:53 X:02 Y:B3 P:24 SP:FA CYC:18761
ECA1  20 B7 FA  JSR $FAB7                       A:53 X:02 Y:B3 P:24 SP:FB CYC:18765
FAB7  70 2D     BVS $FAE6                       A:53 X:02 Y:B3 P:24 SP:F9 CYC:18771
FAB9  B0 2B     BCS $FAE6                       A:53 X:02 Y:B3 P:24 SP:F9 CYC:18773
FABB  30 29     BMI $FAE6                       A:53 X:02 Y:B3 P:24 SP:F9 CYC:18775
FABD  C9 53     CMP #$53                        A:53 X:02 Y:B3 P:24 SP:F9 CYC:18777
FABF  D0 25     BNE $FAE6                       A:53 X:02 Y:B3 P:27 SP:F9 CYC:18779
FAC1  60        RTS                             A:53 X:02 Y:B3 P:27 SP:F9 CYC:18781
ECA4  AD 47 06  LDA $0647 = EC                  A:53 X:02 Y:B3 P:27 SP:FB CYC:18787
ECA7  C9 EC     CMP #$EC                        A:EC X:02 Y:B3 P:A5 SP:FB CYC:18791
ECA9  F0 02     BEQ $ECAD                       A:EC X:02 Y:B3 P:27 SP:FB CYC:18793
ECAD  A0 FF     LDY #$FF                        A:EC X:02 Y:B3 P:27 SP:FB CYC:18795
ECAF  A9 FF     LDA #$FF                        A:EC X:02 Y:FF P:A5 SP:FB CYC:18797
ECB1  8D 47 06  STA $0647 = EC                  A:FF X:02 Y:FF P:A5 SP:FB CYC:18799
ECB4  20 C2 FA  JSR $FAC2                       A:FF X:02 Y:FF P:A5 SP:FB CYC:18803
FAC2  B8        CLV                             A:FF X:02 Y:FF P:A5 SP:F9 CYC:18809
FAC3  38        SEC                             A:FF X:02 Y:FF P:A5 SP:F9 CYC:18811
FAC4  A9 FF     LDA #$FF                        A:FF X:02 Y:FF P:A5 SP:F9 CYC:18813
FAC6  60        RTS                             A:FF X:02 Y:FF P:A5 SP:F9 CYC:18815
ECB7  F3 45    *ISB ($45),Y = 0548 @ 0647 = FF  A:FF X:02 Y:FF P:A5 SP:FB CYC:18821
ECB9  EA        NOP                             A:FF X:02 Y:FF P:A5 SP:FB CYC:18825
ECBA  EA        NOP                             A:FF X:02 Y:FF P:A5 SP:FB CYC:18827
ECBB  08        PHP                             A:FF X:02 Y:FF P:A5 SP:FB CYC:18829
ECBC  48        PHA                             A:FF X:02 Y:FF P:A5 SP:FA CYC:18832
ECBD  A0 B4     LDY #$B4                        A:FF X:02 Y:FF P:A5 SP:F9 CYC:18835
ECBF  68        PLA                             A:FF X:02 Y:B4 P:A5 SP:F9 CYC:18837
ECC0  28        PLP                             A:FF X:02 Y:B4 P:A5 SP:FA CYC:18841
ECC1  20 C7 FA  JSR $FAC7                       A:FF X:02 Y:B4 P:A5 SP:FB CYC:18845
FAC7  70 1D     BVS $FAE6                       A:FF X:02 Y:B4 P:A5 SP:F9 CYC:18851
FAC9  F0 1B     BEQ $FAE6                       A:FF X:02 Y:B4 P:A5 SP:F9 CYC:18853
FACB  10 19     BPL $FAE6                       A:FF X:02 Y:B4 P:A5 SP:F9 CYC:18855
FACD  90 17     BCC $FAE6                       A:FF X:02 Y:B4 P:A5 SP:F9 CYC:18857
FACF  C9 FF     CMP #$FF                        A:FF X:02 Y:B4 P:A5 SP:F9 CYC:18859
FAD1  D0 13     BNE $FAE6                       A:FF X:02 Y:B4 P:27 SP:F9 CYC:18861
FAD3  60        RTS                             A:FF X:02 Y:B4 P:27 SP:F9 CYC:18863
ECC4  AD 47 06  LDA $0647 = 00                  A:FF X:02 Y:B4 P:27 SP:FB CYC:18869
ECC7  C9 00     CMP #$00                        A:00 X:02 Y:B4 P:27 SP:FB CYC:18873
ECC9  F0 02     BEQ $ECCD                       A:00 X:02 Y:B4 P:27 SP:FB CYC:18875
ECCD  A0 FF     LDY #$FF                        A:00 X:02 Y:B4 P:27 SP:FB CYC:18877
ECCF  A9 37     LDA #$37                        A:00 X:02 Y:FF P:A5 SP:FB CYC:18879
ECD1  8D 47 06  STA $0647 = 00                  A:37 X:02 Y:FF P:25 SP:FB CYC:18881
ECD4  20 D4 FA  JSR $FAD4                       A:37 X:02 Y:FF P:25 SP:FB CYC:18885
FAD4  24 01     BIT $01 = FF                    A:37 X:02 Y:FF P:25 SP:F9 CYC:18891
FAD6  38        SEC                             A:37 X:02 Y:FF P:E5 SP:F9 CYC:18894
FAD7  A9 F0     LDA #$F0                        A:37 X:02 Y:FF P:E5 SP:F9 CYC:18896
FAD9  60        RTS                             A:F0 X:02 Y:FF P:E5 SP:F9 CYC:18898
ECD7  F3 45    *ISB ($45),Y = 0548 @ 0647 = 37  A:F0 X:02 Y:FF P:E5 SP:FB CYC:18904
ECD9  EA        NOP                             A:B8 X:02 Y:FF P:A5 SP:FB CYC:18908
ECDA  EA        NOP                             A:B8 X:02 Y:FF P:A5 SP:FB CYC:18910
ECDB  08        PHP                             A:B8 X:02 Y:FF P:A5 SP:FB CYC:18912
ECDC  48        PHA                             A:B8 X:02 Y:FF P:A5 SP:FA CYC:18915
ECDD  A0 B5     LDY #$B5                        A:B8 X:02 Y:FF P:A5 SP:F9 CYC:18918
ECDF  68        PLA                             A:B8 X:02 Y:B5 P:A5 SP:F9 CYC:18920
ECE0  28        PLP                             A:B8 X:02 Y:B5 P:A5 SP:FA CYC:18924
ECE1  20 DA FA  JSR $FADA                       A:B8 X:02 Y:B5 P:A5 SP:FB CYC:18928
FADA  70 0A     BVS $FAE6                       A:B8 X:02 Y:B5 P:A5 SP:F9 CYC:18934
FADC  F0 08     BEQ $FAE6                       A:B8 X:02 Y:B5 P:A5 SP:F9 CYC:18936
FADE  10 06     BPL $FAE6                       A:B8 X:02 Y:B5 P:A5 SP:F9 CYC:18938
FAE0  90 04     BCC $FAE6                       A:B8 X:02 Y:B5 P:A5 SP:F9 CYC:18940
FAE2  C9 B8     CMP #$B8                        A:B8 X:02 Y:B5 P:A5 SP:F9 CYC:18942
FAE4  F0 02     BEQ $FAE8                       A:B8 X:02 Y:B5 P:27 SP:F9 CYC:18944
FAE8  60        RTS                             A:B8 X:02 Y:B5 P:27 SP:F9 CYC:18946
ECE4  AD 47 06  LDA $0647 = 38                  A:B8 X:02 Y:B5 P:27 SP:FB CYC:18952
ECE7  C9 38     CMP #$38                        A:38 X:02 Y:B5 P:25 SP:FB CYC:18956
ECE9  F0 02     BEQ $ECED                       A:38 X:02 Y:B5 P:27 SP:FB CYC:18958
ECED  A0 B6     LDY #$B6                        A:38 X:02 Y:B5 P:27 SP:FB CYC:18960
ECEF  A2 FF     LDX #$FF                        A:38 X:02 Y:B6 P:A5 SP:FB CYC:18962
ECF1  A9 EB     LDA #$EB                        A:38 X:FF Y:B6 P:A5 SP:FB CYC:18964
ECF3  85 47     STA $47 = 38                    A:EB X:FF Y:B6 P:A5 SP:FB CYC:18966
ECF5  20 B1 FA  JSR $FAB1                       A:EB X:FF Y:B6 P:A5 SP:FB CYC:18969
FAB1  24 01     BIT $01 = FF                    A:EB X:FF Y:B6 P:A5 SP:F9 CYC:18975
FAB3  18        CLC                             A:EB X:FF Y:B6 P:E5 SP:F9 CYC:18978
FAB4  A9 40     LDA #$40                        A:EB X:FF Y:B6 P:E4 SP:F9 CYC:18980
FAB6  60        RTS                             A:40 X:FF Y:B6 P:64 SP:F9 CYC:18982
ECF8  F7 48    *ISB $48,X @ 47 = EB             A:40 X:FF Y:B6 P:64 SP:FB CYC:18988
ECFA  EA        NOP                             A:53 X:FF Y:B6 P:24 SP:FB CYC:18994
ECFB  EA        NOP                             A:53 X:FF Y:B6 P:24 SP:FB CYC:18996
ECFC  EA        NOP                             A:53 X:FF Y:B6 P:24 SP:FB CYC:18998
ECFD  EA        NOP                             A:53 X:FF Y:B6 P:24 SP:FB CYC:19000
ECFE  20 B7 FA  JSR $FAB7                       A:53 X:FF Y:B6 P:24 SP:FB CYC:19002
FAB7  70 2D     BVS $FAE6                       A:53 X:FF Y:B6 P:24 SP:F9 CYC:19008
FAB9  B0 2B     BCS $FAE6                       A:53 X:FF Y:B6 P:24 SP:F9 CYC:19010
FABB  30 29     BMI $FAE6                       A:53 X:FF Y:B6 P:24 SP:F9 CYC:19012
FABD  C9 53     CMP #$53                        A:53 X:FF Y:B6 P:24 SP:F9 CYC:19014
FABF  D0 25     BNE $FAE6                       A:53 X:FF Y:B6 P:27 SP:F9 CYC:19016
FAC1  60        RTS                             A:53 X:FF Y:B6 P:27 SP:F9 CYC:19018
ED01  A5 47     LDA $47 = EC                    A:53 X:FF Y:B6 P:27 SP:FB CYC:19024
ED03  C9 EC     CMP #$EC                        A:EC X:FF Y:B6 P:A5 SP:FB CYC:19027
ED05  F0 02     BEQ $ED09                       A:EC X:FF Y:B6 P:27 SP:FB CYC:19029
ED09  C8        INY                             A:EC X:FF Y:B6 P:27 SP:FB CYC:19031
ED0A  A9 FF     LDA #$FF                        A:EC X:FF Y:B7 P:A5 SP:FB CYC:19033
ED0C  85 47     STA $47 = EC                    A:FF X:FF Y:B7 P:A5 SP:FB CYC:19035
ED0E  20 C2 FA  JSR $FAC2                       A:FF X:FF Y:B7 P:A5 SP:FB CYC:19038
FAC2  B8        CLV                             A:FF X:FF Y:B7 P:A5 SP:F9 CYC:19044
FAC3  38        SEC                             A:FF X:FF Y:B7 P:A5 SP:F9 CYC:19046
FAC4  A9 FF     LDA #$FF                        A:FF X:FF Y:B7 P:A5 SP:F9 CYC:19048
FAC6  60        RTS                             A:FF X:FF Y:B7 P:A5 SP:F9 CYC:19050
ED11  F7 48    *ISB $48,X @ 47 = FF             A:FF X:FF Y:B7 P:A5 SP:FB CYC:19056
ED13  EA        NOP                             A:FF X:FF Y:B7 P:A5 SP:FB CYC:19062
ED14  EA        NOP                             A:FF X:FF Y:B7 P:A5 SP:FB CYC:19064
ED15  EA        NOP                             A:FF X:FF Y:B7 P:A5 SP:FB CYC:19066
ED16  EA        NOP                             A:FF X:FF Y:B7 P:A5 SP:FB CYC:19068
ED17  20 C7 FA  JSR $FAC7                       A:FF X:FF Y:B7 P:A5 SP:FB CYC:19070
FAC7  70 1D     BVS $FAE6                       A:FF X:FF Y:B7 P:A5 SP:F9 CYC:19076
FAC9  F0 1B     BEQ $FAE6                       A:FF X:FF Y:B7 P:A5 SP:F9 CYC:19078
FACB  10 19     BPL $FAE6                       A:FF X:FF Y:B7 P:A5 SP:F9 CYC:19080
FACD  90 17     BCC $FAE6                       A:FF X:FF Y:B7 P:A5 SP:F9 CYC:19082
FACF  C9 FF     CMP #$FF                        A:FF X:FF Y:B7 P:A5 SP:F9 CYC:19084
FAD1  D0 13     BNE $FAE6                       A:FF X:FF Y:B7 P:27 SP:F9 CYC:19086
FAD3  60        RTS                             A:FF X:FF Y:B7 P:27 SP:F9 CYC:19088
ED1A  A5 47     LDA $47 = 00                    A:FF X:FF Y:B7 P:27 SP:FB CYC:19094
ED1C  C9 00     CMP #$00                        A:00 X:FF Y:B7 P:27 SP:FB CYC:19097
ED1E  F0 02     BEQ $ED22                       A:00 X:FF Y:B7 P:27 SP:FB CYC:19099
ED22  C8        INY                             A:00 X:FF Y:B7 P:27 SP:FB CYC:19101
ED23  A9 37     LDA #$37                        A:00 X:FF Y:B8 P:A5 SP:FB CYC:19103
ED25  85 47     STA $47 = 00                    A:37 X:FF Y:B8 P:25 SP:FB CYC:19105
ED27  20 D4 FA  JSR $FAD4                       A:37 X:FF Y:B8 P:25 SP:FB CYC:19108
FAD4  24 01     BIT $01 = FF                    A:37 X:FF Y:B8 P:25 SP:F9 CYC:19114
FAD6  38        SEC                             A:37 X:FF Y:B8 P:E5 SP:F9 CYC:19117
FAD7  A9 F0     LDA #$F0                        A:37 X:FF Y:B8 P:E5 SP:F9 CYC:19119
FAD9  60        RTS                             A:F0 X:FF Y:B8 P:E5 SP:F9 CYC:19121
ED2A  F7 48    *ISB $48,X @ 47 = 37             A:F0 X:FF Y:B8 P:E5 SP:FB CYC:19127
ED2C  EA        NOP                             A:B8 X:FF Y:B8 P:A5 SP:FB CYC:19133
ED2D  EA        NOP                             A:B8 X:FF Y:B8 P:A5 SP:FB CYC:19135
ED2E  EA        NOP                             A:B8 X:FF Y:B8 P:A5 SP:FB CYC:19137
ED2F  EA        NOP                             A:B8 X:FF Y:B8 P:A5 SP:FB CYC:19139
ED30  20 DA FA  JSR $FADA                       A:B8 X:FF Y:B8 P:A5 SP:FB CYC:19141
FADA  70 0A     BVS $FAE6                       A:B8 X:FF Y:B8 P:A5 SP:F9 CYC:19147
FADC  F0 08     BEQ $FAE6                       A:B8 X:FF Y:B8 P:A5 SP:F9 CYC:19149
FADE  10 06     BPL $FAE6                       A:B8 X:FF Y:B8 P:A5 SP:F9 CYC:19151
FAE0  90 04     BCC $FAE6                       A:B8 X:FF Y:B8 P:A5 SP:F9 CYC:19153
FAE2  C9 B8     CMP #$B8                        A:B8 X:FF Y:B8 P:A5 SP:F9 CYC:19155
FAE4  F0 02     BEQ $FAE8                       A:B8 X:FF Y:B8 P:27 SP:F9 CYC:19157
FAE8  60        RTS                             A:B8 X:FF Y:B8 P:27 SP:F9 CYC:19159
ED33  A5 47     LDA $47 = 38                    A:B8 X:FF Y:B8 P:27 SP:FB CYC:19165
ED35  C9 38     CMP #$38                        A:38 X:FF Y:B8 P:25 SP:FB CYC:19168
ED37  F0 02     BEQ $ED3B                       A:38 X:FF Y:B8 P:27 SP:FB CYC:19170
ED3B  A9 EB     LDA #$EB                        A:38 X:FF Y:B8 P:27 SP:FB CYC:19172
ED3D  8D 47 06  STA $0647 = 38                  A:EB X:FF Y:B8 P:A5 SP:FB CYC:19174
ED40  A0 FF     LDY #$FF                        A:EB X:FF Y:B8 P:A5 SP:FB CYC:19178
ED42  20 B1 FA  JSR $FAB1                       A:EB X:FF Y:FF P:A5 SP:FB CYC:19180
FAB1  24 01     BIT $01 = FF                    A:EB X:FF Y:FF P:A5 SP:F9 CYC:19186
FAB3  18        CLC                             A:EB X:FF Y:FF P:E5 SP:F9 CYC:19189
FAB4  A9 40     LDA #$40                        A:EB X:FF Y:FF P:E4 SP:F9 CYC:19191
FAB6  60        RTS                             A:40 X:FF Y:FF P:64 SP:F9 CYC:19193
ED45  FB 48 05 *ISB $0548,Y @ 0647 = EB         A:40 X:FF Y:FF P:64 SP:FB CYC:19199
ED48  EA        NOP                             A:53 X:FF Y:FF P:24 SP:FB CYC:19206
ED49  EA        NOP                             A:53 X:FF Y:FF P:24 SP:FB CYC:19208
ED4A  08        PHP                             A:53 X:FF Y:FF P:24 SP:FB CYC:19210
ED4B  48        PHA                             A:53 X:FF Y:FF P:24 SP:FA CYC:19213
ED4C  A0 B9     LDY #$B9                        A:53 X:FF Y:FF P:24 SP:F9 CYC:19216
ED4E  68        PLA                             A:53 X:FF Y:B9 P:A4 SP:F9 CYC:19218
ED4F  28        PLP                             A:53 X:FF Y:B9 P:24 SP:FA CYC:19222
ED50  20 B7 FA  JSR $FAB7                       A:53 X:FF Y:B9 P:24 SP:FB CYC:19226
FAB7  70 2D     BVS $FAE6                       A:53 X:FF Y:B9 P:24 SP:F9 CYC:19232
FAB9  B0 2B     BCS $FAE6                       A:53 X:FF Y:B9 P:24 SP:F9 CYC:19234
FABB  30 29     BMI $FAE6                       A:53 X:FF Y:B9 P:24 SP:F9 CYC:19236
FABD  C9 53     CMP #$53                        A:53 X:FF Y:B9 P:24 SP:F9 CYC:19238
FABF  D0 25     BNE $FAE6                       A:53 X:FF Y:B9 P:27 SP:F9 CYC:19240
FAC1  60        RTS                             A:53 X:FF Y:B9 P:27 SP:F9 CYC:19242
ED53  AD 47 06  LDA $0647 = EC                  A:53 X:FF Y:B9 P:27 SP:FB CYC:19248
ED56  C9 EC     CMP #$EC                        A:EC X:FF Y:B9 P:A5 SP:FB CYC:19252
ED58  F0 02     BEQ $ED5C                       A:EC X:FF Y:B9 P:27 SP:FB CYC:19254
ED5C  A0 FF     LDY #$FF                        A:EC X:FF Y:B9 P:27 SP:FB CYC:19256
ED5E  A9 FF     LDA #$FF                        A:EC X:FF Y:FF P:A5 SP:FB CYC:19258
ED60  8D 47 06  STA $0647 = EC                  A:FF X:FF Y:FF P:A5 SP:FB CYC:19260
ED63  20 C2 FA  JSR $FAC2                       A:FF X:FF Y:FF P:A5 SP:FB CYC:19264
FAC2  B8        CLV                             A:FF X:FF Y:FF P:A5 SP:F9 CYC:19270
FAC3  38        SEC                             A:FF X:FF Y:FF P:A5 SP:F9 CYC:19272
FAC4  A9 FF     LDA #$FF                        A:FF X:FF Y:FF P:A5 SP:F9 CYC:19274
FAC6  60        RTS                             A:FF X:FF Y:FF P:A5 SP:F9 CYC:19276
ED66  FB 48 05 *ISB $0548,Y @ 0647 = FF         A:FF X:FF Y:FF P:A5 SP:FB CYC:19282
ED69  EA        NOP                             A:FF X:FF Y:FF P:A5 SP:FB CYC:19289
ED6A  EA        NOP                             A:FF X:FF Y:FF P:A5 SP:FB CYC:19291
ED6B  08        PHP                             A:FF X:FF Y:FF P:A5 SP:FB CYC:19293
ED6C  48        PHA                             A:FF X:FF Y:FF P:A5 SP:FA CYC:19296
ED6D  A0 BA     LDY #$BA                        A:FF X:FF Y:FF P:A5 SP:F9 CYC:19299
ED6F  68        PLA                             A:FF X:FF Y:BA P:A5 SP:F9 CYC:19301
ED70  28        PLP                             A:FF X:FF Y:BA P:A5 SP:FA CYC:19305
ED71  20 C7 FA  JSR $FAC7                       A:FF X:FF Y:BA P:A5 SP:FB CYC:19309
FAC7  70 1D     BVS $FAE6                       A:FF X:FF Y:BA P:A5 SP:F9 CYC:19315
FAC9  F0 1B     BEQ $FAE6                       A:FF X:FF Y:BA P:A5 SP:F9 CYC:19317
FACB  10 19     BPL $FAE6                       A:FF X:FF Y:BA P:A5 SP:F9 CYC:19319
FACD  90 17     BCC $FAE6                       A:FF X:FF Y:BA P:A5 SP:F9 CYC:19321
FACF  C9 FF     CMP #$FF                        A:FF X:FF Y:BA P:A5 SP:F9 CYC:19323
FAD1  D0 13     BNE $FAE6                       A:FF X:FF Y:BA P:27 SP:F9 CYC:19325
FAD3  60        RTS                             A:FF X:FF Y:BA P:27 SP:F9 CYC:19327
ED74  AD 47 06  LDA $0647 = 00                  A:FF X:FF Y:BA P:27 SP:FB CYC:19333
ED77  C9 00     CMP #$00                        A:00 X:FF Y:BA P:27 SP:FB CYC:19337
ED79  F0 02     BEQ $ED7D                       A:00 X:FF Y:BA P:27 SP:FB CYC:19339
ED7D  A0 FF     LDY #$FF                        A:00 X:FF Y:BA P:27 SP:FB CYC:19341
ED7F  A9 37     LDA #$37                        A:00 X:FF Y:FF P:A5 SP:FB CYC:19343
ED81  8D 47 06  STA $0647 = 00                  A:37 X:FF Y:FF P:25 SP:FB CYC:19345
ED84  20 D4 FA  JSR $FAD4                       A:37 X:FF Y:FF P:25 SP:FB CYC:19349
FAD4  24 01     BIT $01 = FF                    A:37 X:FF Y:FF P:25 SP:F9 CYC:19355
FAD6  38        SEC                             A:37 X:FF Y:FF P:E5 SP:F9 CYC:19358
FAD7  A9 F0     LDA #$F0                        A:37 X:FF Y:FF P:E5 SP:F9 CYC:19360
FAD9  60        RTS                             A:F0 X:FF Y:FF P:E5 SP:F9 CYC:19362
ED87  FB 48 05 *ISB $0548,Y @ 0647 = 37         A:F0 X:FF Y:FF P:E5 SP:FB CYC:19368
ED8A  EA        NOP                             A:B8 X:FF Y:FF P:A5 SP:FB CYC:19375
ED8B  EA        NOP                             A:B8 X:FF Y:FF P:A5 SP:FB CYC:19377
ED8C  08        PHP                             A:B8 X:FF Y:FF P:A5 SP:FB CYC:19379
ED8D  48        PHA                             A:B8 X:FF Y:FF P:A5 SP:FA CYC:19382
ED8E  A0 BB     LDY #$BB                        A:B8 X:FF Y:FF P:A5 SP:F9 CYC:19385
ED90  68        PLA                             A:B8 X:FF Y:BB P:A5 SP:F9 CYC:19387
ED91  28        PLP                             A:B8 X:FF Y:BB P:A5 SP:FA CYC:19391
ED92  20 DA FA  JSR $FADA                       A:B8 X:FF Y:BB P:A5 SP:FB CYC:19395
FADA  70 0A     BVS $FAE6                       A:B8 X:FF Y:BB P:A5 SP:F9 CYC:19401
FADC  F0 08     BEQ $FAE6                       A:B8 X:FF Y:BB P:A5 SP:F9 CYC:19403
FADE  10 06     BPL $FAE6                       A:B8 X:FF Y:BB P:A5 SP:F9 CYC:19405
FAE0  90 04     BCC $FAE6                       A:B8 X:FF Y:BB P:A5 SP:F9 CYC:19407
FAE2  C9 B8     CMP #$B8                        A:B8 X:FF Y:BB P:A5 SP:F9 CYC:19409
FAE4  F0 02     BEQ $FAE8                       A:B8 X:FF Y:BB P:27 SP:F9 CYC:19411
FAE8  60        RTS                             A:B8 X:FF Y:BB P:27 SP:F9 CYC:19413
ED95  AD 47 06  LDA $0647 = 38                  A:B8 X:FF Y:BB P:27 SP:FB CYC:19419
ED98  C9 38     CMP #$38                        A:38 X:FF Y:BB P:25 SP:FB CYC:19423
ED9A  F0 02     BEQ $ED9E                       A:38 X:FF Y:BB P:27 SP:FB CYC:19425
ED9E  A0 BC     LDY #$BC                        A:38 X:FF Y:BB P:27 SP:FB CYC:19427
EDA0  A2 FF     LDX #$FF                        A:38 X:FF Y:BC P:A5 SP:FB CYC:19429
EDA2  A9 EB     LDA #$EB                        A:38 X:FF Y:BC P:A5 SP:FB CYC:19431
EDA4  8D 47 06  STA $0647 = 38                  A:EB X:FF Y:BC P:A5 SP:FB CYC:19433
EDA7  20 B1 FA  JSR $FAB1                       A:EB X:FF Y:BC P:A5 SP:FB CYC:19437
FAB1  24 01     BIT $01 = FF                    A:EB X:FF Y:BC P:A5 SP:F9 CYC:19443
FAB3  18        CLC                             A:EB X:FF Y:BC P:E5 SP:F9 CYC:19446
FAB4  A9 40     LDA #$40                        A:EB X:FF Y:BC P:E4 SP:F9 CYC:19448
FAB6  60        RTS                             A:40 X:FF Y:BC P:64 SP:F9 CYC:19450
EDAA  FF 48 05 *ISB $0548,X @ 0647 = EB         A:40 X:FF Y:BC P:64 SP:FB CYC:19456
EDAD  EA        NOP                             A:53 X:FF Y:BC P:24 SP:FB CYC:19463
EDAE  EA        NOP                             A:53 X:FF Y:BC P:24 SP:FB CYC:19465
EDAF  EA        NOP                             A:53 X:FF Y:BC P:24 SP:FB CYC:19467
EDB0  EA        NOP                             A:53 X:FF Y:BC P:24 SP:FB CYC:19469
EDB1  20 B7 FA  JSR $FAB7                       A:53 X:FF Y:BC P:24 SP:FB CYC:19471
FAB7  70 2D     BVS $FAE6                       A:53 X:FF Y:BC P:24 SP:F9 CYC:19477
FAB9  B0 2B     BCS $FAE6                       A:53 X:FF Y:BC P:24 SP:F9 CYC:19479
FABB  30 29     BMI $FAE6                       A:53 X:FF Y:BC P:24 SP:F9 CYC:19481
FABD  C9 53     CMP #$53                        A:53 X:FF Y:BC P:24 SP:F9 CYC:19483
FABF  D0 25     BNE $FAE6                       A:53 X:FF Y:BC P:27 SP:F9 CYC:19485
FAC1  60        RTS                             A:53 X:FF Y:BC P:27 SP:F9 CYC:19487
EDB4  AD 47 06  LDA $0647 = EC                  A:53 X:FF Y:BC P:27 SP:FB CYC:19493
EDB7  C9 EC     CMP #$EC                        A:EC X:FF Y:BC P:A5 SP:FB CYC:19497
EDB9  F0 02     BEQ $EDBD                       A:EC X:FF Y:BC P:27 SP:FB CYC:19499
EDBD  C8        INY                             A:EC X:FF Y:BC P:27 SP:FB CYC:19501
EDBE  A9 FF     LDA #$FF                        A:EC X:FF Y:BD P:A5 SP:FB CYC:19503
EDC0  8D 47 06  STA $0647 = EC                  A:FF X:FF Y:BD P:A5 SP:FB CYC:19505
EDC3  20 C2 FA  JSR $FAC2                       A:FF X:FF Y:BD P:A5 SP:FB CYC:19509
FAC2  B8        CLV                             A:FF X:FF Y:BD P:A5 SP:F9 CYC:19515
FAC3  38        SEC                             A:FF X:FF Y:BD P:A5 SP:F9 CYC:19517
FAC4  A9 FF     LDA #$FF                        A:FF X:FF Y:BD P:A5 SP:F9 CYC:19519
FAC6  60        RTS                             A:FF X:FF Y:BD P:A5 SP:F9 CYC:19521
EDC6  FF 48 05 *ISB $0548,X @ 0647 = FF         A:FF X:FF Y:BD P:A5 SP:FB CYC:19527
EDC9  EA        NOP                             A:FF X:FF Y:BD P:A5 SP:FB CYC:19534
EDCA  EA        NOP                             A:FF X:FF Y:BD P:A5 SP:FB CYC:19536
EDCB  EA        NOP                             A:FF X:FF Y:BD P:A5 SP:FB CYC:19538
EDCC  EA        NOP                             A:FF X:FF Y:BD P:A5 SP:FB CYC:19540
EDCD  20 C7 FA  JSR $FAC7                       A:FF X:FF Y:BD P:A5 SP:FB CYC:19542
FAC7  70 1D     BVS $FAE6                       A:FF X:FF Y:BD P:A5 SP:F9 CYC:19548
FAC9  F0 1B     BEQ $FAE6                       A:FF X:FF Y:BD P:A5 SP:F9 CYC:19550
FACB  10 19     BPL $FAE6                       A:FF X:FF Y:BD P:A5 SP:F9 CYC:19552
FACD  90 17     BCC $FAE6                       A:FF X:FF Y:BD P:A5 SP:F9 CYC:19554
FACF  C9 FF     CMP #$FF                        A:FF X:FF Y:BD P:A5 SP:F9 CYC:19556
FAD1  D0 13     BNE $FAE6                       A:FF X:FF Y:BD P:27 SP:F9 CYC:19558
FAD3  60        RTS                             A:FF X:FF Y:BD P:27 SP:F9 CYC:19560
EDD0  AD 47 06  LDA $0647 = 00                  A:FF X:FF Y:BD P:27 SP:FB CYC:19566
EDD3  C9 00     CMP #$00                        A:00 X:FF Y:BD P:27 SP:FB CYC:19570
EDD5  F0 02     BEQ $EDD9                       A:00 X:FF Y:BD P:27 SP:FB CYC:19572
EDD9  C8        INY                             A:00 X:FF Y:BD P:27 SP:FB CYC:19574
EDDA  A9 37     LDA #$37                        A:00 X:FF Y:BE P:A5 SP:FB CYC:19576
EDDC  8D 47 06  STA $0647 = 00                  A:37 X:FF Y:BE P:25 SP:FB CYC:19578
EDDF  20 D4 FA  JSR $FAD4                       A:37 X:FF Y:BE P:25 SP:FB CYC:19582
FAD4  24 01     BIT $01 = FF                    A:37 X:FF Y:BE P:25 SP:F9 CYC:19588
FAD6  38        SEC                             A:37 X:FF Y:BE P:E5 SP:F9 CYC:19591
FAD7  A9 F0     LDA #$F0                        A:37 X:FF Y:BE P:E5 SP:F9 CYC:19593
FAD9  60        RTS                             A:F0 X:FF Y:BE P:E5 SP:F9 CYC:19595
EDE2  FF 48 05 *ISB $0548,X @ 0647 = 37         A:F0 X:FF Y:BE P:E5 SP:FB CYC:19601
EDE5  EA        NOP                             A:B8 X:FF Y:BE P:A5 SP:FB CYC:19608
EDE6  EA        NOP                             A:B8 X:FF Y:BE P:A5 SP:FB CYC:19610
EDE7  EA        NOP                             A:B8 X:FF Y:BE P:A5 SP:FB CYC:19612
EDE8  EA        NOP                             A:B8 X:FF Y:BE P:A5 SP:FB CYC:19614
EDE9  20 DA FA  JSR $FADA                       A:B8 X:FF Y:BE P:A5 SP:FB CYC:19616
FADA  70 0A     BVS $FAE6                       A:B8 X:FF Y:BE P:A5 SP:F9 CYC:19622
FADC  F0 08     BEQ $FAE6                       A:B8 X:FF Y:BE P:A5 SP:F9 CYC:19624
FADE  10 06     BPL $FAE6                       A:B8 X:FF Y:BE P:A5 SP:F9 CYC:19626
FAE0  90 04     BCC $FAE6                       A:B8 X:FF Y:BE P:A5 SP:F9 CYC:19628
FAE2  C9 B8     CMP #$B8                        A:B8 X:FF Y:BE P:A5 SP:F9 CYC:19630
FAE4  F0 02     BEQ $FAE8                       A:B8 X:FF Y:BE P:27 SP:F9 CYC:19632
FAE8  60        RTS                             A:B8 X:FF Y:BE P:27 SP:F9 CYC:19634
EDEC  AD 47 06  LDA $0647 = 38                  A:B8 X:FF Y:BE P:27 SP:FB CYC:19640
EDEF  C9 38     CMP #$38                        A:38 X:FF Y:BE P:25 SP:FB CYC:19644
EDF1  F0 02     BEQ $EDF5                       A:38 X:FF Y:BE P:27 SP:FB CYC:19646
EDF5  60        RTS                             A:38 X:FF Y:BE P:27 SP:FB CYC:19648
C641  20 F6 ED  JSR $EDF6                       A:38 X:FF Y:BE P:27 SP:FD CYC:19654
EDF6  A9 FF     LDA #$FF                        A:38 X:FF Y:BE P:27 SP:FB CYC:19660
EDF8  85 01     STA $01 = FF                    A:FF X:FF Y:BE P:A5 SP:FB CYC:19662
EDFA  A0 BF     LDY #$BF                        A:FF X:FF Y:BE P:A5 SP:FB CYC:19665
EDFC  A2 02     LDX #$02                        A:FF X:FF Y:BF P:A5 SP:FB CYC:19667
EDFE  A9 47     LDA #$47                        A:FF X:02 Y:BF P:25 SP:FB CYC:19669
EE00  85 47     STA $47 = 38                    A:47 X:02 Y:BF P:25 SP:FB CYC:19671
EE02  A9 06     LDA #$06                        A:47 X:02 Y:BF P:25 SP:FB CYC:19674
EE04  85 48     STA $48 = 06                    A:06 X:02 Y:BF P:25 SP:FB CYC:19676
EE06  A9 A5     LDA #$A5                        A:06 X:02 Y:BF P:25 SP:FB CYC:19679
EE08  8D 47 06  STA $0647 = 38                  A:A5 X:02 Y:BF P:A5 SP:FB CYC:19681
EE0B  20 7B FA  JSR $FA7B                       A:A5 X:02 Y:BF P:A5 SP:FB CYC:19685
FA7B  24 01     BIT $01 = FF                    A:A5 X:02 Y:BF P:A5 SP:F9 CYC:19691
FA7D  18        CLC                             A:A5 X:02 Y:BF P:E5 SP:F9 CYC:19694
FA7E  A9 B3     LDA #$B3                        A:A5 X:02 Y:BF P:E4 SP:F9 CYC:19696
FA80  60        RTS                             A:B3 X:02 Y:BF P:E4 SP:F9 CYC:19698
EE0E  03 45    *SLO ($45,X) @ 47 = 0647 = A5    A:B3 X:02 Y:BF P:E4 SP:FB CYC:19704
EE10  EA        NOP                             A:FB X:02 Y:BF P:E5 SP:FB CYC:19712
EE11  EA        NOP                             A:FB X:02 Y:BF P:E5 SP:FB CYC:19714
EE12  EA        NOP                             A:FB X:02 Y:BF P:E5 SP:FB CYC:19716
EE13  EA        NOP                             A:FB X:02 Y:BF P:E5 SP:FB CYC:19718
EE14  20 81 FA  JSR $FA81                       A:FB X:02 Y:BF P:E5 SP:FB CYC:19720
FA81  50 63     BVC $FAE6                       A:FB X:02 Y:BF P:E5 SP:F9 CYC:19726
FA83  90 61     BCC $FAE6                       A:FB X:02 Y:BF P:E5 SP:F9 CYC:19728
FA85  10 5F     BPL $FAE6                       A:FB X:02 Y:BF P:E5 SP:F9 CYC:19730
FA87  C9 FB     CMP #$FB                        A:FB X:02 Y:BF P:E5 SP:F9 CYC:19732
FA89  D0 5B     BNE $FAE6                       A:FB X:02 Y:BF P:67 SP:F9 CYC:19734
FA8B  60        RTS                             A:FB X:02 Y:BF P:67 SP:F9 CYC:19736
EE17  AD 47 06  LDA $0647 = 4A                  A:FB X:02 Y:BF P:67 SP:FB CYC:19742
EE1A  C9 4A     CMP #$4A                        A:4A X:02 Y:BF P:65 SP:FB CYC:19746
EE1C  F0 02     BEQ $EE20                       A:4A X:02 Y:BF P:67 SP:FB CYC:19748
EE20  C8        INY                             A:4A X:02 Y:BF P:67 SP:FB CYC:19750
EE21  A9 29     LDA #$29                        A:4A X:02 Y:C0 P:E5 SP:FB CYC:19752
EE23  8D 47 06  STA $0647 = 4A                  A:29 X:02 Y:C0 P:65 SP:FB CYC:19754
EE26  20 8C FA  JSR $FA8C                       A:29 X:02 Y:C0 P:65 SP:FB CYC:19758
FA8C  B8        CLV                             A:29 X:02 Y:C0 P:65 SP:F9 CYC:19764
FA8D  18        CLC                             A:29 X:02 Y:C0 P:25 SP:F9 CYC:19766
FA8E  A9 C3     LDA #$C3                        A:29 X:02 Y:C0 P:24 SP:F9 CYC:19768
FA90  60        RTS                             A:C3 X:02 Y:C0 P:A4 SP:F9 CYC:19770
EE29  03 45    *SLO ($45,X) @ 47 = 0647 = 29    A:C3 X:02 Y:C0 P:A4 SP:FB CYC:19776
EE2B  EA        NOP                             A:D3 X:02 Y:C0 P:A4 SP:FB CYC:19784
EE2C  EA        NOP                             A:D3 X:02 Y:C0 P:A4 SP:FB CYC:19786
EE2D  EA        NOP                             A:D3 X:02 Y:C0 P:A4 SP:FB CYC:19788
EE2E  EA        NOP                             A:D3 X:02 Y:C0 P:A4 SP:FB CYC:19790
EE2F  20 91 FA  JSR $FA91                       A:D3 X:02 Y:C0 P:A4 SP:FB CYC:19792
FA91  70 53     BVS $FAE6                       A:D3 X:02 Y:C0 P:A4 SP:F9 CYC:19798
FA93  F0 51     BEQ $FAE6                       A:D3 X:02 Y:C0 P:A4 SP:F9 CYC:19800
FA95  10 4F     BPL $FAE6                       A:D3 X:02 Y:C0 P:A4 SP:F9 CYC:19802
FA97  B0 4D     BCS $FAE6                       A:D3 X:02 Y:C0 P:A4 SP:F9 CYC:19804
FA99  C9 D3     CMP #$D3                        A:D3 X:02 Y:C0 P:A4 SP:F9 CYC:19806
FA9B  D0 49     BNE $FAE6                       A:D3 X:02 Y:C0 P:27 SP:F9 CYC:19808
FA9D  60        RTS                             A:D3 X:02 Y:C0 P:27 SP:F9 CYC:19810
EE32  AD 47 06  LDA $0647 = 52                  A:D3 X:02 Y:C0 P:27 SP:FB CYC:19816
EE35  C9 52     CMP #$52                        A:52 X:02 Y:C0 P:25 SP:FB CYC:19820
EE37  F0 02     BEQ $EE3B                       A:52 X:02 Y:C0 P:27 SP:FB CYC:19822
EE3B  C8        INY                             A:52 X:02 Y:C0 P:27 SP:FB CYC:19824
EE3C  A9 37     LDA #$37                        A:52 X:02 Y:C1 P:A5 SP:FB CYC:19826
EE3E  8D 47 06  STA $0647 = 52                  A:37 X:02 Y:C1 P:25 SP:FB CYC:19828
EE41  20 9E FA  JSR $FA9E                       A:37 X:02 Y:C1 P:25 SP:FB CYC:19832
FA9E  24 01     BIT $01 = FF                    A:37 X:02 Y:C1 P:25 SP:F9 CYC:19838
FAA0  38        SEC                             A:37 X:02 Y:C1 P:E5 SP:F9 CYC:19841
FAA1  A9 10     LDA #$10                        A:37 X:02 Y:C1 P:E5 SP:F9 CYC:19843
FAA3  60        RTS                             A:10 X:02 Y:C1 P:65 SP:F9 CYC:19845
EE44  03 45    *SLO ($45,X) @ 47 = 0647 = 37    A:10 X:02 Y:C1 P:65 SP:FB CYC:19851
EE46  EA        NOP                             A:7E X:02 Y:C1 P:64 SP:FB CYC:19859
EE47  EA        NOP                             A:7E X:02 Y:C1 P:64 SP:FB CYC:19861
EE48  EA        NOP                             A:7E X:02 Y:C1 P:64 SP:FB CYC:19863
EE49  EA        NOP                             A:7E X:02 Y:C1 P:64 SP:FB CYC:19865
EE4A  20 A4 FA  JSR $FAA4                       A:7E X:02 Y:C1 P:64 SP:FB CYC:19867
FAA4  50 40     BVC $FAE6                       A:7E X:02 Y:C1 P:64 SP:F9 CYC:19873
FAA6  F0 3E     BEQ $FAE6                       A:7E X:02 Y:C1 P:64 SP:F9 CYC:19875
FAA8  30 3C     BMI $FAE6                       A:7E X:02 Y:C1 P:64 SP:F9 CYC:19877
FAAA  B0 3A     BCS $FAE6                       A:7E X:02 Y:C1 P:64 SP:F9 CYC:19879
FAAC  C9 7E     CMP #$7E                        A:7E X:02 Y:C1 P:64 SP:F9 CYC:19881
FAAE  D0 36     BNE $FAE6                       A:7E X:02 Y:C1 P:67 SP:F9 CYC:19883
FAB0  60        RTS                             A:7E X:02 Y:C1 P:67 SP:F9 CYC:19885
EE4D  AD 47 06  LDA $0647 = 6E                  A:7E X:02 Y:C1 P:67 SP:FB CYC:19891
EE50  C9 6E     CMP #$6E                        A:6E X:02 Y:C1 P:65 SP:FB CYC:19895
EE52  F0 02     BEQ $EE56                       A:6E X:02 Y:C1 P:67 SP:FB CYC:19897
EE56  C8        INY                             A:6E X:02 Y:C1 P:67 SP:FB CYC:19899
EE57  A9 A5     LDA #$A5                        A:6E X:02 Y:C2 P:E5 SP:FB CYC:19901
EE59  85 47     STA $47 = 47                    A:A5 X:02 Y:C2 P:E5 SP:FB CYC:19903
EE5B  20 7B FA  JSR $FA7B                       A:A5 X:02 Y:C2 P:E5 SP:FB CYC:19906
FA7B  24 01     BIT $01 = FF                    A:A5 X:02 Y:C2 P:E5 SP:F9 CYC:19912
FA7D  18        CLC                             A:A5 X:02 Y:C2 P:E5 SP:F9 CYC:19915
FA7E  A9 B3     LDA #$B3                        A:A5 X:02 Y:C2 P:E4 SP:F9 CYC:19917
FA80  60        RTS                             A:B3 X:02 Y:C2 P:E4 SP:F9 CYC:19919
EE5E  07 47    *SLO $47 = A5                    A:B3 X:02 Y:C2 P:E4 SP:FB CYC:19925
EE60  EA        NOP                             A:FB X:02 Y:C2 P:E5 SP:FB CYC:19930
EE61  EA        NOP                             A:FB X:02 Y:C2 P:E5 SP:FB CYC:19932
EE62  EA        NOP                             A:FB X:02 Y:C2 P:E5 SP:FB CYC:19934
EE63  EA        NOP                             A:FB X:02 Y:C2 P:E5 SP:FB CYC:19936
EE64  20 81 FA  JSR $FA81                       A:FB X:02 Y:C2 P:E5 SP:FB CYC:19938
FA81  50 63     BVC $FAE6                       A:FB X:02 Y:C2 P:E5 SP:F9 CYC:19944
FA83  90 61     BCC $FAE6                       A:FB X:02 Y:C2 P:E5 SP:F9 CYC:19946
FA85  10 5F     BPL $FAE6                       A:FB X:02 Y:C2 P:E5 SP:F9 CYC:19948
FA87  C9 FB     CMP #$FB                        A:FB X:02 Y:C2 P:E5 SP:F9 CYC:19950
FA89  D0 5B     BNE $FAE6                       A:FB X:02 Y:C2 P:67 SP:F9 CYC:19952
FA8B  60        RTS                             A:FB X:02 Y:C2 P:67 SP:F9 CYC:19954
EE67  A5 47     LDA $47 = 4A                    A:FB X:02 Y:C2 P:67 SP:FB CYC:19960
EE69  C9 4A     CMP #$4A                        A:4A X:02 Y:C2 P:65 SP:FB CYC:19963
EE6B  F0 02     BEQ $EE6F                       A:4A X:02 Y:C2 P:67 SP:FB CYC:19965
EE6F  C8        INY                             A:4A X:02 Y:C2 P:67 SP:FB CYC:19967
EE70  A9 29     LDA #$29                        A:4A X:02 Y:C3 P:E5 SP:FB CYC:19969
EE72  85 47     STA $47 = 4A                    A:29 X:02 Y:C3 P:65 SP:FB CYC:19971
EE74  20 8C FA  JSR $FA8C                       A:29 X:02 Y:C3 P:65 SP:FB CYC:19974
FA8C  B8        CLV                             A:29 X:02 Y:C3 P:65 SP:F9 CYC:19980
FA8D  18        CLC                             A:29 X:02 Y:C3 P:25 SP:F9 CYC:19982
FA8E  A9 C3     LDA #$C3                        A:29 X:02 Y:C3 P:24 SP:F9 CYC:19984
FA90  60        RTS                             A:C3 X:02 Y:C3 P:A4 SP:F9 CYC:19986
EE77  07 47    *SLO $47 = 29                    A:C3 X:02 Y:C3 P:A4 SP:FB CYC:19992
EE79  EA        NOP                             A:D3 X:02 Y:C3 P:A4 SP:FB CYC:19997
EE7A  EA        NOP                             A:D3 X:02 Y:C3 P:A4 SP:FB CYC:19999
EE7B  EA        NOP                             A:D3 X:02 Y:C3 P:A4 SP:FB CYC:20001
EE7C  EA        NOP                             A:D3 X:02 Y:C3 P:A4 SP:FB CYC:20003
EE7D  20 91 FA  JSR $FA91                       A:D3 X:02 Y:C3 P:A4 SP:FB CYC:20005
FA91  70 53     BVS $FAE6                       A:D3 X:02 Y:C3 P:A4 SP:F9 CYC:20011
FA93  F0 51     BEQ $FAE6                       A:D3 X:02 Y:C3 P:A4 SP:F9 CYC:20013
FA95  10 4F     BPL $FAE6                       A:D3 X:02 Y:C3 P:A4 SP:F9 CYC:20015
FA97  B0 4D     BCS $FAE6                       A:D3 X:02 Y:C3 P:A4 SP:F9 CYC:20017
FA99  C9 D3     CMP #$D3                        A:D3 X:02 Y:C3 P:A4 SP:F9 CYC:20019
FA9B  D0 49     BNE $FAE6                       A:D3 X:02 Y:C3 P:27 SP:F9 CYC:20021
FA9D  60        RTS                             A:D3 X:02 Y:C3 P:27 SP:F9 CYC:20023
EE80  A5 47     LDA $47 = 52                    A:D3 X:02 Y:C3 P:27 SP:FB CYC:20029
EE82  C9 52     CMP #$52                        A:52 X:02 Y:C3 P:25 SP:FB CYC:20032
EE84  F0 02     BEQ $EE88                       A:52 X:02 Y:C3 P:27 SP:FB CYC:20034
EE88  C8        INY                             A:52 X:02 Y:C3 P:27 SP:FB CYC:20036
EE89  A9 37     LDA #$37                        A:52 X:02 Y:C4 P:A5 SP:FB CYC:20038
EE8B  85 47     STA $47 = 52                    A:37 X:02 Y:C4 P:25 SP:FB CYC:20040
EE8D  20 9E FA  JSR $FA9E                       A:37 X:02 Y:C4 P:25 SP:FB CYC:20043
FA9E  24 01     BIT $01 = FF                    A:37 X:02 Y:C4 P:25 SP:F9 CYC:20049
FAA0  38        SEC                             A:37 X:02 Y:C4 P:E5 SP:F9 CYC:20052
FAA1  A9 10     LDA #$10                        A:37 X:02 Y:C4 P:E5 SP:F9 CYC:20054
FAA3  60        RTS                             A:10 X:02 Y:C4 P:65 SP:F9 CYC:20056
EE90  07 47    *SLO $47 = 37                    A:10 X:02 Y:C4 P:65 SP:FB CYC:20062
EE92  EA        NOP                             A:7E X:02 Y:C4 P:64 SP:FB CYC:20067
EE93  EA        NOP                             A:7E X:02 Y:C4 P:64 SP:FB CYC:20069
EE94  EA        NOP                             A:7E X:02 Y:C4 P:64 SP:FB CYC:20071
EE95  EA        NOP                             A:7E X:02 Y:C4 P:64 SP:FB CYC:20073
EE96  20 A4 FA  JSR $FAA4                       A:7E X:02 Y:C4 P:64 SP:FB CYC:20075
FAA4  50 40     BVC $FAE6                       A:7E X:02 Y:C4 P:64 SP:F9 CYC:20081
FAA6  F0 3E     BEQ $FAE6                       A:7E X:02 Y:C4 P:64 SP:F9 CYC:20083
FAA8  30 3C     BMI $FAE6                       A:7E X:02 Y:C4 P:64 SP:F9 CYC:20085
FAAA  B0 3A     BCS $FAE6                       A:7E X:02 Y:C4 P:64 SP:F9 CYC:20087
FAAC  C9 7E     CMP #$7E                        A:7E X:02 Y:C4 P:64 SP:F9 CYC:20089
FAAE  D0 36     BNE $FAE6                       A:7E X:02 Y:C4 P:67 SP:F9 CYC:20091
FAB0  60        RTS                             A:7E X:02 Y:C4 P:67 SP:F9 CYC:20093
EE99  A5 47     LDA $47 = 6E                    A:7E X:02 Y:C4 P:67 SP:FB CYC:20099
EE9B  C9 6E     CMP #$6E                        A:6E X:02 Y:C4 P:65 SP:FB CYC:20102
EE9D  F0 02     BEQ $EEA1                       A:6E X:02 Y:C4 P:67 SP:FB CYC:20104
EEA1  C8        INY                             A:6E X:02 Y:C4 P:67 SP:FB CYC:20106
EEA2  A9 A5     LDA #$A5                        A:6E X:02 Y:C5 P:E5 SP:FB CYC:20108
EEA4  8D 47 06  STA $0647 = 6E                  A:A5 X:02 Y:C5 P:E5 SP:FB CYC:20110
EEA7  20 7B FA  JSR $FA7B                       A:A5 X:02 Y:C5 P:E5 SP:FB CYC:20114
FA7B  24 01     BIT $01 = FF                    A:A5 X:02 Y:C5 P:E5 SP:F9 CYC:20120
FA7D  18        CLC                             A:A5 X:02 Y:C5 P:E5 SP:F9 CYC:20123
FA7E  A9 B3     LDA #$B3                        A:A5 X:02 Y:C5 P:E4 SP:F9 CYC:20125
FA80  60        RTS                             A:B3 X:02 Y:C5 P:E4 SP:F9 CYC:20127
EEAA  0F 47 06 *SLO $0647 = A5                  A:B3 X:02 Y:C5 P:E4 SP:FB CYC:20133
EEAD  EA        NOP                             A:FB X:02 Y:C5 P:E5 SP:FB CYC:20139
EEAE  EA        NOP                             A:FB X:02 Y:C5 P:E5 SP:FB CYC:20141
EEAF  EA        NOP                             A:FB X:02 Y:C5 P:E5 SP:FB CYC:20143
EEB0  EA        NOP                             A:FB X:02 Y:C5 P:E5 SP:FB CYC:20145
EEB1  20 81 FA  JSR $FA81                       A:FB X:02 Y:C5 P:E5 SP:FB CYC:20147
FA81  50 63     BVC $FAE6                       A:FB X:02 Y:C5 P:E5 SP:F9 CYC:20153
FA83  90 61     BCC $FAE6                       A:FB X:02 Y:C5 P:E5 SP:F9 CYC:20155
FA85  10 5F     BPL $FAE6                       A:FB X:02 Y:C5 P:E5 SP:F9 CYC:20157
FA87  C9 FB     CMP #$FB                        A:FB X:02 Y:C5 P:E5 SP:F9 CYC:20159
FA89  D0 5B     BNE $FAE6                       A:FB X:02 Y:C5 P:67 SP:F9 CYC:20161
FA8B  60        RTS                             A:FB X:02 Y:C5 P:67 SP:F9 CYC:20163
EEB4  AD 47 06  LDA $0647 = 4A                  A:FB X:02 Y:C5 P:67 SP:FB CYC:20169
EEB7  C9 4A     CMP #$4A                        A:4A X:02 Y:C5 P:65 SP:FB CYC:20173
EEB9  F0 02     BEQ $EEBD                       A:4A X:02 Y:C5 P:67 SP:FB CYC:20175
EEBD  C8        INY                             A:4A X:02 Y:C5 P:67 SP:FB CYC:20177
EEBE  A9 29     LDA #$29                        A:4A X:02 Y:C6 P:E5 SP:FB CYC:20179
EEC0  8D 47 06  STA $0647 = 4A                  A:29 X:02 Y:C6 P:65 SP:FB CYC:20181
EEC3  20 8C FA  JSR $FA8C                       A:29 X:02 Y:C6 P:65 SP:FB CYC:20185
FA8C  B8        CLV                             A:29 X:02 Y:C6 P:65 SP:F9 CYC:20191
FA8D  18        CLC                             A:29 X:02 Y:C6 P:25 SP:F9 CYC:20193
FA8E  A9 C3     LDA #$C3                        A:29 X:02 Y:C6 P:24 SP:F9 CYC:20195
FA90  60        RTS                             A:C3 X:02 Y:C6 P:A4 SP:F9 CYC:20197
EEC6  0F 47 06 *SLO $0647 = 29                  A:C3 X:02 Y:C6 P:A4 SP:FB CYC:20203
EEC9  EA        NOP                             A:D3 X:02 Y:C6 P:A4 SP:FB CYC:20209
EECA  EA        NOP                             A:D3 X:02 Y:C6 P:A4 SP:FB CYC:20211
EECB  EA        NOP                             A:D3 X:02 Y:C6 P:A4 SP:FB CYC:20213
EECC  EA        NOP                             A:D3 X:02 Y:C6 P:A4 SP:FB CYC:20215
EECD  20 91 FA  JSR $FA91                       A:D3 X:02 Y:C6 P:A4 SP:FB CYC:20217
FA91  70 53     BVS $FAE6                       A:D3 X:02 Y:C6 P:A4 SP:F9 CYC:20223
FA93  F0 51     BEQ $FAE6                       A:D3 X:02 Y:C6 P:A4 SP:F9 CYC:20225
FA95  10 4F     BPL $FAE6                       A:D3 X:02 Y:C6 P:A4 SP:F9 CYC:20227
FA97  B0 4D     BCS $FAE6                       A:D3 X:02 Y:C6 P:A4 SP:F9 CYC:20229
FA99  C9 D3     CMP #$D3                        A:D3 X:02 Y:C6 P:A4 SP:F9 CYC:20231
FA9B  D0 49     BNE $FAE6                       A:D3 X:02 Y:C6 P:27 SP:F9 CYC:20233
FA9D  60        RTS                             A:D3 X:02 Y:C6 P:27 SP:F9 CYC:20235
EED0  AD 47 06  LDA $0647 = 52                  A:D3 X:02 Y:C6 P:27 SP:FB CYC:20241
EED3  C9 52     CMP #$52                        A:52 X:02 Y:C6 P:25 SP:FB CYC:20245
EED5  F0 02     BEQ $EED9                       A:52 X:02 Y:C6 P:27 SP:FB CYC:20247
EED9  C8        INY                             A:52 X:02 Y:C6 P:27 SP:FB CYC:20249
EEDA  A9 37     LDA #$37                        A:52 X:02 Y:C7 P:A5 SP:FB CYC:20251
EEDC  8D 47 06  STA $0647 = 52                  A:37 X:02 Y:C7 P:25 SP:FB CYC:20253
EEDF  20 9E FA  JSR $FA9E                       A:37 X:02 Y:C7 P:25 SP:FB CYC:20257
FA9E  24 01     BIT $01 = FF                    A:37 X:02 Y:C7 P:25 SP:F9 CYC:20263
FAA0  38        SEC                             A:37 X:02 Y:C7 P:E5 SP:F9 CYC:20266
FAA1  A9 10     LDA #$10                        A:37 X:02 Y:C7 P:E5 SP:F9 CYC:20268
FAA3  60        RTS                             A:10 X:02 Y:C7 P:65 SP:F9 CYC:20270
EEE2  0F 47 06 *SLO $0647 = 37                  A:10 X:02 Y:C7 P:65 SP:FB CYC:20276
EEE5  EA        NOP                             A:7E X:02 Y:C7 P:64 SP:FB CYC:20282
EEE6  EA        NOP                             A:7E X:02 Y:C7 P:64 SP:FB CYC:20284
EEE7  EA        NOP                             A:7E X:02 Y:C7 P:64 SP:FB CYC:20286
EEE8  EA        NOP                             A:7E X:02 Y:C7 P:64 SP:FB CYC:20288
EEE9  20 A4 FA  JSR $FAA4                       A:7E X:02 Y:C7 P:64 SP:FB CYC:20290
FAA4  50 40     BVC $FAE6                       A:7E X:02 Y:C7 P:64 SP:F9 CYC:20296
FAA6  F0 3E     BEQ $FAE6                       A:7E X:02 Y:C7 P:64 SP:F9 CYC:20298
FAA8  30 3C     BMI $FAE6                       A:7E X:02 Y:C7 P:64 SP:F9 CYC:20300
FAAA  B0 3A     BCS $FAE6                       A:7E X:02 Y:C7 P:64 SP:F9 CYC:20302
FAAC  C9 7E     CMP #$7E                        A:7E X:02 Y:C7 P:64 SP:F9 CYC:20304
FAAE  D0 36     BNE $FAE6                       A:7E X:02 Y:C7 P:67 SP:F9 CYC:20306
FAB0  60        RTS                             A:7E X:02 Y:C7 P:67 SP:F9 CYC:20308
EEEC  AD 47 06  LDA $0647 = 6E                  A:7E X:02 Y:C7 P:67 SP:FB CYC:20314
EEEF  C9 6E     CMP #$6E                        A:6E X:02 Y:C7 P:65 SP:FB CYC:20318
EEF1  F0 02     BEQ $EEF5                       A:6E X:02 Y:C7 P:67 SP:FB CYC:20320
EEF5  A9 A5     LDA #$A5                        A:6E X:02 Y:C7 P:67 SP:FB CYC:20322
EEF7  8D 47 06  STA $0647 = 6E                  A:A5 X:02 Y:C7 P:E5 SP:FB CYC:20324
EEFA  A9 48     LDA #$48                        A:A5 X:02 Y:C7 P:E5 SP:FB CYC:20328
EEFC  85 45     STA $45 = 48                    A:48 X:02 Y:C7 P:65 SP:FB CYC:20330
EEFE  A9 05     LDA #$05                        A:48 X:02 Y:C7 P:65 SP:FB CYC:20333
EF00  85 46     STA $46 = 05                    A:05 X:02 Y:C7 P:65 SP:FB CYC:20335
EF02  A0 FF     LDY #$FF                        A:05 X:02 Y:C7 P:65 SP:FB CYC:20338
EF04  20 7B FA  JSR $FA7B                       A:05 X:02 Y:FF P:E5 SP:FB CYC:20340
FA7B  24 01     BIT $01 = FF                    A:05 X:02 Y:FF P:E5 SP:F9 CYC:20346
FA7D  18        CLC                             A:05 X:02 Y:FF P:E5 SP:F9 CYC:20349
FA7E  A9 B3     LDA #$B3                        A:05 X:02 Y:FF P:E4 SP:F9 CYC:20351
FA80  60        RTS                             A:B3 X:02 Y:FF P:E4 SP:F9 CYC:20353
EF07  13 45    *SLO ($45),Y = 0548 @ 0647 = A5  A:B3 X:02 Y:FF P:E4 SP:FB CYC:20359
EF09  EA        NOP                             A:FB X:02 Y:FF P:E5 SP:FB CYC:20367
EF0A  EA        NOP                             A:FB X:02 Y:FF P:E5 SP:FB CYC:20369
EF0B  08        PHP                             A:FB X:02 Y:FF P:E5 SP:FB CYC:20371
EF0C  48        PHA                             A:FB X:02 Y:FF P:E5 SP:FA CYC:20374
EF0D  A0 C8     LDY #$C8                        A:FB X:02 Y:FF P:E5 SP:F9 CYC:20377
EF0F  68        PLA                             A:FB X:02 Y:C8 P:E5 SP:F9 CYC:20379
EF10  28        PLP                             A:FB X:02 Y:C8 P:E5 SP:FA CYC:20383
EF11  20 81 FA  JSR $FA81                       A:FB X:02 Y:C8 P:E5 SP:FB CYC:20387
FA81  50 63     BVC $FAE6                       A:FB X:02 Y:C8 P:E5 SP:F9 CYC:20393
FA83  90 61     BCC $FAE6                       A:FB X:02 Y:C8 P:E5 SP:F9 CYC:20395
FA85  10 5F     BPL $FAE6                       A:FB X:02 Y:C8 P:E5 SP:F9 CYC:20397
FA87  C9 FB     CMP #$FB                        A:FB X:02 Y:C8 P:E5 SP:F9 CYC:20399
FA89  D0 5B     BNE $FAE6                       A:FB X:02 Y:C8 P:67 SP:F9 CYC:20401
FA8B  60        RTS                             A:FB X:02 Y:C8 P:67 SP:F9 CYC:20403
EF14  AD 47 06  LDA $0647 = 4A                  A:FB X:02 Y:C8 P:67 SP:FB CYC:20409
EF17  C9 4A     CMP #$4A                        A:4A X:02 Y:C8 P:65 SP:FB CYC:20413
EF19  F0 02     BEQ $EF1D                       A:4A X:02 Y:C8 P:67 SP:FB CYC:20415
EF1D  A0 FF     LDY #$FF                        A:4A X:02 Y:C8 P:67 SP:FB CYC:20417
EF1F  A9 29     LDA #$29                        A:4A X:02 Y:FF P:E5 SP:FB CYC:20419
EF21  8D 47 06  STA $0647 = 4A                  A:29 X:02 Y:FF P:65 SP:FB CYC:20421
EF24  20 8C FA  JSR $FA8C                       A:29 X:02 Y:FF P:65 SP:FB CYC:20425
FA8C  B8        CLV                             A:29 X:02 Y:FF P:65 SP:F9 CYC:20431
FA8D  18        CLC                             A:29 X:02 Y:FF P:25 SP:F9 CYC:20433
FA8E  A9 C3     LDA #$C3                        A:29 X:02 Y:FF P:24 SP:F9 CYC:20435
FA90  60        RTS                             A:C3 X:02 Y:FF P:A4 SP:F9 CYC:20437
EF27  13 45    *SLO ($45),Y = 0548 @ 0647 = 29  A:C3 X:02 Y:FF P:A4 SP:FB CYC:20443
EF29  EA        NOP                             A:D3 X:02 Y:FF P:A4 SP:FB CYC:20451
EF2A  EA        NOP                             A:D3 X:02 Y:FF P:A4 SP:FB CYC:20453
EF2B  08        PHP                             A:D3 X:02 Y:FF P:A4 SP:FB CYC:20455
EF2C  48        PHA                             A:D3 X:02 Y:FF P:A4 SP:FA CYC:20458
EF2D  A0 C9     LDY #$C9                        A:D3 X:02 Y:FF P:A4 SP:F9 CYC:20461
EF2F  68        PLA                             A:D3 X:02 Y:C9 P:A4 SP:F9 CYC:20463
EF30  28        PLP                             A:D3 X:02 Y:C9 P:A4 SP:FA CYC:20467
EF31  20 91 FA  JSR $FA91                       A:D3 X:02 Y:C9 P:A4 SP:FB CYC:20471
FA91  70 53     BVS $FAE6                       A:D3 X:02 Y:C9 P:A4 SP:F9 CYC:20477
FA93  F0 51     BEQ $FAE6                       A:D3 X:02 Y:C9 P:A4 SP:F9 CYC:20479
FA95  10 4F     BPL $FAE6                       A:D3 X:02 Y:C9 P:A4 SP:F9 CYC:20481
FA97  B0 4D     BCS $FAE6                       A:D3 X:02 Y:C9 P:A4 SP:F9 CYC:20483
FA99  C9 D3     CMP #$D3                        A:D3 X:02 Y:C9 P:A4 SP:F9 CYC:20485
FA9B  D0 49     BNE $FAE6                       A:D3 X:02 Y:C9 P:27 SP:F9 CYC:20487
FA9D  60        RTS                             A:D3 X:02 Y:C9 P:27 SP:F9 CYC:20489
EF34  AD 47 06  LDA $0647 = 52                  A:D3 X:02 Y:C9 P:27 SP:FB CYC:20495
EF37  C9 52     CMP #$52                        A:52 X:02 Y:C9 P:25 SP:FB CYC:20499
EF39  F0 02     BEQ $EF3D                       A:52 X:02 Y:C9 P:27 SP:FB CYC:20501
EF3D  A0 FF     LDY #$FF                        A:52 X:02 Y:C9 P:27 SP:FB CYC:20503
EF3F  A9 37     LDA #$37                        A:52 X:02 Y:FF P:A5 SP:FB CYC:20505
EF41  8D 47 06  STA $0647 = 52                  A:37 X:02 Y:FF P:25 SP:FB CYC:20507
EF44  20 9E FA  JSR $FA9E                       A:37 X:02 Y:FF P:25 SP:FB CYC:20511
FA9E  24 01     BIT $01 = FF                    A:37 X:02 Y:FF P:25 SP:F9 CYC:20517
FAA0  38        SEC                             A:37 X:02 Y:FF P:E5 SP:F9 CYC:20520
FAA1  A9 10     LDA #$10                        A:37 X:02 Y:FF P:E5 SP:F9 CYC:20522
FAA3  60        RTS                             A:10 X:02 Y:FF P:65 SP:F9 CYC:20524
EF47  13 45    *SLO ($45),Y = 0548 @ 0647 = 37  A:10 X:02 Y:FF P:65 SP:FB CYC:20530
EF49  EA        NOP                             A:7E X:02 Y:FF P:64 SP:FB CYC:20538
EF4A  EA        NOP                             A:7E X:02 Y:FF P:64 SP:FB CYC:20540
EF4B  08        PHP                             A:7E X:02 Y:FF P:64 SP:FB CYC:20542
EF4C  48        PHA                             A:7E X:02 Y:FF P:64 SP:FA CYC:20545
EF4D  A0 CA     LDY #$CA                        A:7E X:02 Y:FF P:64 SP:F9 CYC:20548
EF4F  68        PLA                             A:7E X:02 Y:CA P:E4 SP:F9 CYC:20550
EF50  28        PLP                             A:7E X:02 Y:CA P:64 SP:FA CYC:20554
EF51  20 A4 FA  JSR $FAA4                       A:7E X:02 Y:CA P:64 SP:FB CYC:20558
FAA4  50 40     BVC $FAE6                       A:7E X:02 Y:CA P:64 SP:F9 CYC:20564
FAA6  F0 3E     BEQ $FAE6                       A:7E X:02 Y:CA P:64 SP:F9 CYC:20566
FAA8  30 3C     BMI $FAE6                       A:7E X:02 Y:CA P:64 SP:F9 CYC:20568
FAAA  B0 3A     BCS $FAE6                       A:7E X:02 Y:CA P:64 SP:F9 CYC:20570
FAAC  C9 7E     CMP #$7E                        A:7E X:02 Y:CA P:64 SP:F9 CYC:20572
FAAE  D0 36     BNE $FAE6                       A:7E X:02 Y:CA P:67 SP:F9 CYC:20574
FAB0  60        RTS                             A:7E X:02 Y:CA P:67 SP:F9 CYC:20576
EF54  AD 47 06  LDA $0647 = 6E                  A:7E X:02 Y:CA P:67 SP:FB CYC:20582
EF57  C9 6E     CMP #$6E                        A:6E X:02 Y:CA P:65 SP:FB CYC:20586
EF59  F0 02     BEQ $EF5D                       A:6E X:02 Y:CA P:67 SP:FB CYC:20588
EF5D  A0 CB     LDY #$CB                        A:6E X:02 Y:CA P:67 SP:FB CYC:20590
EF5F  A2 FF     LDX #$FF                        A:6E X:02 Y:CB P:E5 SP:FB CYC:20592
EF61  A9 A5     LDA #$A5                        A:6E X:FF Y:CB P:E5 SP:FB CYC:20594
EF63  85 47     STA $47 = 6E                    A:A5 X:FF Y:CB P:E5 SP:FB CYC:20596
EF65  20 7B FA  JSR $FA7B                       A:A5 X:FF Y:CB P:E5 SP:FB CYC:20599
FA7B  24 01     BIT $01 = FF                    A:A5 X:FF Y:CB P:E5 SP:F9 CYC:20605
FA7D  18        CLC                             A:A5 X:FF Y:CB P:E5 SP:F9 CYC:20608
FA7E  A9 B3     LDA #$B3                        A:A5 X:FF Y:CB P:E4 SP:F9 CYC:20610
FA80  60        RTS                             A:B3 X:FF Y:CB P:E4 SP:F9 CYC:20612
EF68  17 48    *SLO $48,X @ 47 = A5             A:B3 X:FF Y:CB P:E4 SP:FB CYC:20618
EF6A  EA        NOP                             A:FB X:FF Y:CB P:E5 SP:FB CYC:20624
EF6B  EA        NOP                             A:FB X:FF Y:CB P:E5 SP:FB CYC:20626
EF6C  EA        NOP                             A:FB X:FF Y:CB P:E5 SP:FB CYC:20628
EF6D  EA        NOP                             A:FB X:FF Y:CB P:E5 SP:FB CYC:20630
EF6E  20 81 FA  JSR $FA81                       A:FB X:FF Y:CB P:E5 SP:FB CYC:20632
FA81  50 63     BVC $FAE6                       A:FB X:FF Y:CB P:E5 SP:F9 CYC:20638
FA83  90 61     BCC $FAE6                       A:FB X:FF Y:CB P:E5 SP:F9 CYC:20640
FA85  10 5F     BPL $FAE6                       A:FB X:FF Y:CB P:E5 SP:F9 CYC:20642
FA87  C9 FB     CMP #$FB                        A:FB X:FF Y:CB P:E5 SP:F9 CYC:20644
FA89  D0 5B     BNE $FAE6                       A:FB X:FF Y:CB P:67 SP:F9 CYC:20646
FA8B  60        RTS                             A:FB X:FF Y:CB P:67 SP:F9 CYC:20648
EF71  A5 47     LDA $47 = 4A                    A:FB X:FF Y:CB P:67 SP:FB CYC:20654
EF73  C9 4A     CMP #$4A                        A:4A X:FF Y:CB P:65 SP:FB CYC:20657
EF75  F0 02     BEQ $EF79                       A:4A X:FF Y:CB P:67 SP:FB CYC:20659
EF79  C8        INY                             A:4A X:FF Y:CB P:67 SP:FB CYC:20661
EF7A  A9 29     LDA #$29                        A:4A X:FF Y:CC P:E5 SP:FB CYC:20663
EF7C  85 47     STA $47 = 4A                    A:29 X:FF Y:CC P:65 SP:FB CYC:20665
EF7E  20 8C FA  JSR $FA8C                       A:29 X:FF Y:CC P:65 SP:FB CYC:20668
FA8C  B8        CLV                             A:29 X:FF Y:CC P:65 SP:F9 CYC:20674
FA8D  18        CLC                             A:29 X:FF Y:CC P:25 SP:F9 CYC:20676
FA8E  A9 C3     LDA #$C3                        A:29 X:FF Y:CC P:24 SP:F9 CYC:20678
FA90  60        RTS                             A:C3 X:FF Y:CC P:A4 SP:F9 CYC:20680
EF81  17 48    *SLO $48,X @ 47 = 29             A:C3 X:FF Y:CC P:A4 SP:FB CYC:20686
EF83  EA        NOP                             A:D3 X:FF Y:CC P:A4 SP:FB CYC:20692
EF84  EA        NOP                             A:D3 X:FF Y:CC P:A4 SP:FB CYC:20694
EF85  EA        NOP                             A:D3 X:FF Y:CC P:A4 SP:FB CYC:20696
EF86  EA        NOP                             A:D3 X:FF Y:CC P:A4 SP:FB CYC:20698
EF87  20 91 FA  JSR $FA91                       A:D3 X:FF Y:CC P:A4 SP:FB CYC:20700
FA91  70 53     BVS $FAE6                       A:D3 X:FF Y:CC P:A4 SP:F9 CYC:20706
FA93  F0 51     BEQ $FAE6                       A:D3 X:FF Y:CC P:A4 SP:F9 CYC:20708
FA95  10 4F     BPL $FAE6                       A:D3 X:FF Y:CC P:A4 SP:F9 CYC:20710
FA97  B0 4D     BCS $FAE6                       A:D3 X:FF Y:CC P:A4 SP:F9 CYC:20712
FA99  C9 D3     CMP #$D3                        A:D3 X:FF Y:CC P:A4 SP:F9 CYC:20714
FA9B  D0 49     BNE $FAE6                       A:D3 X:FF Y:CC P:27 SP:F9 CYC:20716
FA9D  60        RTS                             A:D3 X:FF Y:CC P:27 SP:F9 CYC:20718
EF8A  A5 47     LDA $47 = 52                    A:D3 X:FF Y:CC P:27 SP:FB CYC:20724
EF8C  C9 52     CMP #$52                        A:52 X:FF Y:CC P:25 SP:FB CYC:20727
EF8E  F0 02     BEQ $EF92                       A:52 X:FF Y:CC P:27 SP:FB CYC:20729
EF92  C8        INY                             A:52 X:FF Y:CC P:27 SP:FB CYC:20731
EF93  A9 37     LDA #$37                        A:52 X:FF Y:CD P:A5 SP:FB CYC:20733
EF95  85 47     STA $47 = 52                    A:37 X:FF Y:CD P:25 SP:FB CYC:20735
EF97  20 9E FA  JSR $FA9E                       A:37 X:FF Y:CD P:25 SP:FB CYC:20738
FA9E  24 01     BIT $01 = FF                    A:37 X:FF Y:CD P:25 SP:F9 CYC:20744
FAA0  38        SEC                             A:37 X:FF Y:CD P:E5 SP:F9 CYC:20747
FAA1  A9 10     LDA #$10                        A:37 X:FF Y:CD P:E5 SP:F9 CYC:20749
FAA3  60        RTS                             A:10 X:FF Y:CD P:65 SP:F9 CYC:20751
EF9A  17 48    *SLO $48,X @ 47 = 37             A:10 X:FF Y:CD P:65 SP:FB CYC:20757
EF9C  EA        NOP                             A:7E X:FF Y:CD P:64 SP:FB CYC:20763
EF9D  EA        NOP                             A:7E X:FF Y:CD P:64 SP:FB CYC:20765
EF9E  EA        NOP                             A:7E X:FF Y:CD P:64 SP:FB CYC:20767
EF9F  EA        NOP                             A:7E X:FF Y:CD P:64 SP:FB CYC:20769
EFA0  20 A4 FA  JSR $FAA4                       A:7E X:FF Y:CD P:64 SP:FB CYC:20771
FAA4  50 40     BVC $FAE6                       A:7E X:FF Y:CD P:64 SP:F9 CYC:20777
FAA6  F0 3E     BEQ $FAE6                       A:7E X:FF Y:CD P:64 SP:F9 CYC:20779
FAA8  30 3C     BMI $FAE6                       A:7E X:FF Y:CD P:64 SP:F9 CYC:20781
FAAA  B0 3A     BCS $FAE6                       A:7E X:FF Y:CD P:64 SP:F9 CYC:20783
FAAC  C9 7E     CMP #$7E                        A:7E X:FF Y:CD P:64 SP:F9 CYC:20785
FAAE  D0 36     BNE $FAE6                       A:7E X:FF Y:CD P:67 SP:F9 CYC:20787
FAB0  60        RTS                             A:7E X:FF Y:CD P:67 SP:F9 CYC:20789
EFA3  A5 47     LDA $47 = 6E                    A:7E X:FF Y:CD P:67 SP:FB CYC:20795
EFA5  C9 6E     CMP #$6E                        A:6E X:FF Y:CD P:65 SP:FB CYC:20798
EFA7  F0 02     BEQ $EFAB                       A:6E X:FF Y:CD P:67 SP:FB CYC:20800
EFAB  A9 A5     LDA #$A5                        A:6E X:FF Y:CD P:67 SP:FB CYC:20802
EFAD  8D 47 06  STA $0647 = 6E                  A:A5 X:FF Y:CD P:E5 SP:FB CYC:20804
EFB0  A0 FF     LDY #$FF                        A:A5 X:FF Y:CD P:E5 SP:FB CYC:20808
EFB2  20 7B FA  JSR $FA7B                       A:A5 X:FF Y:FF P:E5 SP:FB CYC:20810
FA7B  24 01     BIT $01 = FF                    A:A5 X:FF Y:FF P:E5 SP:F9 CYC:20816
FA7D  18        CLC                             A:A5 X:FF Y:FF P:E5 SP:F9 CYC:20819
FA7E  A9 B3     LDA #$B3                        A:A5 X:FF Y:FF P:E4 SP:F9 CYC:20821
FA80  60        RTS                             A:B3 X:FF Y:FF P:E4 SP:F9 CYC:20823
EFB5  1B 48 05 *SLO $0548,Y @ 0647 = A5         A:B3 X:FF Y:FF P:E4 SP:FB CYC:20829
EFB8  EA        NOP                             A:FB X:FF Y:FF P:E5 SP:FB CYC:20836
EFB9  EA        NOP                             A:FB X:FF Y:FF P:E5 SP:FB CYC:20838
EFBA  08        PHP                             A:FB X:FF Y:FF P:E5 SP:FB CYC:20840
EFBB  48        PHA                             A:FB X:FF Y:FF P:E5 SP:FA CYC:20843
EFBC  A0 CE     LDY #$CE                        A:FB X:FF Y:FF P:E5 SP:F9 CYC:20846
EFBE  68        PLA                             A:FB X:FF Y:CE P:E5 SP:F9 CYC:20848
EFBF  28        PLP                             A:FB X:FF Y:CE P:E5 SP:FA CYC:20852
EFC0  20 81 FA  JSR $FA81                       A:FB X:FF Y:CE P:E5 SP:FB CYC:20856
FA81  50 63     BVC $FAE6                       A:FB X:FF Y:CE P:E5 SP:F9 CYC:20862
FA83  90 61     BCC $FAE6                       A:FB X:FF Y:CE P:E5 SP:F9 CYC:20864
FA85  10 5F     BPL $FAE6                       A:FB X:FF Y:CE P:E5 SP:F9 CYC:20866
FA87  C9 FB     CMP #$FB                        A:FB X:FF Y:CE P:E5 SP:F9 CYC:20868
FA89  D0 5B     BNE $FAE6                       A:FB X:FF Y:CE P:67 SP:F9 CYC:20870
FA8B  60        RTS                             A:FB X:FF Y:CE P:67 SP:F9 CYC:20872
EFC3  AD 47 06  LDA $0647 = 4A                  A:FB X:FF Y:CE P:67 SP:FB CYC:20878
EFC6  C9 4A     CMP #$4A                        A:4A X:FF Y:CE P:65 SP:FB CYC:20882
EFC8  F0 02     BEQ $EFCC                       A:4A X:FF Y:CE P:67 SP:FB CYC:20884
EFCC  A0 FF     LDY #$FF                        A:4A X:FF Y:CE P:67 SP:FB CYC:20886
EFCE  A9 29     LDA #$29                        A:4A X:FF Y:FF P:E5 SP:FB CYC:20888
EFD0  8D 47 06  STA $0647 = 4A                  A:29 X:FF Y:FF P:65 SP:FB CYC:20890
EFD3  20 8C FA  JSR $FA8C                       A:29 X:FF Y:FF P:65 SP:FB CYC:20894
FA8C  B8        CLV                             A:29 X:FF Y:FF P:65 SP:F9 CYC:20900
FA8D  18        CLC                             A:29 X:FF Y:FF P:25 SP:F9 CYC:20902
FA8E  A9 C3     LDA #$C3                        A:29 X:FF Y:FF P:24 SP:F9 CYC:20904
FA90  60        RTS                             A:C3 X:FF Y:FF P:A4 SP:F9 CYC:20906
EFD6  1B 48 05 *SLO $0548,Y @ 0647 = 29         A:C3 X:FF Y:FF P:A4 SP:FB CYC:20912
EFD9  EA        NOP                             A:D3 X:FF Y:FF P:A4 SP:FB CYC:20919
EFDA  EA        NOP                             A:D3 X:FF Y:FF P:A4 SP:FB CYC:20921
EFDB  08        PHP                             A:D3 X:FF Y:FF P:A4 SP:FB CYC:20923
EFDC  48        PHA                             A:D3 X:FF Y:FF P:A4 SP:FA CYC:20926
EFDD  A0 CF     LDY #$CF                        A:D3 X:FF Y:FF P:A4 SP:F9 CYC:20929
EFDF  68        PLA                             A:D3 X:FF Y:CF P:A4 SP:F9 CYC:20931
EFE0  28        PLP                             A:D3 X:FF Y:CF P:A4 SP:FA CYC:20935
EFE1  20 91 FA  JSR $FA91                       A:D3 X:FF Y:CF P:A4 SP:FB CYC:20939
FA91  70 53     BVS $FAE6                       A:D3 X:FF Y:CF P:A4 SP:F9 CYC:20945
FA93  F0 51     BEQ $FAE6                       A:D3 X:FF Y:CF P:A4 SP:F9 CYC:20947
FA95  10 4F     BPL $FAE6                       A:D3 X:FF Y:CF P:A4 SP:F9 CYC:20949
FA97  B0 4D     BCS $FAE6                       A:D3 X:FF Y:CF P:A4 SP:F9 CYC:20951
FA99  C9 D3     CMP #$D3                        A:D3 X:FF Y:CF P:A4 SP:F9 CYC:20953
FA9B  D0 49     BNE $FAE6                       A:D3 X:FF Y:CF P:27 SP:F9 CYC:20955
FA9D  60        RTS                             A:D3 X:FF Y:CF P:27 SP:F9 CYC:20957
EFE4  AD 47 06  LDA $0647 = 52                  A:D3 X:FF Y:CF P:27 SP:FB CYC:20963
EFE7  C9 52     CMP #$52                        A:52 X:FF Y:CF P:25 SP:FB CYC:20967
EFE9  F0 02     BEQ $EFED                       A:52 X:FF Y:CF P:27 SP:FB CYC:20969
EFED  A0 FF     LDY #$FF                        A:52 X:FF Y:CF P:27 SP:FB CYC:20971
EFEF  A9 37     LDA #$37                        A:52 X:FF Y:FF P:A5 SP:FB CYC:20973
EFF1  8D 47 06  STA $0647 = 52                  A:37 X:FF Y:FF P:25 SP:FB CYC:20975
EFF4  20 9E FA  JSR $FA9E                       A:37 X:FF Y:FF P:25 SP:FB CYC:20979
FA9E  24 01     BIT $01 = FF                    A:37 X:FF Y:FF P:25 SP:F9 CYC:20985
FAA0  38        SEC                             A:37 X:FF Y:FF P:E5 SP:F9 CYC:20988
FAA1  A9 10     LDA #$10                        A:37 X:FF Y:FF P:E5 SP:F9 CYC:20990
FAA3  60        RTS                             A:10 X:FF Y:FF P:65 SP:F9 CYC:20992
EFF7  1B 48 05 *SLO $0548,Y @ 0647 = 37         A:10 X:FF Y:FF P:65 SP:FB CYC:20998
EFFA  EA        NOP                             A:7E X:FF Y:FF P:64 SP:FB CYC:21005
EFFB  EA        NOP                             A:7E X:FF Y:FF P:64 SP:FB CYC:21007
EFFC  08        PHP                             A:7E X:FF Y:FF P:64 SP:FB CYC:21009
EFFD  48        PHA                             A:7E X:FF Y:FF P:64 SP:FA CYC:21012
EFFE  A0 D0     LDY #$D0                        A:7E X:FF Y:FF P:64 SP:F9 CYC:21015
F000  68        PLA                             A:7E X:FF Y:D0 P:E4 SP:F9 CYC:21017
F001  28        PLP                             A:7E X:FF Y:D0 P:64 SP:FA CYC:21021
F002  20 A4 FA  JSR $FAA4                       A:7E X:FF Y:D0 P:64 SP:FB CYC:21025
FAA4  50 40     BVC $FAE6                       A:7E X:FF Y:D0 P:64 SP:F9 CYC:21031
FAA6  F0 3E     BEQ $FAE6                       A:7E X:FF Y:D0 P:64 SP:F9 CYC:21033
FAA8  30 3C     BMI $FAE6                       A:7E X:FF Y:D0 P:64 SP:F9 CYC:21035
FAAA  B0 3A     BCS $FAE6                       A:7E X:FF Y:D0 P:64 SP:F9 CYC:21037
FAAC  C9 7E     CMP #$7E                        A:7E X:FF Y:D0 P:64 SP:F9 CYC:21039
FAAE  D0 36     BNE $FAE6                       A:7E X:FF Y:D0 P:67 SP:F9 CYC:21041
FAB0  60        RTS                             A:7E X:FF Y:D0 P:67 SP:F9 CYC:21043
F005  AD 47 06  LDA $0647 = 6E                  A:7E X:FF Y:D0 P:67 SP:FB CYC:21049
F008  C9 6E     CMP #$6E                        A:6E X:FF Y:D0 P:65 SP:FB CYC:21053
F00A  F0 02     BEQ $F00E                       A:6E X:FF Y:D0 P:67 SP:FB CYC:21055
F00E  A0 D1     LDY #$D1                        A:6E X:FF Y:D0 P:67 SP:FB CYC:21057
F010  A2 FF     LDX #$FF                        A:6E X:FF Y:D1 P:E5 SP:FB CYC:21059
F012  A9 A5     LDA #$A5                        A:6E X:FF Y:D1 P:E5 SP:FB CYC:21061
F014  8D 47 06  STA $0647 = 6E                  A:A5 X:FF Y:D1 P:E5 SP:FB CYC:21063
F017  20 7B FA  JSR $FA7B                       A:A5 X:FF Y:D1 P:E5 SP:FB CYC:21067
FA7B  24 01     BIT $01 = FF                    A:A5 X:FF Y:D1 P:E5 SP:F9 CYC:21073
FA7D  18        CLC                             A:A5 X:FF Y:D1 P:E5 SP:F9 CYC:21076
FA7E  A9 B3     LDA #$B3                        A:A5 X:FF Y:D1 P:E4 SP:F9 CYC:21078
FA80  60        RTS                             A:B3 X:FF Y:D1 P:E4 SP:F9 CYC:21080
F01A  1F 48 05 *SLO $0548,X @ 0647 = A5         A:B3 X:FF Y:D1 P:E4 SP:FB CYC:21086
F01D  EA        NOP                             A:FB X:FF Y:D1 P:E5 SP:FB CYC:21093
F01E  EA        NOP                             A:FB X:FF Y:D1 P:E5 SP:FB CYC:21095
F01F  EA        NOP                             A:FB X:FF Y:D1 P:E5 SP:FB CYC:21097
F020  EA        NOP                             A:FB X:FF Y:D1 P:E5 SP:FB CYC:21099
F021  20 81 FA  JSR $FA81                       A:FB X:FF Y:D1 P:E5 SP:FB CYC:21101
FA81  50 63     BVC $FAE6                       A:FB X:FF Y:D1 P:E5 SP:F9 CYC:21107
FA83  90 61     BCC $FAE6                       A:FB X:FF Y:D1 P:E5 SP:F9 CYC:21109
FA85  10 5F     BPL $FAE6                       A:FB X:FF Y:D1 P:E5 SP:F9 CYC:21111
FA87  C9 FB     CMP #$FB                        A:FB X:FF Y:D1 P:E5 SP:F9 CYC:21113
FA89  D0 5B     BNE $FAE6                       A:FB X:FF Y:D1 P:67 SP:F9 CYC:21115
FA8B  60        RTS                             A:FB X:FF Y:D1 P:67 SP:F9 CYC:21117
F024  AD 47 06  LDA $0647 = 4A                  A:FB X:FF Y:D1 P:67 SP:FB CYC:21123
F027  C9 4A     CMP #$4A                        A:4A X:FF Y:D1 P:65 SP:FB CYC:21127
F029  F0 02     BEQ $F02D                       A:4A X:FF Y:D1 P:67 SP:FB CYC:21129
F02D  C8        INY                             A:4A X:FF Y:D1 P:67 SP:FB CYC:21131
F02E  A9 29     LDA #$29                        A:4A X:FF Y:D2 P:E5 SP:FB CYC:21133
F030  8D 47 06  STA $0647 = 4A                  A:29 X:FF Y:D2 P:65 SP:FB CYC:21135
F033  20 8C FA  JSR $FA8C                       A:29 X:FF Y:D2 P:65 SP:FB CYC:21139
FA8C  B8        CLV                             A:29 X:FF Y:D2 P:65 SP:F9 CYC:21145
FA8D  18        CLC                             A:29 X:FF Y:D2 P:25 SP:F9 CYC:21147
FA8E  A9 C3     LDA #$C3                        A:29 X:FF Y:D2 P:24 SP:F9 CYC:21149
FA90  60        RTS                             A:C3 X:FF Y:D2 P:A4 SP:F9 CYC:21151
F036  1F 48 05 *SLO $0548,X @ 0647 = 29         A:C3 X:FF Y:D2 P:A4 SP:FB CYC:21157
F039  EA        NOP                             A:D3 X:FF Y:D2 P:A4 SP:FB CYC:21164
F03A  EA        NOP                             A:D3 X:FF Y:D2 P:A4 SP:FB CYC:21166
F03B  EA        NOP                             A:D3 X:FF Y:D2 P:A4 SP:FB CYC:21168
F03C  EA        NOP                             A:D3 X:FF Y:D2 P:A4 SP:FB CYC:21170
F03D  20 91 FA  JSR $FA91                       A:D3 X:FF Y:D2 P:A4 SP:FB CYC:21172
FA91  70 53     BVS $FAE6                       A:D3 X:FF Y:D2 P:A4 SP:F9 CYC:21178
FA93  F0 51     BEQ $FAE6                       A:D3 X:FF Y:D2 P:A4 SP:F9 CYC:21180
FA95  10 4F     BPL $FAE6                       A:D3 X:FF Y:D2 P:A4 SP:F9 CYC:21182
FA97  B0 4D     BCS $FAE6                       A:D3 X:FF Y:D2 P:A4 SP:F9 CYC:21184
FA99  C9 D3     CMP #$D3                        A:D3 X:FF Y:D2 P:A4 SP:F9 CYC:21186
FA9B  D0 49     BNE $FAE6                       A:D3 X:FF Y:D2 P:27 SP:F9 CYC:21188
FA9D  60        RTS                             A:D3 X:FF Y:D2 P:27 SP:F9 CYC:21190
F040  AD 47 06  LDA $0647 = 52                  A:D3 X:FF Y:D2 P:27 SP:FB CYC:21196
F043  C9 52     CMP #$52                        A:52 X:FF Y:D2 P:25 SP:FB CYC:21200
F045  F0 02     BEQ $F049                       A:52 X:FF Y:D2 P:27 SP:FB CYC:21202
F049  C8        INY                             A:52 X:FF Y:D2 P:27 SP:FB CYC:21204
F04A  A9 37     LDA #$37                        A:52 X:FF Y:D3 P:A5 SP:FB CYC:21206
F04C  8D 47 06  STA $0647 = 52                  A:37 X:FF Y:D3 P:25 SP:FB CYC:21208
F04F  20 9E FA  JSR $FA9E                       A:37 X:FF Y:D3 P:25 SP:FB CYC:21212
FA9E  24 01     BIT $01 = FF                    A:37 X:FF Y:D3 P:25 SP:F9 CYC:21218
FAA0  38        SEC                             A:37 X:FF Y:D3 P:E5 SP:F9 CYC:21221
FAA1  A9 10     LDA #$10                        A:37 X:FF Y:D3 P:E5 SP:F9 CYC:21223
FAA3  60        RTS                             A:10 X:FF Y:D3 P:65 SP:F9 CYC:21225
F052  1F 48 05 *SLO $0548,X @ 0647 = 37         A:10 X:FF Y:D3 P:65 SP:FB CYC:21231
F055  EA        NOP                             A:7E X:FF Y:D3 P:64 SP:FB CYC:21238
F056  EA        NOP                             A:7E X:FF Y:D3 P:64 SP:FB CYC:21240
F057  EA        NOP                             A:7E X:FF Y:D3 P:64 SP:FB CYC:21242
F058  EA        NOP                             A:7E X:FF Y:D3 P:64 SP:FB CYC:21244
F059  20 A4 FA  JSR $FAA4                       A:7E X:FF Y:D3 P:64 SP:FB CYC:21246
FAA4  50 40     BVC $FAE6                       A:7E X:FF Y:D3 P:64 SP:F9 CYC:21252
FAA6  F0 3E     BEQ $FAE6                       A:7E X:FF Y:D3 P:64 SP:F9 CYC:21254
FAA8  30 3C     BMI $FAE6                       A:7E X:FF Y:D3 P:64 SP:F9 CYC:21256
FAAA  B0 3A     BCS $FAE6                       A:7E X:FF Y:D3 P:64 SP:F9 CYC:21258
FAAC  C9 7E     CMP #$7E                        A:7E X:FF Y:D3 P:64 SP:F9 CYC:21260
FAAE  D0 36     BNE $FAE6                       A:7E X:FF Y:D3 P:67 SP:F9 CYC:21262
FAB0  60        RTS                             A:7E X:FF Y:D3 P:67 SP:F9 CYC:21264
F05C  AD 47 06  LDA $0647 = 6E                  A:7E X:FF Y:D3 P:67 SP:FB CYC:21270
F05F  C9 6E     CMP #$6E                        A:6E X:FF Y:D3 P:65 SP:FB CYC:21274
F061  F0 02     BEQ $F065                       A:6E X:FF Y:D3 P:67 SP:FB CYC:21276
F065  60        RTS                             A:6E X:FF Y:D3 P:67 SP:FB CYC:21278
C644  20 66 F0  JSR $F066                       A:6E X:FF Y:D3 P:67 SP:FD CYC:21284
F066  A9 FF     LDA #$FF                        A:6E X:FF Y:D3 P:67 SP:FB CYC:21290
F068  85 01     STA $01 = FF                    A:FF X:FF Y:D3 P:E5 SP:FB CYC:21292
F06A  A0 D4     LDY #$D4                        A:FF X:FF Y:D3 P:E5 SP:FB CYC:21295
F06C  A2 02     LDX #$02                        A:FF X:FF Y:D4 P:E5 SP:FB CYC:21297
F06E  A9 47     LDA #$47                        A:FF X:02 Y:D4 P:65 SP:FB CYC:21299
F070  85 47     STA $47 = 6E                    A:47 X:02 Y:D4 P:65 SP:FB CYC:21301
F072  A9 06     LDA #$06                        A:47 X:02 Y:D4 P:65 SP:FB CYC:21304
F074  85 48     STA $48 = 06                    A:06 X:02 Y:D4 P:65 SP:FB CYC:21306
F076  A9 A5     LDA #$A5                        A:06 X:02 Y:D4 P:65 SP:FB CYC:21309
F078  8D 47 06  STA $0647 = 6E                  A:A5 X:02 Y:D4 P:E5 SP:FB CYC:21311
F07B  20 53 FB  JSR $FB53                       A:A5 X:02 Y:D4 P:E5 SP:FB CYC:21315
FB53  24 01     BIT $01 = FF                    A:A5 X:02 Y:D4 P:E5 SP:F9 CYC:21321
FB55  18        CLC                             A:A5 X:02 Y:D4 P:E5 SP:F9 CYC:21324
FB56  A9 B3     LDA #$B3                        A:A5 X:02 Y:D4 P:E4 SP:F9 CYC:21326
FB58  60        RTS                             A:B3 X:02 Y:D4 P:E4 SP:F9 CYC:21328
F07E  23 45    *RLA ($45,X) @ 47 = 0647 = A5    A:B3 X:02 Y:D4 P:E4 SP:FB CYC:21334
F080  EA        NOP                             A:02 X:02 Y:D4 P:65 SP:FB CYC:21342
F081  EA        NOP                             A:02 X:02 Y:D4 P:65 SP:FB CYC:21344
F082  EA        NOP                             A:02 X:02 Y:D4 P:65 SP:FB CYC:21346
F083  EA        NOP                             A:02 X:02 Y:D4 P:65 SP:FB CYC:21348
F084  20 59 FB  JSR $FB59                       A:02 X:02 Y:D4 P:65 SP:FB CYC:21350
FB59  50 1A     BVC $FB75                       A:02 X:02 Y:D4 P:65 SP:F9 CYC:21356
FB5B  90 18     BCC $FB75                       A:02 X:02 Y:D4 P:65 SP:F9 CYC:21358
FB5D  30 16     BMI $FB75                       A:02 X:02 Y:D4 P:65 SP:F9 CYC:21360
FB5F  C9 02     CMP #$02                        A:02 X:02 Y:D4 P:65 SP:F9 CYC:21362
FB61  D0 12     BNE $FB75                       A:02 X:02 Y:D4 P:67 SP:F9 CYC:21364
FB63  60        RTS                             A:02 X:02 Y:D4 P:67 SP:F9 CYC:21366
F087  AD 47 06  LDA $0647 = 4A                  A:02 X:02 Y:D4 P:67 SP:FB CYC:21372
F08A  C9 4A     CMP #$4A                        A:4A X:02 Y:D4 P:65 SP:FB CYC:21376
F08C  F0 02     BEQ $F090                       A:4A X:02 Y:D4 P:67 SP:FB CYC:21378
F090  C8        INY                             A:4A X:02 Y:D4 P:67 SP:FB CYC:21380
F091  A9 29     LDA #$29                        A:4A X:02 Y:D5 P:E5 SP:FB CYC:21382
F093  8D 47 06  STA $0647 = 4A                  A:29 X:02 Y:D5 P:65 SP:FB CYC:21384
F096  20 64 FB  JSR $FB64                       A:29 X:02 Y:D5 P:65 SP:FB CYC:21388
FB64  B8        CLV                             A:29 X:02 Y:D5 P:65 SP:F9 CYC:21394
FB65  18        CLC                             A:29 X:02 Y:D5 P:25 SP:F9 CYC:21396
FB66  A9 42     LDA #$42                        A:29 X:02 Y:D5 P:24 SP:F9 CYC:21398
FB68  60        RTS                             A:42 X:02 Y:D5 P:24 SP:F9 CYC:21400
F099  23 45    *RLA ($45,X) @ 47 = 0647 = 29    A:42 X:02 Y:D5 P:24 SP:FB CYC:21406
F09B  EA        NOP                             A:42 X:02 Y:D5 P:24 SP:FB CYC:21414
F09C  EA        NOP                             A:42 X:02 Y:D5 P:24 SP:FB CYC:21416
F09D  EA        NOP                             A:42 X:02 Y:D5 P:24 SP:FB CYC:21418
F09E  EA        NOP                             A:42 X:02 Y:D5 P:24 SP:FB CYC:21420
F09F  20 69 FB  JSR $FB69                       A:42 X:02 Y:D5 P:24 SP:FB CYC:21422
FB69  70 0A     BVS $FB75                       A:42 X:02 Y:D5 P:24 SP:F9 CYC:21428
FB6B  F0 08     BEQ $FB75                       A:42 X:02 Y:D5 P:24 SP:F9 CYC:21430
FB6D  30 06     BMI $FB75                       A:42 X:02 Y:D5 P:24 SP:F9 CYC:21432
FB6F  B0 04     BCS $FB75                       A:42 X:02 Y:D5 P:24 SP:F9 CYC:21434
FB71  C9 42     CMP #$42                        A:42 X:02 Y:D5 P:24 SP:F9 CYC:21436
FB73  F0 02     BEQ $FB77                       A:42 X:02 Y:D5 P:27 SP:F9 CYC:21438
FB77  60        RTS                             A:42 X:02 Y:D5 P:27 SP:F9 CYC:21440
F0A2  AD 47 06  LDA $0647 = 52                  A:42 X:02 Y:D5 P:27 SP:FB CYC:21446
F0A5  C9 52     CMP #$52                        A:52 X:02 Y:D5 P:25 SP:FB CYC:21450
F0A7  F0 02     BEQ $F0AB                       A:52 X:02 Y:D5 P:27 SP:FB CYC:21452
F0AB  C8        INY                             A:52 X:02 Y:D5 P:27 SP:FB CYC:21454
F0AC  A9 37     LDA #$37                        A:52 X:02 Y:D6 P:A5 SP:FB CYC:21456
F0AE  8D 47 06  STA $0647 = 52                  A:37 X:02 Y:D6 P:25 SP:FB CYC:21458
F0B1  20 68 FA  JSR $FA68                       A:37 X:02 Y:D6 P:25 SP:FB CYC:21462
FA68  24 01     BIT $01 = FF                    A:37 X:02 Y:D6 P:25 SP:F9 CYC:21468
FA6A  38        SEC                             A:37 X:02 Y:D6 P:E5 SP:F9 CYC:21471
FA6B  A9 75     LDA #$75                        A:37 X:02 Y:D6 P:E5 SP:F9 CYC:21473
FA6D  60        RTS                             A:75 X:02 Y:D6 P:65 SP:F9 CYC:21475
F0B4  23 45    *RLA ($45,X) @ 47 = 0647 = 37    A:75 X:02 Y:D6 P:65 SP:FB CYC:21481
F0B6  EA        NOP                             A:65 X:02 Y:D6 P:64 SP:FB CYC:21489
F0B7  EA        NOP                             A:65 X:02 Y:D6 P:64 SP:FB CYC:21491
F0B8  EA        NOP                             A:65 X:02 Y:D6 P:64 SP:FB CYC:21493
F0B9  EA        NOP                             A:65 X:02 Y:D6 P:64 SP:FB CYC:21495
F0BA  20 6E FA  JSR $FA6E                       A:65 X:02 Y:D6 P:64 SP:FB CYC:21497
FA6E  50 76     BVC $FAE6                       A:65 X:02 Y:D6 P:64 SP:F9 CYC:21503
FA70  F0 74     BEQ $FAE6                       A:65 X:02 Y:D6 P:64 SP:F9 CYC:21505
FA72  30 72     BMI $FAE6                       A:65 X:02 Y:D6 P:64 SP:F9 CYC:21507
FA74  B0 70     BCS $FAE6                       A:65 X:02 Y:D6 P:64 SP:F9 CYC:21509
FA76  C9 65     CMP #$65                        A:65 X:02 Y:D6 P:64 SP:F9 CYC:21511
FA78  D0 6C     BNE $FAE6                       A:65 X:02 Y:D6 P:67 SP:F9 CYC:21513
FA7A  60        RTS                             A:65 X:02 Y:D6 P:67 SP:F9 CYC:21515
F0BD  AD 47 06  LDA $0647 = 6F                  A:65 X:02 Y:D6 P:67 SP:FB CYC:21521
F0C0  C9 6F     CMP #$6F                        A:6F X:02 Y:D6 P:65 SP:FB CYC:21525
F0C2  F0 02     BEQ $F0C6                       A:6F X:02 Y:D6 P:67 SP:FB CYC:21527
F0C6  C8        INY                             A:6F X:02 Y:D6 P:67 SP:FB CYC:21529
F0C7  A9 A5     LDA #$A5                        A:6F X:02 Y:D7 P:E5 SP:FB CYC:21531
F0C9  85 47     STA $47 = 47                    A:A5 X:02 Y:D7 P:E5 SP:FB CYC:21533
F0CB  20 53 FB  JSR $FB53                       A:A5 X:02 Y:D7 P:E5 SP:FB CYC:21536
FB53  24 01     BIT $01 = FF                    A:A5 X:02 Y:D7 P:E5 SP:F9 CYC:21542
FB55  18        CLC                             A:A5 X:02 Y:D7 P:E5 SP:F9 CYC:21545
FB56  A9 B3     LDA #$B3                        A:A5 X:02 Y:D7 P:E4 SP:F9 CYC:21547
FB58  60        RTS                             A:B3 X:02 Y:D7 P:E4 SP:F9 CYC:21549
F0CE  27 47    *RLA $47 = A5                    A:B3 X:02 Y:D7 P:E4 SP:FB CYC:21555
F0D0  EA        NOP                             A:02 X:02 Y:D7 P:65 SP:FB CYC:21560
F0D1  EA        NOP                             A:02 X:02 Y:D7 P:65 SP:FB CYC:21562
F0D2  EA        NOP                             A:02 X:02 Y:D7 P:65 SP:FB CYC:21564
F0D3  EA        NOP                             A:02 X:02 Y:D7 P:65 SP:FB CYC:21566
F0D4  20 59 FB  JSR $FB59                       A:02 X:02 Y:D7 P:65 SP:FB CYC:21568
FB59  50 1A     BVC $FB75                       A:02 X:02 Y:D7 P:65 SP:F9 CYC:21574
FB5B  90 18     BCC $FB75                       A:02 X:02 Y:D7 P:65 SP:F9 CYC:21576
FB5D  30 16     BMI $FB75                       A:02 X:02 Y:D7 P:65 SP:F9 CYC:21578
FB5F  C9 02     CMP #$02                        A:02 X:02 Y:D7 P:65 SP:F9 CYC:21580
FB61  D0 12     BNE $FB75                       A:02 X:02 Y:D7 P:67 SP:F9 CYC:21582
FB63  60        RTS                             A:02 X:02 Y:D7 P:67 SP:F9 CYC:21584
F0D7  A5 47     LDA $47 = 4A                    A:02 X:02 Y:D7 P:67 SP:FB CYC:21590
F0D9  C9 4A     CMP #$4A                        A:4A X:02 Y:D7 P:65 SP:FB CYC:21593
F0DB  F0 02     BEQ $F0DF                       A:4A X:02 Y:D7 P:67 SP:FB CYC:21595
F0DF  C8        INY                             A:4A X:02 Y:D7 P:67 SP:FB CYC:21597
F0E0  A9 29     LDA #$29                        A:4A X:02 Y:D8 P:E5 SP:FB CYC:21599
F0E2  85 47     STA $47 = 4A                    A:29 X:02 Y:D8 P:65 SP:FB CYC:21601
F0E4  20 64 FB  JSR $FB64                       A:29 X:02 Y:D8 P:65 SP:FB CYC:21604
FB64  B8        CLV                             A:29 X:02 Y:D8 P:65 SP:F9 CYC:21610
FB65  18        CLC                             A:29 X:02 Y:D8 P:25 SP:F9 CYC:21612
FB66  A9 42     LDA #$42                        A:29 X:02 Y:D8 P:24 SP:F9 CYC:21614
FB68  60        RTS                             A:42 X:02 Y:D8 P:24 SP:F9 CYC:21616
F0E7  27 47    *RLA $47 = 29                    A:42 X:02 Y:D8 P:24 SP:FB CYC:21622
F0E9  EA        NOP                             A:42 X:02 Y:D8 P:24 SP:FB CYC:21627
F0EA  EA        NOP                             A:42 X:02 Y:D8 P:24 SP:FB CYC:21629
F0EB  EA        NOP                             A:42 X:02 Y:D8 P:24 SP:FB CYC:21631
F0EC  EA        NOP                             A:42 X:02 Y:D8 P:24 SP:FB CYC:21633
F0ED  20 69 FB  JSR $FB69                       A:42 X:02 Y:D8 P:24 SP:FB CYC:21635
FB69  70 0A     BVS $FB75                       A:42 X:02 Y:D8 P:24 SP:F9 CYC:21641
FB6B  F0 08     BEQ $FB75                       A:42 X:02 Y:D8 P:24 SP:F9 CYC:21643
FB6D  30 06     BMI $FB75                       A:42 X:02 Y:D8 P:24 SP:F9 CYC:21645
FB6F  B0 04     BCS $FB75                       A:42 X:02 Y:D8 P:24 SP:F9 CYC:21647
FB71  C9 42     CMP #$42                        A:42 X:02 Y:D8 P:24 SP:F9 CYC:21649
FB73  F0 02     BEQ $FB77                       A:42 X:02 Y:D8 P:27 SP:F9 CYC:21651
FB77  60        RTS                             A:42 X:02 Y:D8 P:27 SP:F9 CYC:21653
F0F0  A5 47     LDA $47 = 52                    A:42 X:02 Y:D8 P:27 SP:FB CYC:21659
F0F2  C9 52     CMP #$52                        A:52 X:02 Y:D8 P:25 SP:FB CYC:21662
F0F4  F0 02     BEQ $F0F8                       A:52 X:02 Y:D8 P:27 SP:FB CYC:21664
F0F8  C8        INY                             A:52 X:02 Y:D8 P:27 SP:FB CYC:21666
F0F9  A9 37     LDA #$37                        A:52 X:02 Y:D9 P:A5 SP:FB CYC:21668
F0FB  85 47     STA $47 = 52                    A:37 X:02 Y:D9 P:25 SP:FB CYC:21670
F0FD  20 68 FA  JSR $FA68                       A:37 X:02 Y:D9 P:25 SP:FB CYC:21673
FA68  24 01     BIT $01 = FF                    A:37 X:02 Y:D9 P:25 SP:F9 CYC:21679
FA6A  38        SEC                             A:37 X:02 Y:D9 P:E5 SP:F9 CYC:21682
FA6B  A9 75     LDA #$75                        A:37 X:02 Y:D9 P:E5 SP:F9 CYC:21684
FA6D  60        RTS                             A:75 X:02 Y:D9 P:65 SP:F9 CYC:21686
F100  27 47    *RLA $47 = 37                    A:75 X:02 Y:D9 P:65 SP:FB CYC:21692
F102  EA        NOP                             A:65 X:02 Y:D9 P:64 SP:FB CYC:21697
F103  EA        NOP                             A:65 X:02 Y:D9 P:64 SP:FB CYC:21699
F104  EA        NOP                             A:65 X:02 Y:D9 P:64 SP:FB CYC:21701
F105  EA        NOP                             A:65 X:02 Y:D9 P:64 SP:FB CYC:21703
F106  20 6E FA  JSR $FA6E                       A:65 X:02 Y:D9 P:64 SP:FB CYC:21705
FA6E  50 76     BVC $FAE6                       A:65 X:02 Y:D9 P:64 SP:F9 CYC:21711
FA70  F0 74     BEQ $FAE6                       A:65 X:02 Y:D9 P:64 SP:F9 CYC:21713
FA72  30 72     BMI $FAE6                       A:65 X:02 Y:D9 P:64 SP:F9 CYC:21715
FA74  B0 70     BCS $FAE6                       A:65 X:02 Y:D9 P:64 SP:F9 CYC:21717
FA76  C9 65     CMP #$65                        A:65 X:02 Y:D9 P:64 SP:F9 CYC:21719
FA78  D0 6C     BNE $FAE6                       A:65 X:02 Y:D9 P:67 SP:F9 CYC:21721
FA7A  60        RTS                             A:65 X:02 Y:D9 P:67 SP:F9 CYC:21723
F109  A5 47     LDA $47 = 6F                    A:65 X:02 Y:D9 P:67 SP:FB CYC:21729
F10B  C9 6F     CMP #$6F                        A:6F X:02 Y:D9 P:65 SP:FB CYC:21732
F10D  F0 02     BEQ $F111                       A:6F X:02 Y:D9 P:67 SP:FB CYC:21734
F111  C8        INY                             A:6F X:02 Y:D9 P:67 SP:FB CYC:21736
F112  A9 A5     LDA #$A5                        A:6F X:02 Y:DA P:E5 SP:FB CYC:21738
F114  8D 47 06  STA $0647 = 6F                  A:A5 X:02 Y:DA P:E5 SP:FB CYC:21740
F117  20 53 FB  JSR $FB53                       A:A5 X:02 Y:DA P:E5 SP:FB CYC:21744
FB53  24 01     BIT $01 = FF                    A:A5 X:02 Y:DA P:E5 SP:F9 CYC:21750
FB55  18        CLC                             A:A5 X:02 Y:DA P:E5 SP:F9 CYC:21753
FB56  A9 B3     LDA #$B3                        A:A5 X:02 Y:DA P:E4 SP:F9 CYC:21755
FB58  60        RTS                             A:B3 X:02 Y:DA P:E4 SP:F9 CYC:21757
F11A  2F 47 06 *RLA $0647 = A5                  A:B3 X:02 Y:DA P:E4 SP:FB CYC:21763
F11D  EA        NOP                             A:02 X:02 Y:DA P:65 SP:FB CYC:21769
F11E  EA        NOP                             A:02 X:02 Y:DA P:65 SP:FB CYC:21771
F11F  EA        NOP                             A:02 X:02 Y:DA P:65 SP:FB CYC:21773
F120  EA        NOP                             A:02 X:02 Y:DA P:65 SP:FB CYC:21775
F121  20 59 FB  JSR $FB59                       A:02 X:02 Y:DA P:65 SP:FB CYC:21777
FB59  50 1A     BVC $FB75                       A:02 X:02 Y:DA P:65 SP:F9 CYC:21783
FB5B  90 18     BCC $FB75                       A:02 X:02 Y:DA P:65 SP:F9 CYC:21785
FB5D  30 16     BMI $FB75                       A:02 X:02 Y:DA P:65 SP:F9 CYC:21787
FB5F  C9 02     CMP #$02                        A:02 X:02 Y:DA P:65 SP:F9 CYC:21789
FB61  D0 12     BNE $FB75                       A:02 X:02 Y:DA P:67 SP:F9 CYC:21791
FB63  60        RTS                             A:02 X:02 Y:DA P:67 SP:F9 CYC:21793
F124  AD 47 06  LDA $0647 = 4A                  A:02 X:02 Y:DA P:67 SP:FB CYC:21799
F127  C9 4A     CMP #$4A                        A:4A X:02 Y:DA P:65 SP:FB CYC:21803
F129  F0 02     BEQ $F12D                       A:4A X:02 Y:DA P:67 SP:FB CYC:21805
F12D  C8        INY                             A:4A X:02 Y:DA P:67 SP:FB CYC:21807
F12E  A9 29     LDA #$29                        A:4A X:02 Y:DB P:E5 SP:FB CYC:21809
F130  8D 47 06  STA $0647 = 4A                  A:29 X:02 Y:DB P:65 SP:FB CYC:21811
F133  20 64 FB  JSR $FB64                       A:29 X:02 Y:DB P:65 SP:FB CYC:21815
FB64  B8        CLV                             A:29 X:02 Y:DB P:65 SP:F9 CYC:21821
FB65  18        CLC                             A:29 X:02 Y:DB P:25 SP:F9 CYC:21823
FB66  A9 42     LDA #$42                        A:29 X:02 Y:DB P:24 SP:F9 CYC:21825
FB68  60        RTS                             A:42 X:02 Y:DB P:24 SP:F9 CYC:21827
F136  2F 47 06 *RLA $0647 = 29                  A:42 X:02 Y:DB P:24 SP:FB CYC:21833
F139  EA        NOP                             A:42 X:02 Y:DB P:24 SP:FB CYC:21839
F13A  EA        NOP                             A:42 X:02 Y:DB P:24 SP:FB CYC:21841
F13B  EA        NOP                             A:42 X:02 Y:DB P:24 SP:FB CYC:21843
F13C  EA        NOP                             A:42 X:02 Y:DB P:24 SP:FB CYC:21845
F13D  20 69 FB  JSR $FB69                       A:42 X:02 Y:DB P:24 SP:FB CYC:21847
FB69  70 0A     BVS $FB75                       A:42 X:02 Y:DB P:24 SP:F9 CYC:21853
FB6B  F0 08     BEQ $FB75                       A:42 X:02 Y:DB P:24 SP:F9 CYC:21855
FB6D  30 06     BMI $FB75                       A:42 X:02 Y:DB P:24 SP:F9 CYC:21857
FB6F  B0 04     BCS $FB75                       A:42 X:02 Y:DB P:24 SP:F9 CYC:21859
FB71  C9 42     CMP #$42                        A:42 X:02 Y:DB P:24 SP:F9 CYC:21861
FB73  F0 02     BEQ $FB77                       A:42 X:02 Y:DB P:27 SP:F9 CYC:21863
FB77  60        RTS                             A:42 X:02 Y:DB P:27 SP:F9 CYC:21865
F140  AD 47 06  LDA $0647 = 52                  A:42 X:02 Y:DB P:27 SP:FB CYC:21871
F143  C9 52     CMP #$52                        A:52 X:02 Y:DB P:25 SP:FB CYC:21875
F145  F0 02     BEQ $F149                       A:52 X:02 Y:DB P:27 SP:FB CYC:21877
F149  C8        INY                             A:52 X:02 Y:DB P:27 SP:FB CYC:21879
F14A  A9 37     LDA #$37                        A:52 X:02 Y:DC P:A5 SP:FB CYC:21881
F14C  8D 47 06  STA $0647 = 52                  A:37 X:02 Y:DC P:25 SP:FB CYC:21883
F14F  20 68 FA  JSR $FA68                       A:37 X:02 Y:DC P:25 SP:FB CYC:21887
FA68  24 01     BIT $01 = FF                    A:37 X:02 Y:DC P:25 SP:F9 CYC:21893
FA6A  38        SEC                             A:37 X:02 Y:DC P:E5 SP:F9 CYC:21896
FA6B  A9 75     LDA #$75                        A:37 X:02 Y:DC P:E5 SP:F9 CYC:21898
FA6D  60        RTS                             A:75 X:02 Y:DC P:65 SP:F9 CYC:21900
F152  2F 47 06 *RLA $0647 = 37                  A:75 X:02 Y:DC P:65 SP:FB CYC:21906
F155  EA        NOP                             A:65 X:02 Y:DC P:64 SP:FB CYC:21912
F156  EA        NOP                             A:65 X:02 Y:DC P:64 SP:FB CYC:21914
F157  EA        NOP                             A:65 X:02 Y:DC P:64 SP:FB CYC:21916
F158  EA        NOP                             A:65 X:02 Y:DC P:64 SP:FB CYC:21918
F159  20 6E FA  JSR $FA6E                       A:65 X:02 Y:DC P:64 SP:FB CYC:21920
FA6E  50 76     BVC $FAE6                       A:65 X:02 Y:DC P:64 SP:F9 CYC:21926
FA70  F0 74     BEQ $FAE6                       A:65 X:02 Y:DC P:64 SP:F9 CYC:21928
FA72  30 72     BMI $FAE6                       A:65 X:02 Y:DC P:64 SP:F9 CYC:21930
FA74  B0 70     BCS $FAE6                       A:65 X:02 Y:DC P:64 SP:F9 CYC:21932
FA76  C9 65     CMP #$65                        A:65 X:02 Y:DC P:64 SP:F9 CYC:21934
FA78  D0 6C     BNE $FAE6                       A:65 X:02 Y:DC P:67 SP:F9 CYC:21936
FA7A  60        RTS                             A:65 X:02 Y:DC P:67 SP:F9 CYC:21938
F15C  AD 47 06  LDA $0647 = 6F                  A:65 X:02 Y:DC P:67 SP:FB CYC:21944
F15F  C9 6F     CMP #$6F                        A:6F X:02 Y:DC P:65 SP:FB CYC:21948
F161  F0 02     BEQ $F165                       A:6F X:02 Y:DC P:67 SP:FB CYC:21950
F165  A9 A5     LDA #$A5                        A:6F X:02 Y:DC P:67 SP:FB CYC:21952
F167  8D 47 06  STA $0647 = 6F                  A:A5 X:02 Y:DC P:E5 SP:FB CYC:21954
F16A  A9 48     LDA #$48                        A:A5 X:02 Y:DC P:E5 SP:FB CYC:21958
F16C  85 45     STA $45 = 48                    A:48 X:02 Y:DC P:65 SP:FB CYC:21960
F16E  A9 05     LDA #$05                        A:48 X:02 Y:DC P:65 SP:FB CYC:21963
F170  85 46     STA $46 = 05                    A:05 X:02 Y:DC P:65 SP:FB CYC:21965
F172  A0 FF     LDY #$FF                        A:05 X:02 Y:DC P:65 SP:FB CYC:21968
F174  20 53 FB  JSR $FB53                       A:05 X:02 Y:FF P:E5 SP:FB CYC:21970
FB53  24 01     BIT $01 = FF                    A:05 X:02 Y:FF P:E5 SP:F9 CYC:21976
FB55  18        CLC                             A:05 X:02 Y:FF P:E5 SP:F9 CYC:21979
FB56  A9 B3     LDA #$B3                        A:05 X:02 Y:FF P:E4 SP:F9 CYC:21981
FB58  60        RTS                             A:B3 X:02 Y:FF P:E4 SP:F9 CYC:21983
F177  33 45    *RLA ($45),Y = 0548 @ 0647 = A5  A:B3 X:02 Y:FF P:E4 SP:FB CYC:21989
F179  EA        NOP                             A:02 X:02 Y:FF P:65 SP:FB CYC:21997
F17A  EA        NOP                             A:02 X:02 Y:FF P:65 SP:FB CYC:21999
F17B  08        PHP                             A:02 X:02 Y:FF P:65 SP:FB CYC:22001
F17C  48        PHA                             A:02 X:02 Y:FF P:65 SP:FA CYC:22004
F17D  A0 DD     LDY #$DD                        A:02 X:02 Y:FF P:65 SP:F9 CYC:22007
F17F  68        PLA                             A:02 X:02 Y:DD P:E5 SP:F9 CYC:22009
F180  28        PLP                             A:02 X:02 Y:DD P:65 SP:FA CYC:22013
F181  20 59 FB  JSR $FB59                       A:02 X:02 Y:DD P:65 SP:FB CYC:22017
FB59  50 1A     BVC $FB75                       A:02 X:02 Y:DD P:65 SP:F9 CYC:22023
FB5B  90 18     BCC $FB75                       A:02 X:02 Y:DD P:65 SP:F9 CYC:22025
FB5D  30 16     BMI $FB75                       A:02 X:02 Y:DD P:65 SP:F9 CYC:22027
FB5F  C9 02     CMP #$02                        A:02 X:02 Y:DD P:65 SP:F9 CYC:22029
FB61  D0 12     BNE $FB75                       A:02 X:02 Y:DD P:67 SP:F9 CYC:22031
FB63  60        RTS                             A:02 X:02 Y:DD P:67 SP:F9 CYC:22033
F184  AD 47 06  LDA $0647 = 4A                  A:02 X:02 Y:DD P:67 SP:FB CYC:22039
F187  C9 4A     CMP #$4A                        A:4A X:02 Y:DD P:65 SP:FB CYC:22043
F189  F0 02     BEQ $F18D                       A:4A X:02 Y:DD P:67 SP:FB CYC:22045
F18D  A0 FF     LDY #$FF                        A:4A X:02 Y:DD P:67 SP:FB CYC:22047
F18F  A9 29     LDA #$29                        A:4A X:02 Y:FF P:E5 SP:FB CYC:22049
F191  8D 47 06  STA $0647 = 4A                  A:29 X:02 Y:FF P:65 SP:FB CYC:22051
F194  20 64 FB  JSR $FB64                       A:29 X:02 Y:FF P:65 SP:FB CYC:22055
FB64  B8        CLV                             A:29 X:02 Y:FF P:65 SP:F9 CYC:22061
FB65  18        CLC                             A:29 X:02 Y:FF P:25 SP:F9 CYC:22063
FB66  A9 42     LDA #$42                        A:29 X:02 Y:FF P:24 SP:F9 CYC:22065
FB68  60        RTS                             A:42 X:02 Y:FF P:24 SP:F9 CYC:22067
F197  33 45    *RLA ($45),Y = 0548 @ 0647 = 29  A:42 X:02 Y:FF P:24 SP:FB CYC:22073
F199  EA        NOP                             A:42 X:02 Y:FF P:24 SP:FB CYC:22081
F19A  EA        NOP                             A:42 X:02 Y:FF P:24 SP:FB CYC:22083
F19B  08        PHP                             A:42 X:02 Y:FF P:24 SP:FB CYC:22085
F19C  48        PHA                             A:42 X:02 Y:FF P:24 SP:FA CYC:22088
F19D  A0 DE     LDY #$DE                        A:42 X:02 Y:FF P:24 SP:F9 CYC:22091
F19F  68        PLA                             A:42 X:02 Y:DE P:A4 SP:F9 CYC:22093
F1A0  28        PLP                             A:42 X:02 Y:DE P:24 SP:FA CYC:22097
F1A1  20 69 FB  JSR $FB69                       A:42 X:02 Y:DE P:24 SP:FB CYC:22101
FB69  70 0A     BVS $FB75                       A:42 X:02 Y:DE P:24 SP:F9 CYC:22107
FB6B  F0 08     BEQ $FB75                       A:42 X:02 Y:DE P:24 SP:F9 CYC:22109
FB6D  30 06     BMI $FB75                       A:42 X:02 Y:DE P:24 SP:F9 CYC:22111
FB6F  B0 04     BCS $FB75                       A:42 X:02 Y:DE P:24 SP:F9 CYC:22113
FB71  C9 42     CMP #$42                        A:42 X:02 Y:DE P:24 SP:F9 CYC:22115
FB73  F0 02     BEQ $FB77                       A:42 X:02 Y:DE P:27 SP:F9 CYC:22117
FB77  60        RTS                             A:42 X:02 Y:DE P:27 SP:F9 CYC:22119
F1A4  AD 47 06  LDA $0647 = 52                  A:42 X:02 Y:DE P:27 SP:FB CYC:22125
F1A7  C9 52     CMP #$52                        A:52 X:02 Y:DE P:25 SP:FB CYC:22129
F1A9  F0 02     BEQ $F1AD                       A:52 X:02 Y:DE P:27 SP:FB CYC:22131
F1AD  A0 FF     LDY #$FF                        A:52 X:02 Y:DE P:27 SP:FB CYC:22133
F1AF  A9 37     LDA #$37                        A:52 X:02 Y:FF P:A5 SP:FB CYC:22135
F1B1  8D 47 06  STA $0647 = 52                  A:37 X:02 Y:FF P:25 SP:FB CYC:22137
F1B4  20 68 FA  JSR $FA68                       A:37 X:02 Y:FF P:25 SP:FB CYC:22141
FA68  24 01     BIT $01 = FF                    A:37 X:02 Y:FF P:25 SP:F9 CYC:22147
FA6A  38        SEC                             A:37 X:02 Y:FF P:E5 SP:F9 CYC:22150
FA6B  A9 75     LDA #$75                        A:37 X:02 Y:FF P:E5 SP:F9 CYC:22152
FA6D  60        RTS                             A:75 X:02 Y:FF P:65 SP:F9 CYC:22154
F1B7  33 45    *RLA ($45),Y = 0548 @ 0647 = 37  A:75 X:02 Y:FF P:65 SP:FB CYC:22160
F1B9  EA        NOP                             A:65 X:02 Y:FF P:64 SP:FB CYC:22168
F1BA  EA        NOP                             A:65 X:02 Y:FF P:64 SP:FB CYC:22170
F1BB  08        PHP                             A:65 X:02 Y:FF P:64 SP:FB CYC:22172
F1BC  48        PHA                             A:65 X:02 Y:FF P:64 SP:FA CYC:22175
F1BD  A0 DF     LDY #$DF                        A:65 X:02 Y:FF P:64 SP:F9 CYC:22178
F1BF  68        PLA                             A:65 X:02 Y:DF P:E4 SP:F9 CYC:22180
F1C0  28        PLP                             A:65 X:02 Y:DF P:64 SP:FA CYC:22184
F1C1  20 6E FA  JSR $FA6E                       A:65 X:02 Y:DF P:64 SP:FB CYC:22188
FA6E  50 76     BVC $FAE6                       A:65 X:02 Y:DF P:64 SP:F9 CYC:22194
FA70  F0 74     BEQ $FAE6                       A:65 X:02 Y:DF P:64 SP:F9 CYC:22196
FA72  30 72     BMI $FAE6                       A:65 X:02 Y:DF P:64 SP:F9 CYC:22198
FA74  B0 70     BCS $FAE6                       A:65 X:02 Y:DF P:64 SP:F9 CYC:22200
FA76  C9 65     CMP #$65                        A:65 X:02 Y:DF P:64 SP:F9 CYC:22202
FA78  D0 6C     BNE $FAE6                       A:65 X:02 Y:DF P:67 SP:F9 CYC:22204
FA7A  60        RTS                             A:65 X:02 Y:DF P:67 SP:F9 CYC:22206
F1C4  AD 47 06  LDA $0647 = 6F                  A:65 X:02 Y:DF P:67 SP:FB CYC:22212
F1C7  C9 6F     CMP #$6F                        A:6F X:02 Y:DF P:65 SP:FB CYC:22216
F1C9  F0 02     BEQ $F1CD                       A:6F X:02 Y:DF P:67 SP:FB CYC:22218
F1CD  A0 E0     LDY #$E0                        A:6F X:02 Y:DF P:67 SP:FB CYC:22220
F1CF  A2 FF     LDX #$FF                        A:6F X:02 Y:E0 P:E5 SP:FB CYC:22222
F1D1  A9 A5     LDA #$A5                        A:6F X:FF Y:E0 P:E5 SP:FB CYC:22224
F1D3  85 47     STA $47 = 6F                    A:A5 X:FF Y:E0 P:E5 SP:FB CYC:22226
F1D5  20 53 FB  JSR $FB53                       A:A5 X:FF Y:E0 P:E5 SP:FB CYC:22229
FB53  24 01     BIT $01 = FF                    A:A5 X:FF Y:E0 P:E5 SP:F9 CYC:22235
FB55  18        CLC                             A:A5 X:FF Y:E0 P:E5 SP:F9 CYC:22238
FB56  A9 B3     LDA #$B3                        A:A5 X:FF Y:E0 P:E4 SP:F9 CYC:22240
FB58  60        RTS                             A:B3 X:FF Y:E0 P:E4 SP:F9 CYC:22242
F1D8  37 48    *RLA $48,X @ 47 = A5             A:B3 X:FF Y:E0 P:E4 SP:FB CYC:22248
F1DA  EA        NOP                             A:02 X:FF Y:E0 P:65 SP:FB CYC:22254
F1DB  EA        NOP                             A:02 X:FF Y:E0 P:65 SP:FB CYC:22256
F1DC  EA        NOP                             A:02 X:FF Y:E0 P:65 SP:FB CYC:22258
F1DD  EA        NOP                             A:02 X:FF Y:E0 P:65 SP:FB CYC:22260
F1DE  20 59 FB  JSR $FB59                       A:02 X:FF Y:E0 P:65 SP:FB CYC:22262
FB59  50 1A     BVC $FB75                       A:02 X:FF Y:E0 P:65 SP:F9 CYC:22268
FB5B  90 18     BCC $FB75                       A:02 X:FF Y:E0 P:65 SP:F9 CYC:22270
FB5D  30 16     BMI $FB75                       A:02 X:FF Y:E0 P:65 SP:F9 CYC:22272
FB5F  C9 02     CMP #$02                        A:02 X:FF Y:E0 P:65 SP:F9 CYC:22274
FB61  D0 12     BNE $FB75                       A:02 X:FF Y:E0 P:67 SP:F9 CYC:22276
FB63  60        RTS                             A:02 X:FF Y:E0 P:67 SP:F9 CYC:22278
F1E1  A5 47     LDA $47 = 4A                    A:02 X:FF Y:E0 P:67 SP:FB CYC:22284
F1E3  C9 4A     CMP #$4A                        A:4A X:FF Y:E0 P:65 SP:FB CYC:22287
F1E5  F0 02     BEQ $F1E9                       A:4A X:FF Y:E0 P:67 SP:FB CYC:22289
F1E9  C8        INY                             A:4A X:FF Y:E0 P:67 SP:FB CYC:22291
F1EA  A9 29     LDA #$29                        A:4A X:FF Y:E1 P:E5 SP:FB CYC:22293
F1EC  85 47     STA $47 = 4A                    A:29 X:FF Y:E1 P:65 SP:FB CYC:22295
F1EE  20 64 FB  JSR $FB64                       A:29 X:FF Y:E1 P:65 SP:FB CYC:22298
FB64  B8        CLV                             A:29 X:FF Y:E1 P:65 SP:F9 CYC:22304
FB65  18        CLC                             A:29 X:FF Y:E1 P:25 SP:F9 CYC:22306
FB66  A9 42     LDA #$42                        A:29 X:FF Y:E1 P:24 SP:F9 CYC:22308
FB68  60        RTS                             A:42 X:FF Y:E1 P:24 SP:F9 CYC:22310
F1F1  37 48    *RLA $48,X @ 47 = 29             A:42 X:FF Y:E1 P:24 SP:FB CYC:22316
F1F3  EA        NOP                             A:42 X:FF Y:E1 P:24 SP:FB CYC:22322
F1F4  EA        NOP                             A:42 X:FF Y:E1 P:24 SP:FB CYC:22324
F1F5  EA        NOP                             A:42 X:FF Y:E1 P:24 SP:FB CYC:22326
F1F6  EA        NOP                             A:42 X:FF Y:E1 P:24 SP:FB CYC:22328
F1F7  20 69 FB  JSR $FB69                       A:42 X:FF Y:E1 P:24 SP:FB CYC:22330
FB69  70 0A     BVS $FB75                       A:42 X:FF Y:E1 P:24 SP:F9 CYC:22336
FB6B  F0 08     BEQ $FB75                       A:42 X:FF Y:E1 P:24 SP:F9 CYC:22338
FB6D  30 06     BMI $FB75                       A:42 X:FF Y:E1 P:24 SP:F9 CYC:22340
FB6F  B0 04     BCS $FB75                       A:42 X:FF Y:E1 P:24 SP:F9 CYC:22342
FB71  C9 42     CMP #$42                        A:42 X:FF Y:E1 P:24 SP:F9 CYC:22344
FB73  F0 02     BEQ $FB77                       A:42 X:FF Y:E1 P:27 SP:F9 CYC:22346
FB77  60        RTS                             A:42 X:FF Y:E1 P:27 SP:F9 CYC:22348
F1FA  A5 47     LDA $47 = 52                    A:42 X:FF Y:E1 P:27 SP:FB CYC:22354
F1FC  C9 52     CMP #$52                        A:52 X:FF Y:E1 P:25 SP:FB CYC:22357
F1FE  F0 02     BEQ $F202                       A:52 X:FF Y:E1 P:27 SP:FB CYC:22359
F202  C8        INY                             A:52 X:FF Y:E1 P:27 SP:FB CYC:22361
F203  A9 37     LDA #$37                        A:52 X:FF Y:E2 P:A5 SP:FB CYC:22363
F205  85 47     STA $47 = 52                    A:37 X:FF Y:E2 P:25 SP:FB CYC:22365
F207  20 68 FA  JSR $FA68                       A:37 X:FF Y:E2 P:25 SP:FB CYC:22368
FA68  24 01     BIT $01 = FF                    A:37 X:FF Y:E2 P:25 SP:F9 CYC:22374
FA6A  38        SEC                             A:37 X:FF Y:E2 P:E5 SP:F9 CYC:22377
FA6B  A9 75     LDA #$75                        A:37 X:FF Y:E2 P:E5 SP:F9 CYC:22379
FA6D  60        RTS                             A:75 X:FF Y:E2 P:65 SP:F9 CYC:22381
F20A  37 48    *RLA $48,X @ 47 = 37             A:75 X:FF Y:E2 P:65 SP:FB CYC:22387
F20C  EA        NOP                             A:65 X:FF Y:E2 P:64 SP:FB CYC:22393
F20D  EA        NOP                             A:65 X:FF Y:E2 P:64 SP:FB CYC:22395
F20E  EA        NOP                             A:65 X:FF Y:E2 P:64 SP:FB CYC:22397
F20F  EA        NOP                             A:65 X:FF Y:E2 P:64 SP:FB CYC:22399
F210  20 6E FA  JSR $FA6E                       A:65 X:FF Y:E2 P:64 SP:FB CYC:22401
FA6E  50 76     BVC $FAE6                       A:65 X:FF Y:E2 P:64 SP:F9 CYC:22407
FA70  F0 74     BEQ $FAE6                       A:65 X:FF Y:E2 P:64 SP:F9 CYC:22409
FA72  30 72     BMI $FAE6                       A:65 X:FF Y:E2 P:64 SP:F9 CYC:22411
FA74  B0 70     BCS $FAE6                       A:65 X:FF Y:E2 P:64 SP:F9 CYC:22413
FA76  C9 65     CMP #$65                        A:65 X:FF Y:E2 P:64 SP:F9 CYC:22415
FA78  D0 6C     BNE $FAE6                       A:65 X:FF Y:E2 P:67 SP:F9 CYC:22417
FA7A  60        RTS                             A:65 X:FF Y:E2 P:67 SP:F9 CYC:22419
F213  A5 47     LDA $47 = 6F                    A:65 X:FF Y:E2 P:67 SP:FB CYC:22425
F215  C9 6F     CMP #$6F                        A:6F X:FF Y:E2 P:65 SP:FB CYC:22428
F217  F0 02     BEQ $F21B                       A:6F X:FF Y:E2 P:67 SP:FB CYC:22430
F21B  A9 A5     LDA #$A5                        A:6F X:FF Y:E2 P:67 SP:FB CYC:22432
F21D  8D 47 06  STA $0647 = 6F                  A:A5 X:FF Y:E2 P:E5 SP:FB CYC:22434
F220  A0 FF     LDY #$FF                        A:A5 X:FF Y:E2 P:E5 SP:FB CYC:22438
F222  20 53 FB  JSR $FB53                       A:A5 X:FF Y:FF P:E5 SP:FB CYC:22440
FB53  24 01     BIT $01 = FF                    A:A5 X:FF Y:FF P:E5 SP:F9 CYC:22446
FB55  18        CLC                             A:A5 X:FF Y:FF P:E5 SP:F9 CYC:22449
FB56  A9 B3     LDA #$B3                        A:A5 X:FF Y:FF P:E4 SP:F9 CYC:22451
FB58  60        RTS                             A:B3 X:FF Y:FF P:E4 SP:F9 CYC:22453
F225  3B 48 05 *RLA $0548,Y @ 0647 = A5         A:B3 X:FF Y:FF P:E4 SP:FB CYC:22459
F228  EA        NOP                             A:02 X:FF Y:FF P:65 SP:FB CYC:22466
F229  EA        NOP                             A:02 X:FF Y:FF P:65 SP:FB CYC:22468
F22A  08        PHP                             A:02 X:FF Y:FF P:65 SP:FB CYC:22470
F22B  48        PHA                             A:02 X:FF Y:FF P:65 SP:FA CYC:22473
F22C  A0 E3     LDY #$E3                        A:02 X:FF Y:FF P:65 SP:F9 CYC:22476
F22E  68        PLA                             A:02 X:FF Y:E3 P:E5 SP:F9 CYC:22478
F22F  28        PLP                             A:02 X:FF Y:E3 P:65 SP:FA CYC:22482
F230  20 59 FB  JSR $FB59                       A:02 X:FF Y:E3 P:65 SP:FB CYC:22486
FB59  50 1A     BVC $FB75                       A:02 X:FF Y:E3 P:65 SP:F9 CYC:22492
FB5B  90 18     BCC $FB75                       A:02 X:FF Y:E3 P:65 SP:F9 CYC:22494
FB5D  30 16     BMI $FB75                       A:02 X:FF Y:E3 P:65 SP:F9 CYC:22496
FB5F  C9 02     CMP #$02                        A:02 X:FF Y:E3 P:65 SP:F9 CYC:22498
FB61  D0 12     BNE $FB75                       A:02 X:FF Y:E3 P:67 SP:F9 CYC:22500
FB63  60        RTS                             A:02 X:FF Y:E3 P:67 SP:F9 CYC:22502
F233  AD 47 06  LDA $0647 = 4A                  A:02 X:FF Y:E3 P:67 SP:FB CYC:22508
F236  C9 4A     CMP #$4A                        A:4A X:FF Y:E3 P:65 SP:FB CYC:22512
F238  F0 02     BEQ $F23C                       A:4A X:FF Y:E3 P:67 SP:FB CYC:22514
F23C  A0 FF     LDY #$FF                        A:4A X:FF Y:E3 P:67 SP:FB CYC:22516
F23E  A9 29     LDA #$29                        A:4A X:FF Y:FF P:E5 SP:FB CYC:22518
F240  8D 47 06  STA $0647 = 4A                  A:29 X:FF Y:FF P:65 SP:FB CYC:22520
F243  20 64 FB  JSR $FB64                       A:29 X:FF Y:FF P:65 SP:FB CYC:22524
FB64  B8        CLV                             A:29 X:FF Y:FF P:65 SP:F9 CYC:22530
FB65  18        CLC                             A:29 X:FF Y:FF P:25 SP:F9 CYC:22532
FB66  A9 42     LDA #$42                        A:29 X:FF Y:FF P:24 SP:F9 CYC:22534
FB68  60        RTS                             A:42 X:FF Y:FF P:24 SP:F9 CYC:22536
F246  3B 48 05 *RLA $0548,Y @ 0647 = 29         A:42 X:FF Y:FF P:24 SP:FB CYC:22542
F249  EA        NOP                             A:42 X:FF Y:FF P:24 SP:FB CYC:22549
F24A  EA        NOP                             A:42 X:FF Y:FF P:24 SP:FB CYC:22551
F24B  08        PHP                             A:42 X:FF Y:FF P:24 SP:FB CYC:22553
F24C  48        PHA                             A:42 X:FF Y:FF P:24 SP:FA CYC:22556
F24D  A0 E4     LDY #$E4                        A:42 X:FF Y:FF P:24 SP:F9 CYC:22559
F24F  68        PLA                             A:42 X:FF Y:E4 P:A4 SP:F9 CYC:22561
F250  28        PLP                             A:42 X:FF Y:E4 P:24 SP:FA CYC:22565
F251  20 69 FB  JSR $FB69                       A:42 X:FF Y:E4 P:24 SP:FB CYC:22569
FB69  70 0A     BVS $FB75                       A:42 X:FF Y:E4 P:24 SP:F9 CYC:22575
FB6B  F0 08     BEQ $FB75                       A:42 X:FF Y:E4 P:24 SP:F9 CYC:22577
FB6D  30 06     BMI $FB75                       A:42 X:FF Y:E4 P:24 SP:F9 CYC:22579
FB6F  B0 04     BCS $FB75                       A:42 X:FF Y:E4 P:24 SP:F9 CYC:22581
FB71  C9 42     CMP #$42                        A:42 X:FF Y:E4 P:24 SP:F9 CYC:22583
FB73  F0 02     BEQ $FB77                       A:42 X:FF Y:E4 P:27 SP:F9 CYC:22585
FB77  60        RTS                             A:42 X:FF Y:E4 P:27 SP:F9 CYC:22587
F254  AD 47 06  LDA $0647 = 52                  A:42 X:FF Y:E4 P:27 SP:FB CYC:22593
F257  C9 52     CMP #$52                        A:52 X:FF Y:E4 P:25 SP:FB CYC:22597
F259  F0 02     BEQ $F25D                       A:52 X:FF Y:E4 P:27 SP:FB CYC:22599
F25D  A0 FF     LDY #$FF                        A:52 X:FF Y:E4 P:27 SP:FB CYC:22601
F25F  A9 37     LDA #$37                        A:52 X:FF Y:FF P:A5 SP:FB CYC:22603
F261  8D 47 06  STA $0647 = 52                  A:37 X:FF Y:FF P:25 SP:FB CYC:22605
F264  20 68 FA  JSR $FA68                       A:37 X:FF Y:FF P:25 SP:FB CYC:22609
FA68  24 01     BIT $01 = FF                    A:37 X:FF Y:FF P:25 SP:F9 CYC:22615
FA6A  38        SEC                             A:37 X:FF Y:FF P:E5 SP:F9 CYC:22618
FA6B  A9 75     LDA #$75                        A:37 X:FF Y:FF P:E5 SP:F9 CYC:22620
FA6D  60        RTS                             A:75 X:FF Y:FF P:65 SP:F9 CYC:22622
F267  3B 48 05 *RLA $0548,Y @ 0647 = 37         A:75 X:FF Y:FF P:65 SP:FB CYC:22628
F26A  EA        NOP                             A:65 X:FF Y:FF P:64 SP:FB CYC:22635
F26B  EA        NOP                             A:65 X:FF Y:FF P:64 SP:FB CYC:22637
F26C  08        PHP                             A:65 X:FF Y:FF P:64 SP:FB CYC:22639
F26D  48        PHA                             A:65 X:FF Y:FF P:64 SP:FA CYC:22642
F26E  A0 E5     LDY #$E5                        A:65 X:FF Y:FF P:64 SP:F9 CYC:22645
F270  68        PLA                             A:65 X:FF Y:E5 P:E4 SP:F9 CYC:22647
F271  28        PLP                             A:65 X:FF Y:E5 P:64 SP:FA CYC:22651
F272  20 6E FA  JSR $FA6E                       A:65 X:FF Y:E5 P:64 SP:FB CYC:22655
FA6E  50 76     BVC $FAE6                       A:65 X:FF Y:E5 P:64 SP:F9 CYC:22661
FA70  F0 74     BEQ $FAE6                       A:65 X:FF Y:E5 P:64 SP:F9 CYC:22663
FA72  30 72     BMI $FAE6                       A:65 X:FF Y:E5 P:64 SP:F9 CYC:22665
FA74  B0 70     BCS $FAE6                       A:65 X:FF Y:E5 P:64 SP:F9 CYC:22667
FA76  C9 65     CMP #$65                        A:65 X:FF Y:E5 P:64 SP:F9 CYC:22669
FA78  D0 6C     BNE $FAE6                       A:65 X:FF Y:E5 P:67 SP:F9 CYC:22671
FA7A  60        RTS                             A:65 X:FF Y:E5 P:67 SP:F9 CYC:22673
F275  AD 47 06  LDA $0647 = 6F                  A:65 X:FF Y:E5 P:67 SP:FB CYC:22679
F278  C9 6F     CMP #$6F                        A:6F X:FF Y:E5 P:65 SP:FB CYC:22683
F27A  F0 02     BEQ $F27E                       A:6F X:FF Y:E5 P:67 SP:FB CYC:22685
F27E  A0 E6     LDY #$E6                        A:6F X:FF Y:E5 P:67 SP:FB CYC:22687
F280  A2 FF     LDX #$FF                        A:6F X:FF Y:E6 P:E5 SP:FB CYC:22689
F282  A9 A5     LDA #$A5                        A:6F X:FF Y:E6 P:E5 SP:FB CYC:22691
F284  8D 47 06  STA $0647 = 6F                  A:A5 X:FF Y:E6 P:E5 SP:FB CYC:22693
F287  20 53 FB  JSR $FB53                       A:A5 X:FF Y:E6 P:E5 SP:FB CYC:22697
FB53  24 01     BIT $01 = FF                    A:A5 X:FF Y:E6 P:E5 SP:F9 CYC:22703
FB55  18        CLC                             A:A5 X:FF Y:E6 P:E5 SP:F9 CYC:22706
FB56  A9 B3     LDA #$B3                        A:A5 X:FF Y:E6 P:E4 SP:F9 CYC:22708
FB58  60        RTS                             A:B3 X:FF Y:E6 P:E4 SP:F9 CYC:22710
F28A  3F 48 05 *RLA $0548,X @ 0647 = A5         A:B3 X:FF Y:E6 P:E4 SP:FB CYC:22716
F28D  EA        NOP                             A:02 X:FF Y:E6 P:65 SP:FB CYC:22723
F28E  EA        NOP                             A:02 X:FF Y:E6 P:65 SP:FB CYC:22725
F28F  EA        NOP                             A:02 X:FF Y:E6 P:65 SP:FB CYC:22727
F290  EA        NOP                             A:02 X:FF Y:E6 P:65 SP:FB CYC:22729
F291  20 59 FB  JSR $FB59                       A:02 X:FF Y:E6 P:65 SP:FB CYC:22731
FB59  50 1A     BVC $FB75                       A:02 X:FF Y:E6 P:65 SP:F9 CYC:22737
FB5B  90 18     BCC $FB75                       A:02 X:FF Y:E6 P:65 SP:F9 CYC:22739
FB5D  30 16     BMI $FB75                       A:02 X:FF Y:E6 P:65 SP:F9 CYC:22741
FB5F  C9 02     CMP #$02                        A:02 X:FF Y:E6 P:65 SP:F9 CYC:22743
FB61  D0 12     BNE $FB75                       A:02 X:FF Y:E6 P:67 SP:F9 CYC:22745
FB63  60        RTS                             A:02 X:FF Y:E6 P:67 SP:F9 CYC:22747
F294  AD 47 06  LDA $0647 = 4A                  A:02 X:FF Y:E6 P:67 SP:FB CYC:22753
F297  C9 4A     CMP #$4A                        A:4A X:FF Y:E6 P:65 SP:FB CYC:22757
F299  F0 02     BEQ $F29D                       A:4A X:FF Y:E6 P:67 SP:FB CYC:22759
F29D  C8        INY                             A:4A X:FF Y:E6 P:67 SP:FB CYC:22761
F29E  A9 29     LDA #$29                        A:4A X:FF Y:E7 P:E5 SP:FB CYC:22763
F2A0  8D 47 06  STA $0647 = 4A                  A:29 X:FF Y:E7 P:65 SP:FB CYC:22765
F2A3  20 64 FB  JSR $FB64                       A:29 X:FF Y:E7 P:65 SP:FB CYC:22769
FB64  B8        CLV                             A:29 X:FF Y:E7 P:65 SP:F9 CYC:22775
FB65  18        CLC                             A:29 X:FF Y:E7 P:25 SP:F9 CYC:22777
FB66  A9 42     LDA #$42                        A:29 X:FF Y:E7 P:24 SP:F9 CYC:22779
FB68  60        RTS                             A:42 X:FF Y:E7 P:24 SP:F9 CYC:22781
F2A6  3F 48 05 *RLA $0548,X @ 0647 = 29         A:42 X:FF Y:E7 P:24 SP:FB CYC:22787
F2A9  EA        NOP                             A:42 X:FF Y:E7 P:24 SP:FB CYC:22794
F2AA  EA        NOP                             A:42 X:FF Y:E7 P:24 SP:FB CYC:22796
F2AB  EA        NOP                             A:42 X:FF Y:E7 P:24 SP:FB CYC:22798
F2AC  EA        NOP                             A:42 X:FF Y:E7 P:24 SP:FB CYC:22800
F2AD  20 69 FB  JSR $FB69                       A:42 X:FF Y:E7 P:24 SP:FB CYC:22802
FB69  70 0A     BVS $FB75                       A:42 X:FF Y:E7 P:24 SP:F9 CYC:22808
FB6B  F0 08     BEQ $FB75                       A:42 X:FF Y:E7 P:24 SP:F9 CYC:22810
FB6D  30 06     BMI $FB75                       A:42 X:FF Y:E7 P:24 SP:F9 CYC:22812
FB6F  B0 04     BCS $FB75                       A:42 X:FF Y:E7 P:24 SP:F9 CYC:22814
FB71  C9 42     CMP #$42                        A:42 X:FF Y:E7 P:24 SP:F9 CYC:22816
FB73  F0 02     BEQ $FB77                       A:42 X:FF Y:E7 P:27 SP:F9 CYC:22818
FB77  60        RTS                             A:42 X:FF Y:E7 P:27 SP:F9 CYC:22820
F2B0  AD 47 06  LDA $0647 = 52                  A:42 X:FF Y:E7 P:27 SP:FB CYC:22826
F2B3  C9 52     CMP #$52                        A:52 X:FF Y:E7 P:25 SP:FB CYC:22830
F2B5  F0 02     BEQ $F2B9                       A:52 X:FF Y:E7 P:27 SP:FB CYC:22832
F2B9  C8        INY                             A:52 X:FF Y:E7 P:27 SP:FB CYC:22834
F2BA  A9 37     LDA #$37                        A:52 X:FF Y:E8 P:A5 SP:FB CYC:22836
F2BC  8D 47 06  STA $0647 = 52                  A:37 X:FF Y:E8 P:25 SP:FB CYC:22838
F2BF  20 68 FA  JSR $FA68                       A:37 X:FF Y:E8 P:25 SP:FB CYC:22842
FA68  24 01     BIT $01 = FF                    A:37 X:FF Y:E8 P:25 SP:F9 CYC:22848
FA6A  38        SEC                             A:37 X:FF Y:E8 P:E5 SP:F9 CYC:22851
FA6B  A9 75     LDA #$75                        A:37 X:FF Y:E8 P:E5 SP:F9 CYC:22853
FA6D  60        RTS                             A:75 X:FF Y:E8 P:65 SP:F9 CYC:22855
F2C2  3F 48 05 *RLA $0548,X @ 0647 = 37         A:75 X:FF Y:E8 P:65 SP:FB CYC:22861
F2C5  EA        NOP                             A:65 X:FF Y:E8 P:64 SP:FB CYC:22868
F2C6  EA        NOP                             A:65 X:FF Y:E8 P:64 SP:FB CYC:22870
F2C7  EA        NOP                             A:65 X:FF Y:E8 P:64 SP:FB CYC:22872
F2C8  EA        NOP                             A:65 X:FF Y:E8 P:64 SP:FB CYC:22874
F2C9  20 6E FA  JSR $FA6E                       A:65 X:FF Y:E8 P:64 SP:FB CYC:22876
FA6E  50 76     BVC $FAE6                       A:65 X:FF Y:E8 P:64 SP:F9 CYC:22882
FA70  F0 74     BEQ $FAE6                       A:65 X:FF Y:E8 P:64 SP:F9 CYC:22884
FA72  30 72     BMI $FAE6                       A:65 X:FF Y:E8 P:64 SP:F9 CYC:22886
FA74  B0 70     BCS $FAE6                       A:65 X:FF Y:E8 P:64 SP:F9 CYC:22888
FA76  C9 65     CMP #$65                        A:65 X:FF Y:E8 P:64 SP:F9 CYC:22890
FA78  D0 6C     BNE $FAE6                       A:65 X:FF Y:E8 P:67 SP:F9 CYC:22892
FA7A  60        RTS                             A:65 X:FF Y:E8 P:67 SP:F9 CYC:22894
F2CC  AD 47 06  LDA $0647 = 6F                  A:65 X:FF Y:E8 P:67 SP:FB CYC:22900
F2CF  C9 6F     CMP #$6F                        A:6F X:FF Y:E8 P:65 SP:FB CYC:22904
F2D1  F0 02     BEQ $F2D5                       A:6F X:FF Y:E8 P:67 SP:FB CYC:22906
F2D5  60        RTS                             A:6F X:FF Y:E8 P:67 SP:FB CYC:22908
C647  20 D6 F2  JSR $F2D6                       A:6F X:FF Y:E8 P:67 SP:FD CYC:22914
F2D6  A9 FF     LDA #$FF                        A:6F X:FF Y:E8 P:67 SP:FB CYC:22920
F2D8  85 01     STA $01 = FF                    A:FF X:FF Y:E8 P:E5 SP:FB CYC:22922
F2DA  A0 E9     LDY #$E9                        A:FF X:FF Y:E8 P:E5 SP:FB CYC:22925
F2DC  A2 02     LDX #$02                        A:FF X:FF Y:E9 P:E5 SP:FB CYC:22927
F2DE  A9 47     LDA #$47                        A:FF X:02 Y:E9 P:65 SP:FB CYC:22929
F2E0  85 47     STA $47 = 6F                    A:47 X:02 Y:E9 P:65 SP:FB CYC:22931
F2E2  A9 06     LDA #$06                        A:47 X:02 Y:E9 P:65 SP:FB CYC:22934
F2E4  85 48     STA $48 = 06                    A:06 X:02 Y:E9 P:65 SP:FB CYC:22936
F2E6  A9 A5     LDA #$A5                        A:06 X:02 Y:E9 P:65 SP:FB CYC:22939
F2E8  8D 47 06  STA $0647 = 6F                  A:A5 X:02 Y:E9 P:E5 SP:FB CYC:22941
F2EB  20 1D FB  JSR $FB1D                       A:A5 X:02 Y:E9 P:E5 SP:FB CYC:22945
FB1D  24 01     BIT $01 = FF                    A:A5 X:02 Y:E9 P:E5 SP:F9 CYC:22951
FB1F  18        CLC                             A:A5 X:02 Y:E9 P:E5 SP:F9 CYC:22954
FB20  A9 B3     LDA #$B3                        A:A5 X:02 Y:E9 P:E4 SP:F9 CYC:22956
FB22  60        RTS                             A:B3 X:02 Y:E9 P:E4 SP:F9 CYC:22958
F2EE  43 45    *SRE ($45,X) @ 47 = 0647 = A5    A:B3 X:02 Y:E9 P:E4 SP:FB CYC:22964
F2F0  EA        NOP                             A:E1 X:02 Y:E9 P:E5 SP:FB CYC:22972
F2F1  EA        NOP                             A:E1 X:02 Y:E9 P:E5 SP:FB CYC:22974
F2F2  EA        NOP                             A:E1 X:02 Y:E9 P:E5 SP:FB CYC:22976
F2F3  EA        NOP                             A:E1 X:02 Y:E9 P:E5 SP:FB CYC:22978
F2F4  20 23 FB  JSR $FB23                       A:E1 X:02 Y:E9 P:E5 SP:FB CYC:22980
FB23  50 50     BVC $FB75                       A:E1 X:02 Y:E9 P:E5 SP:F9 CYC:22986
FB25  90 4E     BCC $FB75                       A:E1 X:02 Y:E9 P:E5 SP:F9 CYC:22988
FB27  10 4C     BPL $FB75                       A:E1 X:02 Y:E9 P:E5 SP:F9 CYC:22990
FB29  C9 E1     CMP #$E1                        A:E1 X:02 Y:E9 P:E5 SP:F9 CYC:22992
FB2B  D0 48     BNE $FB75                       A:E1 X:02 Y:E9 P:67 SP:F9 CYC:22994
FB2D  60        RTS                             A:E1 X:02 Y:E9 P:67 SP:F9 CYC:22996
F2F7  AD 47 06  LDA $0647 = 52                  A:E1 X:02 Y:E9 P:67 SP:FB CYC:23002
F2FA  C9 52     CMP #$52                        A:52 X:02 Y:E9 P:65 SP:FB CYC:23006
F2FC  F0 02     BEQ $F300                       A:52 X:02 Y:E9 P:67 SP:FB CYC:23008
F300  C8        INY                             A:52 X:02 Y:E9 P:67 SP:FB CYC:23010
F301  A9 29     LDA #$29                        A:52 X:02 Y:EA P:E5 SP:FB CYC:23012
F303  8D 47 06  STA $0647 = 52                  A:29 X:02 Y:EA P:65 SP:FB CYC:23014
F306  20 2E FB  JSR $FB2E                       A:29 X:02 Y:EA P:65 SP:FB CYC:23018
FB2E  B8        CLV                             A:29 X:02 Y:EA P:65 SP:F9 CYC:23024
FB2F  18        CLC                             A:29 X:02 Y:EA P:25 SP:F9 CYC:23026
FB30  A9 42     LDA #$42                        A:29 X:02 Y:EA P:24 SP:F9 CYC:23028
FB32  60        RTS                             A:42 X:02 Y:EA P:24 SP:F9 CYC:23030
F309  43 45    *SRE ($45,X) @ 47 = 0647 = 29    A:42 X:02 Y:EA P:24 SP:FB CYC:23036
F30B  EA        NOP                             A:56 X:02 Y:EA P:25 SP:FB CYC:23044
F30C  EA        NOP                             A:56 X:02 Y:EA P:25 SP:FB CYC:23046
F30D  EA        NOP                             A:56 X:02 Y:EA P:25 SP:FB CYC:23048
F30E  EA        NOP                             A:56 X:02 Y:EA P:25 SP:FB CYC:23050
F30F  20 33 FB  JSR $FB33                       A:56 X:02 Y:EA P:25 SP:FB CYC:23052
FB33  70 40     BVS $FB75                       A:56 X:02 Y:EA P:25 SP:F9 CYC:23058
FB35  F0 3E     BEQ $FB75                       A:56 X:02 Y:EA P:25 SP:F9 CYC:23060
FB37  30 3C     BMI $FB75                       A:56 X:02 Y:EA P:25 SP:F9 CYC:23062
FB39  90 3A     BCC $FB75                       A:56 X:02 Y:EA P:25 SP:F9 CYC:23064
FB3B  C9 56     CMP #$56                        A:56 X:02 Y:EA P:25 SP:F9 CYC:23066
FB3D  D0 36     BNE $FB75                       A:56 X:02 Y:EA P:27 SP:F9 CYC:23068
FB3F  60        RTS                             A:56 X:02 Y:EA P:27 SP:F9 CYC:23070
F312  AD 47 06  LDA $0647 = 14                  A:56 X:02 Y:EA P:27 SP:FB CYC:23076
F315  C9 14     CMP #$14                        A:14 X:02 Y:EA P:25 SP:FB CYC:23080
F317  F0 02     BEQ $F31B                       A:14 X:02 Y:EA P:27 SP:FB CYC:23082
F31B  C8        INY                             A:14 X:02 Y:EA P:27 SP:FB CYC:23084
F31C  A9 37     LDA #$37                        A:14 X:02 Y:EB P:A5 SP:FB CYC:23086
F31E  8D 47 06  STA $0647 = 14                  A:37 X:02 Y:EB P:25 SP:FB CYC:23088
F321  20 40 FB  JSR $FB40                       A:37 X:02 Y:EB P:25 SP:FB CYC:23092
FB40  24 01     BIT $01 = FF                    A:37 X:02 Y:EB P:25 SP:F9 CYC:23098
FB42  38        SEC                             A:37 X:02 Y:EB P:E5 SP:F9 CYC:23101
FB43  A9 75     LDA #$75                        A:37 X:02 Y:EB P:E5 SP:F9 CYC:23103
FB45  60        RTS                             A:75 X:02 Y:EB P:65 SP:F9 CYC:23105
F324  43 45    *SRE ($45,X) @ 47 = 0647 = 37    A:75 X:02 Y:EB P:65 SP:FB CYC:23111
F326  EA        NOP                             A:6E X:02 Y:EB P:65 SP:FB CYC:23119
F327  EA        NOP                             A:6E X:02 Y:EB P:65 SP:FB CYC:23121
F328  EA        NOP                             A:6E X:02 Y:EB P:65 SP:FB CYC:23123
F329  EA        NOP                             A:6E X:02 Y:EB P:65 SP:FB CYC:23125
F32A  20 46 FB  JSR $FB46                       A:6E X:02 Y:EB P:65 SP:FB CYC:23127
FB46  50 2D     BVC $FB75                       A:6E X:02 Y:EB P:65 SP:F9 CYC:23133
FB48  F0 2B     BEQ $FB75                       A:6E X:02 Y:EB P:65 SP:F9 CYC:23135
FB4A  30 29     BMI $FB75                       A:6E X:02 Y:EB P:65 SP:F9 CYC:23137
FB4C  90 27     BCC $FB75                       A:6E X:02 Y:EB P:65 SP:F9 CYC:23139
FB4E  C9 6E     CMP #$6E                        A:6E X:02 Y:EB P:65 SP:F9 CYC:23141
FB50  D0 23     BNE $FB75                       A:6E X:02 Y:EB P:67 SP:F9 CYC:23143
FB52  60        RTS                             A:6E X:02 Y:EB P:67 SP:F9 CYC:23145
F32D  AD 47 06  LDA $0647 = 1B                  A:6E X:02 Y:EB P:67 SP:FB CYC:23151
F330  C9 1B     CMP #$1B                        A:1B X:02 Y:EB P:65 SP:FB CYC:23155
F332  F0 02     BEQ $F336                       A:1B X:02 Y:EB P:67 SP:FB CYC:23157
F336  C8        INY                             A:1B X:02 Y:EB P:67 SP:FB CYC:23159
F337  A9 A5     LDA #$A5                        A:1B X:02 Y:EC P:E5 SP:FB CYC:23161
F339  85 47     STA $47 = 47                    A:A5 X:02 Y:EC P:E5 SP:FB CYC:23163
F33B  20 1D FB  JSR $FB1D                       A:A5 X:02 Y:EC P:E5 SP:FB CYC:23166
FB1D  24 01     BIT $01 = FF                    A:A5 X:02 Y:EC P:E5 SP:F9 CYC:23172
FB1F  18        CLC                             A:A5 X:02 Y:EC P:E5 SP:F9 CYC:23175
FB20  A9 B3     LDA #$B3                        A:A5 X:02 Y:EC P:E4 SP:F9 CYC:23177
FB22  60        RTS                             A:B3 X:02 Y:EC P:E4 SP:F9 CYC:23179
F33E  47 47    *SRE $47 = A5                    A:B3 X:02 Y:EC P:E4 SP:FB CYC:23185
F340  EA        NOP                             A:E1 X:02 Y:EC P:E5 SP:FB CYC:23190
F341  EA        NOP                             A:E1 X:02 Y:EC P:E5 SP:FB CYC:23192
F342  EA        NOP                             A:E1 X:02 Y:EC P:E5 SP:FB CYC:23194
F343  EA        NOP                             A:E1 X:02 Y:EC P:E5 SP:FB CYC:23196
F344  20 23 FB  JSR $FB23                       A:E1 X:02 Y:EC P:E5 SP:FB CYC:23198
FB23  50 50     BVC $FB75                       A:E1 X:02 Y:EC P:E5 SP:F9 CYC:23204
FB25  90 4E     BCC $FB75                       A:E1 X:02 Y:EC P:E5 SP:F9 CYC:23206
FB27  10 4C     BPL $FB75                       A:E1 X:02 Y:EC P:E5 SP:F9 CYC:23208
FB29  C9 E1     CMP #$E1                        A:E1 X:02 Y:EC P:E5 SP:F9 CYC:23210
FB2B  D0 48     BNE $FB75                       A:E1 X:02 Y:EC P:67 SP:F9 CYC:23212
FB2D  60        RTS                             A:E1 X:02 Y:EC P:67 SP:F9 CYC:23214
F347  A5 47     LDA $47 = 52                    A:E1 X:02 Y:EC P:67 SP:FB CYC:23220
F349  C9 52     CMP #$52                        A:52 X:02 Y:EC P:65 SP:FB CYC:23223
F34B  F0 02     BEQ $F34F                       A:52 X:02 Y:EC P:67 SP:FB CYC:23225
F34F  C8        INY                             A:52 X:02 Y:EC P:67 SP:FB CYC:23227
F350  A9 29     LDA #$29                        A:52 X:02 Y:ED P:E5 SP:FB CYC:23229
F352  85 47     STA $47 = 52                    A:29 X:02 Y:ED P:65 SP:FB CYC:23231
F354  20 2E FB  JSR $FB2E                       A:29 X:02 Y:ED P:65 SP:FB CYC:23234
FB2E  B8        CLV                             A:29 X:02 Y:ED P:65 SP:F9 CYC:23240
FB2F  18        CLC                             A:29 X:02 Y:ED P:25 SP:F9 CYC:23242
FB30  A9 42     LDA #$42                        A:29 X:02 Y:ED P:24 SP:F9 CYC:23244
FB32  60        RTS                             A:42 X:02 Y:ED P:24 SP:F9 CYC:23246
F357  47 47    *SRE $47 = 29                    A:42 X:02 Y:ED P:24 SP:FB CYC:23252
F359  EA        NOP                             A:56 X:02 Y:ED P:25 SP:FB CYC:23257
F35A  EA        NOP                             A:56 X:02 Y:ED P:25 SP:FB CYC:23259
F35B  EA        NOP                             A:56 X:02 Y:ED P:25 SP:FB CYC:23261
F35C  EA        NOP                             A:56 X:02 Y:ED P:25 SP:FB CYC:23263
F35D  20 33 FB  JSR $FB33                       A:56 X:02 Y:ED P:25 SP:FB CYC:23265
FB33  70 40     BVS $FB75                       A:56 X:02 Y:ED P:25 SP:F9 CYC:23271
FB35  F0 3E     BEQ $FB75                       A:56 X:02 Y:ED P:25 SP:F9 CYC:23273
FB37  30 3C     BMI $FB75                       A:56 X:02 Y:ED P:25 SP:F9 CYC:23275
FB39  90 3A     BCC $FB75                       A:56 X:02 Y:ED P:25 SP:F9 CYC:23277
FB3B  C9 56     CMP #$56                        A:56 X:02 Y:ED P:25 SP:F9 CYC:23279
FB3D  D0 36     BNE $FB75                       A:56 X:02 Y:ED P:27 SP:F9 CYC:23281
FB3F  60        RTS                             A:56 X:02 Y:ED P:27 SP:F9 CYC:23283
F360  A5 47     LDA $47 = 14                    A:56 X:02 Y:ED P:27 SP:FB CYC:23289
F362  C9 14     CMP #$14                        A:14 X:02 Y:ED P:25 SP:FB CYC:23292
F364  F0 02     BEQ $F368                       A:14 X:02 Y:ED P:27 SP:FB CYC:23294
F368  C8        INY                             A:14 X:02 Y:ED P:27 SP:FB CYC:23296
F369  A9 37     LDA #$37                        A:14 X:02 Y:EE P:A5 SP:FB CYC:23298
F36B  85 47     STA $47 = 14                    A:37 X:02 Y:EE P:25 SP:FB CYC:23300
F36D  20 40 FB  JSR $FB40                       A:37 X:02 Y:EE P:25 SP:FB CYC:23303
FB40  24 01     BIT $01 = FF                    A:37 X:02 Y:EE P:25 SP:F9 CYC:23309
FB42  38        SEC                             A:37 X:02 Y:EE P:E5 SP:F9 CYC:23312
FB43  A9 75     LDA #$75                        A:37 X:02 Y:EE P:E5 SP:F9 CYC:23314
FB45  60        RTS                             A:75 X:02 Y:EE P:65 SP:F9 CYC:23316
F370  47 47    *SRE $47 = 37                    A:75 X:02 Y:EE P:65 SP:FB CYC:23322
F372  EA        NOP                             A:6E X:02 Y:EE P:65 SP:FB CYC:23327
F373  EA        NOP                             A:6E X:02 Y:EE P:65 SP:FB CYC:23329
F374  EA        NOP                             A:6E X:02 Y:EE P:65 SP:FB CYC:23331
F375  EA        NOP                             A:6E X:02 Y:EE P:65 SP:FB CYC:23333
F376  20 46 FB  JSR $FB46                       A:6E X:02 Y:EE P:65 SP:FB CYC:23335
FB46  50 2D     BVC $FB75                       A:6E X:02 Y:EE P:65 SP:F9 CYC:23341
FB48  F0 2B     BEQ $FB75                       A:6E X:02 Y:EE P:65 SP:F9 CYC:23343
FB4A  30 29     BMI $FB75                       A:6E X:02 Y:EE P:65 SP:F9 CYC:23345
FB4C  90 27     BCC $FB75                       A:6E X:02 Y:EE P:65 SP:F9 CYC:23347
FB4E  C9 6E     CMP #$6E                        A:6E X:02 Y:EE P:65 SP:F9 CYC:23349
FB50  D0 23     BNE $FB75                       A:6E X:02 Y:EE P:67 SP:F9 CYC:23351
FB52  60        RTS                             A:6E X:02 Y:EE P:67 SP:F9 CYC:23353
F379  A5 47     LDA $47 = 1B                    A:6E X:02 Y:EE P:67 SP:FB CYC:23359
F37B  C9 1B     CMP #$1B                        A:1B X:02 Y:EE P:65 SP:FB CYC:23362
F37D  F0 02     BEQ $F381                       A:1B X:02 Y:EE P:67 SP:FB CYC:23364
F381  C8        INY                             A:1B X:02 Y:EE P:67 SP:FB CYC:23366
F382  A9 A5     LDA #$A5                        A:1B X:02 Y:EF P:E5 SP:FB CYC:23368
F384  8D 47 06  STA $0647 = 1B                  A:A5 X:02 Y:EF P:E5 SP:FB CYC:23370
F387  20 1D FB  JSR $FB1D                       A:A5 X:02 Y:EF P:E5 SP:FB CYC:23374
FB1D  24 01     BIT $01 = FF                    A:A5 X:02 Y:EF P:E5 SP:F9 CYC:23380
FB1F  18        CLC                             A:A5 X:02 Y:EF P:E5 SP:F9 CYC:23383
FB20  A9 B3     LDA #$B3                        A:A5 X:02 Y:EF P:E4 SP:F9 CYC:23385
FB22  60        RTS                             A:B3 X:02 Y:EF P:E4 SP:F9 CYC:23387
F38A  4F 47 06 *SRE $0647 = A5                  A:B3 X:02 Y:EF P:E4 SP:FB CYC:23393
F38D  EA        NOP                             A:E1 X:02 Y:EF P:E5 SP:FB CYC:23399
F38E  EA        NOP                             A:E1 X:02 Y:EF P:E5 SP:FB CYC:23401
F38F  EA        NOP                             A:E1 X:02 Y:EF P:E5 SP:FB CYC:23403
F390  EA        NOP                             A:E1 X:02 Y:EF P:E5 SP:FB CYC:23405
F391  20 23 FB  JSR $FB23                       A:E1 X:02 Y:EF P:E5 SP:FB CYC:23407
FB23  50 50     BVC $FB75                       A:E1 X:02 Y:EF P:E5 SP:F9 CYC:23413
FB25  90 4E     BCC $FB75                       A:E1 X:02 Y:EF P:E5 SP:F9 CYC:23415
FB27  10 4C     BPL $FB75                       A:E1 X:02 Y:EF P:E5 SP:F9 CYC:23417
FB29  C9 E1     CMP #$E1                        A:E1 X:02 Y:EF P:E5 SP:F9 CYC:23419
FB2B  D0 48     BNE $FB75                       A:E1 X:02 Y:EF P:67 SP:F9 CYC:23421
FB2D  60        RTS                             A:E1 X:02 Y:EF P:67 SP:F9 CYC:23423
F394  AD 47 06  LDA $0647 = 52                  A:E1 X:02 Y:EF P:67 SP:FB CYC:23429
F397  C9 52     CMP #$52                        A:52 X:02 Y:EF P:65 SP:FB CYC:23433
F399  F0 02     BEQ $F39D                       A:52 X:02 Y:EF P:67 SP:FB CYC:23435
F39D  C8        INY                             A:52 X:02 Y:EF P:67 SP:FB CYC:23437
F39E  A9 29     LDA #$29                        A:52 X:02 Y:F0 P:E5 SP:FB CYC:23439
F3A0  8D 47 06  STA $0647 = 52                  A:29 X:02 Y:F0 P:65 SP:FB CYC:23441
F3A3  20 2E FB  JSR $FB2E                       A:29 X:02 Y:F0 P:65 SP:FB CYC:23445
FB2E  B8        CLV                             A:29 X:02 Y:F0 P:65 SP:F9 CYC:23451
FB2F  18        CLC                             A:29 X:02 Y:F0 P:25 SP:F9 CYC:23453
FB30  A9 42     LDA #$42                        A:29 X:02 Y:F0 P:24 SP:F9 CYC:23455
FB32  60        RTS                             A:42 X:02 Y:F0 P:24 SP:F9 CYC:23457
F3A6  4F 47 06 *SRE $0647 = 29                  A:42 X:02 Y:F0 P:24 SP:FB CYC:23463
F3A9  EA        NOP                             A:56 X:02 Y:F0 P:25 SP:FB CYC:23469
F3AA  EA        NOP                             A:56 X:02 Y:F0 P:25 SP:FB CYC:23471
F3AB  EA        NOP                             A:56 X:02 Y:F0 P:25 SP:FB CYC:23473
F3AC  EA        NOP                             A:56 X:02 Y:F0 P:25 SP:FB CYC:23475
F3AD  20 33 FB  JSR $FB33                       A:56 X:02 Y:F0 P:25 SP:FB CYC:23477
FB33  70 40     BVS $FB75                       A:56 X:02 Y:F0 P:25 SP:F9 CYC:23483
FB35  F0 3E     BEQ $FB75                       A:56 X:02 Y:F0 P:25 SP:F9 CYC:23485
FB37  30 3C     BMI $FB75                       A:56 X:02 Y:F0 P:25 SP:F9 CYC:23487
FB39  90 3A     BCC $FB75                       A:56 X:02 Y:F0 P:25 SP:F9 CYC:23489
FB3B  C9 56     CMP #$56                        A:56 X:02 Y:F0 P:25 SP:F9 CYC:23491
FB3D  D0 36     BNE $FB75                       A:56 X:02 Y:F0 P:27 SP:F9 CYC:23493
FB3F  60        RTS                             A:56 X:02 Y:F0 P:27 SP:F9 CYC:23495
F3B0  AD 47 06  LDA $0647 = 14                  A:56 X:02 Y:F0 P:27 SP:FB CYC:23501
F3B3  C9 14     CMP #$14                        A:14 X:02 Y:F0 P:25 SP:FB CYC:23505
F3B5  F0 02     BEQ $F3B9                       A:14 X:02 Y:F0 P:27 SP:FB CYC:23507
F3B9  C8        INY                             A:14 X:02 Y:F0 P:27 SP:FB CYC:23509
F3BA  A9 37     LDA #$37                        A:14 X:02 Y:F1 P:A5 SP:FB CYC:23511
F3BC  8D 47 06  STA $0647 = 14                  A:37 X:02 Y:F1 P:25 SP:FB CYC:23513
F3BF  20 40 FB  JSR $FB40                       A:37 X:02 Y:F1 P:25 SP:FB CYC:23517
FB40  24 01     BIT $01 = FF                    A:37 X:02 Y:F1 P:25 SP:F9 CYC:23523
FB42  38        SEC                             A:37 X:02 Y:F1 P:E5 SP:F9 CYC:23526
FB43  A9 75     LDA #$75                        A:37 X:02 Y:F1 P:E5 SP:F9 CYC:23528
FB45  60        RTS                             A:75 X:02 Y:F1 P:65 SP:F9 CYC:23530
F3C2  4F 47 06 *SRE $0647 = 37                  A:75 X:02 Y:F1 P:65 SP:FB CYC:23536
F3C5  EA        NOP                             A:6E X:02 Y:F1 P:65 SP:FB CYC:23542
F3C6  EA        NOP                             A:6E X:02 Y:F1 P:65 SP:FB CYC:23544
F3C7  EA        NOP                             A:6E X:02 Y:F1 P:65 SP:FB CYC:23546
F3C8  EA        NOP                             A:6E X:02 Y:F1 P:65 SP:FB CYC:23548
F3C9  20 46 FB  JSR $FB46                       A:6E X:02 Y:F1 P:65 SP:FB CYC:23550
FB46  50 2D     BVC $FB75                       A:6E X:02 Y:F1 P:65 SP:F9 CYC:23556
FB48  F0 2B     BEQ $FB75                       A:6E X:02 Y:F1 P:65 SP:F9 CYC:23558
FB4A  30 29     BMI $FB75                       A:6E X:02 Y:F1 P:65 SP:F9 CYC:23560
FB4C  90 27     BCC $FB75                       A:6E X:02 Y:F1 P:65 SP:F9 CYC:23562
FB4E  C9 6E     CMP #$6E                        A:6E X:02 Y:F1 P:65 SP:F9 CYC:23564
FB50  D0 23     BNE $FB75                       A:6E X:02 Y:F1 P:67 SP:F9 CYC:23566
FB52  60        RTS                             A:6E X:02 Y:F1 P:67 SP:F9 CYC:23568
F3CC  AD 47 06  LDA $0647 = 1B                  A:6E X:02 Y:F1 P:67 SP:FB CYC:23574
F3CF  C9 1B     CMP #$1B                        A:1B X:02 Y:F1 P:65 SP:FB CYC:23578
F3D1  F0 02     BEQ $F3D5                       A:1B X:02 Y:F1 P:67 SP:FB CYC:23580
F3D5  A9 A5     LDA #$A5                        A:1B X:02 Y:F1 P:67 SP:FB CYC:23582
F3D7  8D 47 06  STA $0647 = 1B                  A:A5 X:02 Y:F1 P:E5 SP:FB CYC:23584
F3DA  A9 48     LDA #$48                        A:A5 X:02 Y:F1 P:E5 SP:FB CYC:23588
F3DC  85 45     STA $45 = 48                    A:48 X:02 Y:F1 P:65 SP:FB CYC:23590
F3DE  A9 05     LDA #$05                        A:48 X:02 Y:F1 P:65 SP:FB CYC:23593
F3E0  85 46     STA $46 = 05                    A:05 X:02 Y:F1 P:65 SP:FB CYC:23595
F3E2  A0 FF     LDY #$FF                        A:05 X:02 Y:F1 P:65 SP:FB CYC:23598
F3E4  20 1D FB  JSR $FB1D                       A:05 X:02 Y:FF P:E5 SP:FB CYC:23600
FB1D  24 01     BIT $01 = FF                    A:05 X:02 Y:FF P:E5 SP:F9 CYC:23606
FB1F  18        CLC                             A:05 X:02 Y:FF P:E5 SP:F9 CYC:23609
FB20  A9 B3     LDA #$B3                        A:05 X:02 Y:FF P:E4 SP:F9 CYC:23611
FB22  60        RTS                             A:B3 X:02 Y:FF P:E4 SP:F9 CYC:23613
F3E7  53 45    *SRE ($45),Y = 0548 @ 0647 = A5  A:B3 X:02 Y:FF P:E4 SP:FB CYC:23619
F3E9  EA        NOP                             A:E1 X:02 Y:FF P:E5 SP:FB CYC:23627
F3EA  EA        NOP                             A:E1 X:02 Y:FF P:E5 SP:FB CYC:23629
F3EB  08        PHP                             A:E1 X:02 Y:FF P:E5 SP:FB CYC:23631
F3EC  48        PHA                             A:E1 X:02 Y:FF P:E5 SP:FA CYC:23634
F3ED  A0 F2     LDY #$F2                        A:E1 X:02 Y:FF P:E5 SP:F9 CYC:23637
F3EF  68        PLA                             A:E1 X:02 Y:F2 P:E5 SP:F9 CYC:23639
F3F0  28        PLP                             A:E1 X:02 Y:F2 P:E5 SP:FA CYC:23643
F3F1  20 23 FB  JSR $FB23                       A:E1 X:02 Y:F2 P:E5 SP:FB CYC:23647
FB23  50 50     BVC $FB75                       A:E1 X:02 Y:F2 P:E5 SP:F9 CYC:23653
FB25  90 4E     BCC $FB75                       A:E1 X:02 Y:F2 P:E5 SP:F9 CYC:23655
FB27  10 4C     BPL $FB75                       A:E1 X:02 Y:F2 P:E5 SP:F9 CYC:23657
FB29  C9 E1     CMP #$E1                        A:E1 X:02 Y:F2 P:E5 SP:F9 CYC:23659
FB2B  D0 48     BNE $FB75                       A:E1 X:02 Y:F2 P:67 SP:F9 CYC:23661
FB2D  60        RTS                             A:E1 X:02 Y:F2 P:67 SP:F9 CYC:23663
F3F4  AD 47 06  LDA $0647 = 52                  A:E1 X:02 Y:F2 P:67 SP:FB CYC:23669
F3F7  C9 52     CMP #$52                        A:52 X:02 Y:F2 P:65 SP:FB CYC:23673
F3F9  F0 02     BEQ $F3FD                       A:52 X:02 Y:F2 P:67 SP:FB CYC:23675
F3FD  A0 FF     LDY #$FF                        A:52 X:02 Y:F2 P:67 SP:FB CYC:23677
F3FF  A9 29     LDA #$29                        A:52 X:02 Y:FF P:E5 SP:FB CYC:23679
F401  8D 47 06  STA $0647 = 52                  A:29 X:02 Y:FF P:65 SP:FB CYC:23681
F404  20 2E FB  JSR $FB2E                       A:29 X:02 Y:FF P:65 SP:FB CYC:23685
FB2E  B8        CLV                             A:29 X:02 Y:FF P:65 SP:F9 CYC:23691
FB2F  18        CLC                             A:29 X:02 Y:FF P:25 SP:F9 CYC:23693
FB30  A9 42     LDA #$42                        A:29 X:02 Y:FF P:24 SP:F9 CYC:23695
FB32  60        RTS                             A:42 X:02 Y:FF P:24 SP:F9 CYC:23697
F407  53 45    *SRE ($45),Y = 0548 @ 0647 = 29  A:42 X:02 Y:FF P:24 SP:FB CYC:23703
F409  EA        NOP                             A:56 X:02 Y:FF P:25 SP:FB CYC:23711
F40A  EA        NOP                             A:56 X:02 Y:FF P:25 SP:FB CYC:23713
F40B  08        PHP                             A:56 X:02 Y:FF P:25 SP:FB CYC:23715
F40C  48        PHA                             A:56 X:02 Y:FF P:25 SP:FA CYC:23718
F40D  A0 F3     LDY #$F3                        A:56 X:02 Y:FF P:25 SP:F9 CYC:23721
F40F  68        PLA                             A:56 X:02 Y:F3 P:A5 SP:F9 CYC:23723
F410  28        PLP                             A:56 X:02 Y:F3 P:25 SP:FA CYC:23727
F411  20 33 FB  JSR $FB33                       A:56 X:02 Y:F3 P:25 SP:FB CYC:23731
FB33  70 40     BVS $FB75                       A:56 X:02 Y:F3 P:25 SP:F9 CYC:23737
FB35  F0 3E     BEQ $FB75                       A:56 X:02 Y:F3 P:25 SP:F9 CYC:23739
FB37  30 3C     BMI $FB75                       A:56 X:02 Y:F3 P:25 SP:F9 CYC:23741
FB39  90 3A     BCC $FB75                       A:56 X:02 Y:F3 P:25 SP:F9 CYC:23743
FB3B  C9 56     CMP #$56                        A:56 X:02 Y:F3 P:25 SP:F9 CYC:23745
FB3D  D0 36     BNE $FB75                       A:56 X:02 Y:F3 P:27 SP:F9 CYC:23747
FB3F  60        RTS                             A:56 X:02 Y:F3 P:27 SP:F9 CYC:23749
F414  AD 47 06  LDA $0647 = 14                  A:56 X:02 Y:F3 P:27 SP:FB CYC:23755
F417  C9 14     CMP #$14                        A:14 X:02 Y:F3 P:25 SP:FB CYC:23759
F419  F0 02     BEQ $F41D                       A:14 X:02 Y:F3 P:27 SP:FB CYC:23761
F41D  A0 FF     LDY #$FF                        A:14 X:02 Y:F3 P:27 SP:FB CYC:23763
F41F  A9 37     LDA #$37                        A:14 X:02 Y:FF P:A5 SP:FB CYC:23765
F421  8D 47 06  STA $0647 = 14                  A:37 X:02 Y:FF P:25 SP:FB CYC:23767
F424  20 40 FB  JSR $FB40                       A:37 X:02 Y:FF P:25 SP:FB CYC:23771
FB40  24 01     BIT $01 = FF                    A:37 X:02 Y:FF P:25 SP:F9 CYC:23777
FB42  38        SEC                             A:37 X:02 Y:FF P:E5 SP:F9 CYC:23780
FB43  A9 75     LDA #$75                        A:37 X:02 Y:FF P:E5 SP:F9 CYC:23782
FB45  60        RTS                             A:75 X:02 Y:FF P:65 SP:F9 CYC:23784
F427  53 45    *SRE ($45),Y = 0548 @ 0647 = 37  A:75 X:02 Y:FF P:65 SP:FB CYC:23790
F429  EA        NOP                             A:6E X:02 Y:FF P:65 SP:FB CYC:23798
F42A  EA        NOP                             A:6E X:02 Y:FF P:65 SP:FB CYC:23800
F42B  08        PHP                             A:6E X:02 Y:FF P:65 SP:FB CYC:23802
F42C  48        PHA                             A:6E X:02 Y:FF P:65 SP:FA CYC:23805
F42D  A0 F4     LDY #$F4                        A:6E X:02 Y:FF P:65 SP:F9 CYC:23808
F42F  68        PLA                             A:6E X:02 Y:F4 P:E5 SP:F9 CYC:23810
F430  28        PLP                             A:6E X:02 Y:F4 P:65 SP:FA CYC:23814
F431  20 46 FB  JSR $FB46                       A:6E X:02 Y:F4 P:65 SP:FB CYC:23818
FB46  50 2D     BVC $FB75                       A:6E X:02 Y:F4 P:65 SP:F9 CYC:23824
FB48  F0 2B     BEQ $FB75                       A:6E X:02 Y:F4 P:65 SP:F9 CYC:23826
FB4A  30 29     BMI $FB75                       A:6E X:02 Y:F4 P:65 SP:F9 CYC:23828
FB4C  90 27     BCC $FB75                       A:6E X:02 Y:F4 P:65 SP:F9 CYC:23830
FB4E  C9 6E     CMP #$6E                        A:6E X:02 Y:F4 P:65 SP:F9 CYC:23832
FB50  D0 23     BNE $FB75                       A:6E X:02 Y:F4 P:67 SP:F9 CYC:23834
FB52  60        RTS                             A:6E X:02 Y:F4 P:67 SP:F9 CYC:23836
F434  AD 47 06  LDA $0647 = 1B                  A:6E X:02 Y:F4 P:67 SP:FB CYC:23842
F437  C9 1B     CMP #$1B                        A:1B X:02 Y:F4 P:65 SP:FB CYC:23846
F439  F0 02     BEQ $F43D                       A:1B X:02 Y:F4 P:67 SP:FB CYC:23848
F43D  A0 F5     LDY #$F5                        A:1B X:02 Y:F4 P:67 SP:FB CYC:23850
F43F  A2 FF     LDX #$FF                        A:1B X:02 Y:F5 P:E5 SP:FB CYC:23852
F441  A9 A5     LDA #$A5                        A:1B X:FF Y:F5 P:E5 SP:FB CYC:23854
F443  85 47     STA $47 = 1B                    A:A5 X:FF Y:F5 P:E5 SP:FB CYC:23856
F445  20 1D FB  JSR $FB1D                       A:A5 X:FF Y:F5 P:E5 SP:FB CYC:23859
FB1D  24 01     BIT $01 = FF                    A:A5 X:FF Y:F5 P:E5 SP:F9 CYC:23865
FB1F  18        CLC                             A:A5 X:FF Y:F5 P:E5 SP:F9 CYC:23868
FB20  A9 B3     LDA #$B3                        A:A5 X:FF Y:F5 P:E4 SP:F9 CYC:23870
FB22  60        RTS                             A:B3 X:FF Y:F5 P:E4 SP:F9 CYC:23872
F448  57 48    *SRE $48,X @ 47 = A5             A:B3 X:FF Y:F5 P:E4 SP:FB CYC:23878
F44A  EA        NOP                             A:E1 X:FF Y:F5 P:E5 SP:FB CYC:23884
F44B  EA        NOP                             A:E1 X:FF Y:F5 P:E5 SP:FB CYC:23886
F44C  EA        NOP                             A:E1 X:FF Y:F5 P:E5 SP:FB CYC:23888
F44D  EA        NOP                             A:E1 X:FF Y:F5 P:E5 SP:FB CYC:23890
F44E  20 23 FB  JSR $FB23                       A:E1 X:FF Y:F5 P:E5 SP:FB CYC:23892
FB23  50 50     BVC $FB75                       A:E1 X:FF Y:F5 P:E5 SP:F9 CYC:23898
FB25  90 4E     BCC $FB75                       A:E1 X:FF Y:F5 P:E5 SP:F9 CYC:23900
FB27  10 4C     BPL $FB75                       A:E1 X:FF Y:F5 P:E5 SP:F9 CYC:23902
FB29  C9 E1     CMP #$E1                        A:E1 X:FF Y:F5 P:E5 SP:F9 CYC:23904
FB2B  D0 48     BNE $FB75                       A:E1 X:FF Y:F5 P:67 SP:F9 CYC:23906
FB2D  60        RTS                             A:E1 X:FF Y:F5 P:67 SP:F9 CYC:23908
F451  A5 47     LDA $47 = 52                    A:E1 X:FF Y:F5 P:67 SP:FB CYC:23914
F453  C9 52     CMP #$52                        A:52 X:FF Y:F5 P:65 SP:FB CYC:23917
F455  F0 02     BEQ $F459                       A:52 X:FF Y:F5 P:67 SP:FB CYC:23919
F459  C8        INY                             A:52 X:FF Y:F5 P:67 SP:FB CYC:23921
F45A  A9 29     LDA #$29                        A:52 X:FF Y:F6 P:E5 SP:FB CYC:23923
F45C  85 47     STA $47 = 52                    A:29 X:FF Y:F6 P:65 SP:FB CYC:23925
F45E  20 2E FB  JSR $FB2E                       A:29 X:FF Y:F6 P:65 SP:FB CYC:23928
FB2E  B8        CLV                             A:29 X:FF Y:F6 P:65 SP:F9 CYC:23934
FB2F  18        CLC                             A:29 X:FF Y:F6 P:25 SP:F9 CYC:23936
FB30  A9 42     LDA #$42                        A:29 X:FF Y:F6 P:24 SP:F9 CYC:23938
FB32  60        RTS                             A:42 X:FF Y:F6 P:24 SP:F9 CYC:23940
F461  57 48    *SRE $48,X @ 47 = 29             A:42 X:FF Y:F6 P:24 SP:FB CYC:23946
F463  EA        NOP                             A:56 X:FF Y:F6 P:25 SP:FB CYC:23952
F464  EA        NOP                             A:56 X:FF Y:F6 P:25 SP:FB CYC:23954
F465  EA        NOP                             A:56 X:FF Y:F6 P:25 SP:FB CYC:23956
F466  EA        NOP                             A:56 X:FF Y:F6 P:25 SP:FB CYC:23958
F467  20 33 FB  JSR $FB33                       A:56 X:FF Y:F6 P:25 SP:FB CYC:23960
FB33  70 40     BVS $FB75                       A:56 X:FF Y:F6 P:25 SP:F9 CYC:23966
FB35  F0 3E     BEQ $FB75                       A:56 X:FF Y:F6 P:25 SP:F9 CYC:23968
FB37  30 3C     BMI $FB75                       A:56 X:FF Y:F6 P:25 SP:F9 CYC:23970
FB39  90 3A     BCC $FB75                       A:56 X:FF Y:F6 P:25 SP:F9 CYC:23972
FB3B  C9 56     CMP #$56                        A:56 X:FF Y:F6 P:25 SP:F9 CYC:23974
FB3D  D0 36     BNE $FB75                       A:56 X:FF Y:F6 P:27 SP:F9 CYC:23976
FB3F  60        RTS                             A:56 X:FF Y:F6 P:27 SP:F9 CYC:23978
F46A  A5 47     LDA $47 = 14                    A:56 X:FF Y:F6 P:27 SP:FB CYC:23984
F46C  C9 14     CMP #$14                        A:14 X:FF Y:F6 P:25 SP:FB CYC:23987
F46E  F0 02     BEQ $F472                       A:14 X:FF Y:F6 P:27 SP:FB CYC:23989
F472  C8        INY                             A:14 X:FF Y:F6 P:27 SP:FB CYC:23991
F473  A9 37     LDA #$37                        A:14 X:FF Y:F7 P:A5 SP:FB CYC:23993
F475  85 47     STA $47 = 14                    A:37 X:FF Y:F7 P:25 SP:FB CYC:23995
F477  20 40 FB  JSR $FB40                       A:37 X:FF Y:F7 P:25 SP:FB CYC:23998
FB40  24 01     BIT $01 = FF                    A:37 X:FF Y:F7 P:25 SP:F9 CYC:24004
FB42  38        SEC                             A:37 X:FF Y:F7 P:E5 SP:F9 CYC:24007
FB43  A9 75     LDA #$75                        A:37 X:FF Y:F7 P:E5 SP:F9 CYC:24009
FB45  60        RTS                             A:75 X:FF Y:F7 P:65 SP:F9 CYC:24011
F47A  57 48    *SRE $48,X @ 47 = 37             A:75 X:FF Y:F7 P:65 SP:FB CYC:24017
F47C  EA        NOP                             A:6E X:FF Y:F7 P:65 SP:FB CYC:24023
F47D  EA        NOP                             A:6E X:FF Y:F7 P:65 SP:FB CYC:24025
F47E  EA        NOP                             A:6E X:FF Y:F7 P:65 SP:FB CYC:24027
F47F  EA        NOP                             A:6E X:FF Y:F7 P:65 SP:FB CYC:24029
F480  20 46 FB  JSR $FB46                       A:6E X:FF Y:F7 P:65 SP:FB CYC:24031
FB46  50 2D     BVC $FB75                       A:6E X:FF Y:F7 P:65 SP:F9 CYC:24037
FB48  F0 2B     BEQ $FB75                       A:6E X:FF Y:F7 P:65 SP:F9 CYC:24039
FB4A  30 29     BMI $FB75                       A:6E X:FF Y:F7 P:65 SP:F9 CYC:24041
FB4C  90 27     BCC $FB75                       A:6E X:FF Y:F7 P:65 SP:F9 CYC:24043
FB4E  C9 6E     CMP #$6E                        A:6E X:FF Y:F7 P:65 SP:F9 CYC:24045
FB50  D0 23     BNE $FB75                       A:6E X:FF Y:F7 P:67 SP:F9 CYC:24047
FB52  60        RTS                             A:6E X:FF Y:F7 P:67 SP:F9 CYC:24049
F483  A5 47     LDA $47 = 1B                    A:6E X:FF Y:F7 P:67 SP:FB CYC:24055
F485  C9 1B     CMP #$1B                        A:1B X:FF Y:F7 P:65 SP:FB CYC:24058
F487  F0 02     BEQ $F48B                       A:1B X:FF Y:F7 P:67 SP:FB CYC:24060
F48B  A9 A5     LDA #$A5                        A:1B X:FF Y:F7 P:67 SP:FB CYC:24062
F48D  8D 47 06  STA $0647 = 1B                  A:A5 X:FF Y:F7 P:E5 SP:FB CYC:24064
F490  A0 FF     LDY #$FF                        A:A5 X:FF Y:F7 P:E5 SP:FB CYC:24068
F492  20 1D FB  JSR $FB1D                       A:A5 X:FF Y:FF P:E5 SP:FB CYC:24070
FB1D  24 01     BIT $01 = FF                    A:A5 X:FF Y:FF P:E5 SP:F9 CYC:24076
FB1F  18        CLC                             A:A5 X:FF Y:FF P:E5 SP:F9 CYC:24079
FB20  A9 B3     LDA #$B3                        A:A5 X:FF Y:FF P:E4 SP:F9 CYC:24081
FB22  60        RTS                             A:B3 X:FF Y:FF P:E4 SP:F9 CYC:24083
F495  5B 48 05 *SRE $0548,Y @ 0647 = A5         A:B3 X:FF Y:FF P:E4 SP:FB CYC:24089
F498  EA        NOP                             A:E1 X:FF Y:FF P:E5 SP:FB CYC:24096
F499  EA        NOP                             A:E1 X:FF Y:FF P:E5 SP:FB CYC:24098
F49A  08        PHP                             A:E1 X:FF Y:FF P:E5 SP:FB CYC:24100
F49B  48        PHA                             A:E1 X:FF Y:FF P:E5 SP:FA CYC:24103
F49C  A0 F8     LDY #$F8                        A:E1 X:FF Y:FF P:E5 SP:F9 CYC:24106
F49E  68        PLA                             A:E1 X:FF Y:F8 P:E5 SP:F9 CYC:24108
F49F  28        PLP                             A:E1 X:FF Y:F8 P:E5 SP:FA CYC:24112
F4A0  20 23 FB  JSR $FB23                       A:E1 X:FF Y:F8 P:E5 SP:FB CYC:24116
FB23  50 50     BVC $FB75                       A:E1 X:FF Y:F8 P:E5 SP:F9 CYC:24122
FB25  90 4E     BCC $FB75                       A:E1 X:FF Y:F8 P:E5 SP:F9 CYC:24124
FB27  10 4C     BPL $FB75                       A:E1 X:FF Y:F8 P:E5 SP:F9 CYC:24126
FB29  C9 E1     CMP #$E1                        A:E1 X:FF Y:F8 P:E5 SP:F9 CYC:24128
FB2B  D0 48     BNE $FB75                       A:E1 X:FF Y:F8 P:67 SP:F9 CYC:24130
FB2D  60        RTS                             A:E1 X:FF Y:F8 P:67 SP:F9 CYC:24132
F4A3  AD 47 06  LDA $0647 = 52                  A:E1 X:FF Y:F8 P:67 SP:FB CYC:24138
F4A6  C9 52     CMP #$52                        A:52 X:FF Y:F8 P:65 SP:FB CYC:24142
F4A8  F0 02     BEQ $F4AC                       A:52 X:FF Y:F8 P:67 SP:FB CYC:24144
F4AC  A0 FF     LDY #$FF                        A:52 X:FF Y:F8 P:67 SP:FB CYC:24146
F4AE  A9 29     LDA #$29                        A:52 X:FF Y:FF P:E5 SP:FB CYC:24148
F4B0  8D 47 06  STA $0647 = 52                  A:29 X:FF Y:FF P:65 SP:FB CYC:24150
F4B3  20 2E FB  JSR $FB2E                       A:29 X:FF Y:FF P:65 SP:FB CYC:24154
FB2E  B8        CLV                             A:29 X:FF Y:FF P:65 SP:F9 CYC:24160
FB2F  18        CLC                             A:29 X:FF Y:FF P:25 SP:F9 CYC:24162
FB30  A9 42     LDA #$42                        A:29 X:FF Y:FF P:24 SP:F9 CYC:24164
FB32  60        RTS                             A:42 X:FF Y:FF P:24 SP:F9 CYC:24166
F4B6  5B 48 05 *SRE $0548,Y @ 0647 = 29         A:42 X:FF Y:FF P:24 SP:FB CYC:24172
F4B9  EA        NOP                             A:56 X:FF Y:FF P:25 SP:FB CYC:24179
F4BA  EA        NOP                             A:56 X:FF Y:FF P:25 SP:FB CYC:24181
F4BB  08        PHP                             A:56 X:FF Y:FF P:25 SP:FB CYC:24183
F4BC  48        PHA                             A:56 X:FF Y:FF P:25 SP:FA CYC:24186
F4BD  A0 F9     LDY #$F9                        A:56 X:FF Y:FF P:25 SP:F9 CYC:24189
F4BF  68        PLA                             A:56 X:FF Y:F9 P:A5 SP:F9 CYC:24191
F4C0  28        PLP                             A:56 X:FF Y:F9 P:25 SP:FA CYC:24195
F4C1  20 33 FB  JSR $FB33                       A:56 X:FF Y:F9 P:25 SP:FB CYC:24199
FB33  70 40     BVS $FB75                       A:56 X:FF Y:F9 P:25 SP:F9 CYC:24205
FB35  F0 3E     BEQ $FB75                       A:56 X:FF Y:F9 P:25 SP:F9 CYC:24207
FB37  30 3C     BMI $FB75                       A:56 X:FF Y:F9 P:25 SP:F9 CYC:24209
FB39  90 3A     BCC $FB75                       A:56 X:FF Y:F9 P:25 SP:F9 CYC:24211
FB3B  C9 56     CMP #$56                        A:56 X:FF Y:F9 P:25 SP:F9 CYC:24213
FB3D  D0 36     BNE $FB75                       A:56 X:FF Y:F9 P:27 SP:F9 CYC:24215
FB3F  60        RTS                             A:56 X:FF Y:F9 P:27 SP:F9 CYC:24217
F4C4  AD 47 06  LDA $0647 = 14                  A:56 X:FF Y:F9 P:27 SP:FB CYC:24223
F4C7  C9 14     CMP #$14                        A:14 X:FF Y:F9 P:25 SP:FB CYC:24227
F4C9  F0 02     BEQ $F4CD                       A:14 X:FF Y:F9 P:27 SP:FB CYC:24229
F4CD  A0 FF     LDY #$FF                        A:14 X:FF Y:F9 P:27 SP:FB CYC:24231
F4CF  A9 37     LDA #$37                        A:14 X:FF Y:FF P:A5 SP:FB CYC:24233
F4D1  8D 47 06  STA $0647 = 14                  A:37 X:FF Y:FF P:25 SP:FB CYC:24235
F4D4  20 40 FB  JSR $FB40                       A:37 X:FF Y:FF P:25 SP:FB CYC:24239
FB40  24 01     BIT $01 = FF                    A:37 X:FF Y:FF P:25 SP:F9 CYC:24245
FB42  38        SEC                             A:37 X:FF Y:FF P:E5 SP:F9 CYC:24248
FB43  A9 75     LDA #$75                        A:37 X:FF Y:FF P:E5 SP:F9 CYC:24250
FB45  60        RTS                             A:75 X:FF Y:FF P:65 SP:F9 CYC:24252
F4D7  5B 48 05 *SRE $0548,Y @ 0647 = 37         A:75 X:FF Y:FF P:65 SP:FB CYC:24258
F4DA  EA        NOP                             A:6E X:FF Y:FF P:65 SP:FB CYC:24265
F4DB  EA        NOP                             A:6E X:FF Y:FF P:65 SP:FB CYC:24267
F4DC  08        PHP                             A:6E X:FF Y:FF P:65 SP:FB CYC:24269
F4DD  48        PHA                             A:6E X:FF Y:FF P:65 SP:FA CYC:24272
F4DE  A0 FA     LDY #$FA                        A:6E X:FF Y:FF P:65 SP:F9 CYC:24275
F4E0  68        PLA                             A:6E X:FF Y:FA P:E5 SP:F9 CYC:24277
F4E1  28        PLP                             A:6E X:FF Y:FA P:65 SP:FA CYC:24281
F4E2  20 46 FB  JSR $FB46                       A:6E X:FF Y:FA P:65 SP:FB CYC:24285
FB46  50 2D     BVC $FB75                       A:6E X:FF Y:FA P:65 SP:F9 CYC:24291
FB48  F0 2B     BEQ $FB75                       A:6E X:FF Y:FA P:65 SP:F9 CYC:24293
FB4A  30 29     BMI $FB75                       A:6E X:FF Y:FA P:65 SP:F9 CYC:24295
FB4C  90 27     BCC $FB75                       A:6E X:FF Y:FA P:65 SP:F9 CYC:24297
FB4E  C9 6E     CMP #$6E                        A:6E X:FF Y:FA P:65 SP:F9 CYC:24299
FB50  D0 23     BNE $FB75                       A:6E X:FF Y:FA P:67 SP:F9 CYC:24301
FB52  60        RTS                             A:6E X:FF Y:FA P:67 SP:F9 CYC:24303
F4E5  AD 47 06  LDA $0647 = 1B                  A:6E X:FF Y:FA P:67 SP:FB CYC:24309
F4E8  C9 1B     CMP #$1B                        A:1B X:FF Y:FA P:65 SP:FB CYC:24313
F4EA  F0 02     BEQ $F4EE                       A:1B X:FF Y:FA P:67 SP:FB CYC:24315
F4EE  A0 FB     LDY #$FB                        A:1B X:FF Y:FA P:67 SP:FB CYC:24317
F4F0  A2 FF     LDX #$FF                        A:1B X:FF Y:FB P:E5 SP:FB CYC:24319
F4F2  A9 A5     LDA #$A5                        A:1B X:FF Y:FB P:E5 SP:FB CYC:24321
F4F4  8D 47 06  STA $0647 = 1B                  A:A5 X:FF Y:FB P:E5 SP:FB CYC:24323
F4F7  20 1D FB  JSR $FB1D                       A:A5 X:FF Y:FB P:E5 SP:FB CYC:24327
FB1D  24 01     BIT $01 = FF                    A:A5 X:FF Y:FB P:E5 SP:F9 CYC:24333
FB1F  18        CLC                             A:A5 X:FF Y:FB P:E5 SP:F9 CYC:24336
FB20  A9 B3     LDA #$B3                        A:A5 X:FF Y:FB P:E4 SP:F9 CYC:24338
FB22  60        RTS                             A:B3 X:FF Y:FB P:E4 SP:F9 CYC:24340
F4FA  5F 48 05 *SRE $0548,X @ 0647 = A5         A:B3 X:FF Y:FB P:E4 SP:FB CYC:24346
F4FD  EA        NOP                             A:E1 X:FF Y:FB P:E5 SP:FB CYC:24353
F4FE  EA        NOP                             A:E1 X:FF Y:FB P:E5 SP:FB CYC:24355
F4FF  EA        NOP                             A:E1 X:FF Y:FB P:E5 SP:FB CYC:24357
F500  EA        NOP                             A:E1 X:FF Y:FB P:E5 SP:FB CYC:24359
F501  20 23 FB  JSR $FB23                       A:E1 X:FF Y:FB P:E5 SP:FB CYC:24361
FB23  50 50     BVC $FB75                       A:E1 X:FF Y:FB P:E5 SP:F9 CYC:24367
FB25  90 4E     BCC $FB75                       A:E1 X:FF Y:FB P:E5 SP:F9 CYC:24369
FB27  10 4C     BPL $FB75                       A:E1 X:FF Y:FB P:E5 SP:F9 CYC:24371
FB29  C9 E1     CMP #$E1                        A:E1 X:FF Y:FB P:E5 SP:F9 CYC:24373
FB2B  D0 48     BNE $FB75                       A:E1 X:FF Y:FB P:67 SP:F9 CYC:24375
FB2D  60        RTS                             A:E1 X:FF Y:FB P:67 SP:F9 CYC:24377
F504  AD 47 06  LDA $0647 = 52                  A:E1 X:FF Y:FB P:67 SP:FB CYC:24383
F507  C9 52     CMP #$52                        A:52 X:FF Y:FB P:65 SP:FB CYC:24387
F509  F0 02     BEQ $F50D                       A:52 X:FF Y:FB P:67 SP:FB CYC:24389
F50D  C8        INY                             A:52 X:FF Y:FB P:67 SP:FB CYC:24391
F50E  A9 29     LDA #$29                        A:52 X:FF Y:FC P:E5 SP:FB CYC:24393
F510  8D 47 06  STA $0647 = 52                  A:29 X:FF Y:FC P:65 SP:FB CYC:24395
F513  20 2E FB  JSR $FB2E                       A:29 X:FF Y:FC P:65 SP:FB CYC:24399
FB2E  B8        CLV                             A:29 X:FF Y:FC P:65 SP:F9 CYC:24405
FB2F  18        CLC                             A:29 X:FF Y:FC P:25 SP:F9 CYC:24407
FB30  A9 42     LDA #$42                        A:29 X:FF Y:FC P:24 SP:F9 CYC:24409
FB32  60        RTS                             A:42 X:FF Y:FC P:24 SP:F9 CYC:24411
F516  5F 48 05 *SRE $0548,X @ 0647 = 29         A:42 X:FF Y:FC P:24 SP:FB CYC:24417
F519  EA        NOP                             A:56 X:FF Y:FC P:25 SP:FB CYC:24424
F51A  EA        NOP                             A:56 X:FF Y:FC P:25 SP:FB CYC:24426
F51B  EA        NOP                             A:56 X:FF Y:FC P:25 SP:FB CYC:24428
F51C  EA        NOP                             A:56 X:FF Y:FC P:25 SP:FB CYC:24430
F51D  20 33 FB  JSR $FB33                       A:56 X:FF Y:FC P:25 SP:FB CYC:24432
FB33  70 40     BVS $FB75                       A:56 X:FF Y:FC P:25 SP:F9 CYC:24438
FB35  F0 3E     BEQ $FB75                       A:56 X:FF Y:FC P:25 SP:F9 CYC:24440
FB37  30 3C     BMI $FB75                       A:56 X:FF Y:FC P:25 SP:F9 CYC:24442
FB39  90 3A     BCC $FB75                       A:56 X:FF Y:FC P:25 SP:F9 CYC:24444
FB3B  C9 56     CMP #$56                        A:56 X:FF Y:FC P:25 SP:F9 CYC:24446
FB3D  D0 36     BNE $FB75                       A:56 X:FF Y:FC P:27 SP:F9 CYC:24448
FB3F  60        RTS                             A:56 X:FF Y:FC P:27 SP:F9 CYC:24450
F520  AD 47 06  LDA $0647 = 14                  A:56 X:FF Y:FC P:27 SP:FB CYC:24456
F523  C9 14     CMP #$14                        A:14 X:FF Y:FC P:25 SP:FB CYC:24460
F525  F0 02     BEQ $F529                       A:14 X:FF Y:FC P:27 SP:FB CYC:24462
F529  C8        INY                             A:14 X:FF Y:FC P:27 SP:FB CYC:24464
F52A  A9 37     LDA #$37                        A:14 X:FF Y:FD P:A5 SP:FB CYC:24466
F52C  8D 47 06  STA $0647 = 14                  A:37 X:FF Y:FD P:25 SP:FB CYC:24468
F52F  20 40 FB  JSR $FB40                       A:37 X:FF Y:FD P:25 SP:FB CYC:24472
FB40  24 01     BIT $01 = FF                    A:37 X:FF Y:FD P:25 SP:F9 CYC:24478
FB42  38        SEC                             A:37 X:FF Y:FD P:E5 SP:F9 CYC:24481
FB43  A9 75     LDA #$75                        A:37 X:FF Y:FD P:E5 SP:F9 CYC:24483
FB45  60        RTS                             A:75 X:FF Y:FD P:65 SP:F9 CYC:24485
F532  5F 48 05 *SRE $0548,X @ 0647 = 37         A:75 X:FF Y:FD P:65 SP:FB CYC:24491
F535  EA        NOP                             A:6E X:FF Y:FD P:65 SP:FB CYC:24498
F536  EA        NOP                             A:6E X:FF Y:FD P:65 SP:FB CYC:24500
F537  EA        NOP                             A:6E X:FF Y:FD P:65 SP:FB CYC:24502
F538  EA        NOP                             A:6E X:FF Y:FD P:65 SP:FB CYC:24504
F539  20 46 FB  JSR $FB46                       A:6E X:FF Y:FD P:65 SP:FB CYC:24506
FB46  50 2D     BVC $FB75                       A:6E X:FF Y:FD P:65 SP:F9 CYC:24512
FB48  F0 2B     BEQ $FB75                       A:6E X:FF Y:FD P:65 SP:F9 CYC:24514
FB4A  30 29     BMI $FB75                       A:6E X:FF Y:FD P:65 SP:F9 CYC:24516
FB4C  90 27     BCC $FB75                       A:6E X:FF Y:FD P:65 SP:F9 CYC:24518
FB4E  C9 6E     CMP #$6E                        A:6E X:FF Y:FD P:65 SP:F9 CYC:24520
FB50  D0 23     BNE $FB75                       A:6E X:FF Y:FD P:67 SP:F9 CYC:24522
FB52  60        RTS                             A:6E X:FF Y:FD P:67 SP:F9 CYC:24524
F53C  AD 47 06  LDA $0647 = 1B                  A:6E X:FF Y:FD P:67 SP:FB CYC:24530
F53F  C9 1B     CMP #$1B                        A:1B X:FF Y:FD P:65 SP:FB CYC:24534
F541  F0 02     BEQ $F545                       A:1B X:FF Y:FD P:67 SP:FB CYC:24536
F545  60        RTS                             A:1B X:FF Y:FD P:67 SP:FB CYC:24538
C64A  A5 00     LDA $00 = 00                    A:1B X:FF Y:FD P:67 SP:FD CYC:24544
C64C  85 11     STA $11 = 00                    A:00 X:FF Y:FD P:67 SP:FD CYC:24547
C64E  A9 00     LDA #$00                        A:00 X:FF Y:FD P:67 SP:FD CYC:24550
C650  85 00     STA $00 = 00                    A:00 X:FF Y:FD P:67 SP:FD CYC:24552
C652  20 46 F5  JSR $F546                       A:00 X:FF Y:FD P:67 SP:FD CYC:24555
F546  A9 FF     LDA #$FF                        A:00 X:FF Y:FD P:67 SP:FB CYC:24561
F548  85 01     STA $01 = FF                    A:FF X:FF Y:FD P:E5 SP:FB CYC:24563
F54A  A0 01     LDY #$01                        A:FF X:FF Y:FD P:E5 SP:FB CYC:24566
F54C  A2 02     LDX #$02                        A:FF X:FF Y:01 P:65 SP:FB CYC:24568
F54E  A9 47     LDA #$47                        A:FF X:02 Y:01 P:65 SP:FB CYC:24570
F550  85 47     STA $47 = 1B                    A:47 X:02 Y:01 P:65 SP:FB CYC:24572
F552  A9 06     LDA #$06                        A:47 X:02 Y:01 P:65 SP:FB CYC:24575
F554  85 48     STA $48 = 06                    A:06 X:02 Y:01 P:65 SP:FB CYC:24577
F556  A9 A5     LDA #$A5                        A:06 X:02 Y:01 P:65 SP:FB CYC:24580
F558  8D 47 06  STA $0647 = 1B                  A:A5 X:02 Y:01 P:E5 SP:FB CYC:24582
F55B  20 E9 FA  JSR $FAE9                       A:A5 X:02 Y:01 P:E5 SP:FB CYC:24586
FAE9  24 01     BIT $01 = FF                    A:A5 X:02 Y:01 P:E5 SP:F9 CYC:24592
FAEB  18        CLC                             A:A5 X:02 Y:01 P:E5 SP:F9 CYC:24595
FAEC  A9 B2     LDA #$B2                        A:A5 X:02 Y:01 P:E4 SP:F9 CYC:24597
FAEE  60        RTS                             A:B2 X:02 Y:01 P:E4 SP:F9 CYC:24599
F55E  63 45    *RRA ($45,X) @ 47 = 0647 = A5    A:B2 X:02 Y:01 P:E4 SP:FB CYC:24605
F560  EA        NOP                             A:05 X:02 Y:01 P:25 SP:FB CYC:24613
F561  EA        NOP                             A:05 X:02 Y:01 P:25 SP:FB CYC:24615
F562  EA        NOP                             A:05 X:02 Y:01 P:25 SP:FB CYC:24617
F563  EA        NOP                             A:05 X:02 Y:01 P:25 SP:FB CYC:24619
F564  20 EF FA  JSR $FAEF                       A:05 X:02 Y:01 P:25 SP:FB CYC:24621
FAEF  70 2A     BVS $FB1B                       A:05 X:02 Y:01 P:25 SP:F9 CYC:24627
FAF1  90 28     BCC $FB1B                       A:05 X:02 Y:01 P:25 SP:F9 CYC:24629
FAF3  30 26     BMI $FB1B                       A:05 X:02 Y:01 P:25 SP:F9 CYC:24631
FAF5  C9 05     CMP #$05                        A:05 X:02 Y:01 P:25 SP:F9 CYC:24633
FAF7  D0 22     BNE $FB1B                       A:05 X:02 Y:01 P:27 SP:F9 CYC:24635
FAF9  60        RTS                             A:05 X:02 Y:01 P:27 SP:F9 CYC:24637
F567  AD 47 06  LDA $0647 = 52                  A:05 X:02 Y:01 P:27 SP:FB CYC:24643
F56A  C9 52     CMP #$52                        A:52 X:02 Y:01 P:25 SP:FB CYC:24647
F56C  F0 02     BEQ $F570                       A:52 X:02 Y:01 P:27 SP:FB CYC:24649
F570  C8        INY                             A:52 X:02 Y:01 P:27 SP:FB CYC:24651
F571  A9 29     LDA #$29                        A:52 X:02 Y:02 P:25 SP:FB CYC:24653
F573  8D 47 06  STA $0647 = 52                  A:29 X:02 Y:02 P:25 SP:FB CYC:24655
F576  20 FA FA  JSR $FAFA                       A:29 X:02 Y:02 P:25 SP:FB CYC:24659
FAFA  B8        CLV                             A:29 X:02 Y:02 P:25 SP:F9 CYC:24665
FAFB  18        CLC                             A:29 X:02 Y:02 P:25 SP:F9 CYC:24667
FAFC  A9 42     LDA #$42                        A:29 X:02 Y:02 P:24 SP:F9 CYC:24669
FAFE  60        RTS                             A:42 X:02 Y:02 P:24 SP:F9 CYC:24671
F579  63 45    *RRA ($45,X) @ 47 = 0647 = 29    A:42 X:02 Y:02 P:24 SP:FB CYC:24677
F57B  EA        NOP                             A:57 X:02 Y:02 P:24 SP:FB CYC:24685
F57C  EA        NOP                             A:57 X:02 Y:02 P:24 SP:FB CYC:24687
F57D  EA        NOP                             A:57 X:02 Y:02 P:24 SP:FB CYC:24689
F57E  EA        NOP                             A:57 X:02 Y:02 P:24 SP:FB CYC:24691
F57F  20 FF FA  JSR $FAFF                       A:57 X:02 Y:02 P:24 SP:FB CYC:24693
FAFF  70 1A     BVS $FB1B                       A:57 X:02 Y:02 P:24 SP:F9 CYC:24699
FB01  30 18     BMI $FB1B                       A:57 X:02 Y:02 P:24 SP:F9 CYC:24701
FB03  B0 16     BCS $FB1B                       A:57 X:02 Y:02 P:24 SP:F9 CYC:24703
FB05  C9 57     CMP #$57                        A:57 X:02 Y:02 P:24 SP:F9 CYC:24705
FB07  D0 12     BNE $FB1B                       A:57 X:02 Y:02 P:27 SP:F9 CYC:24707
FB09  60        RTS                             A:57 X:02 Y:02 P:27 SP:F9 CYC:24709
F582  AD 47 06  LDA $0647 = 14                  A:57 X:02 Y:02 P:27 SP:FB CYC:24715
F585  C9 14     CMP #$14                        A:14 X:02 Y:02 P:25 SP:FB CYC:24719
F587  F0 02     BEQ $F58B                       A:14 X:02 Y:02 P:27 SP:FB CYC:24721
F58B  C8        INY                             A:14 X:02 Y:02 P:27 SP:FB CYC:24723
F58C  A9 37     LDA #$37                        A:14 X:02 Y:03 P:25 SP:FB CYC:24725
F58E  8D 47 06  STA $0647 = 14                  A:37 X:02 Y:03 P:25 SP:FB CYC:24727
F591  20 0A FB  JSR $FB0A                       A:37 X:02 Y:03 P:25 SP:FB CYC:24731
FB0A  24 01     BIT $01 = FF                    A:37 X:02 Y:03 P:25 SP:F9 CYC:24737
FB0C  38        SEC                             A:37 X:02 Y:03 P:E5 SP:F9 CYC:24740
FB0D  A9 75     LDA #$75                        A:37 X:02 Y:03 P:E5 SP:F9 CYC:24742
FB0F  60        RTS                             A:75 X:02 Y:03 P:65 SP:F9 CYC:24744
F594  63 45    *RRA ($45,X) @ 47 = 0647 = 37    A:75 X:02 Y:03 P:65 SP:FB CYC:24750
F596  EA        NOP                             A:11 X:02 Y:03 P:25 SP:FB CYC:24758
F597  EA        NOP                             A:11 X:02 Y:03 P:25 SP:FB CYC:24760
F598  EA        NOP                             A:11 X:02 Y:03 P:25 SP:FB CYC:24762
F599  EA        NOP                             A:11 X:02 Y:03 P:25 SP:FB CYC:24764
F59A  20 10 FB  JSR $FB10                       A:11 X:02 Y:03 P:25 SP:FB CYC:24766
FB10  70 09     BVS $FB1B                       A:11 X:02 Y:03 P:25 SP:F9 CYC:24772
FB12  30 07     BMI $FB1B                       A:11 X:02 Y:03 P:25 SP:F9 CYC:24774
FB14  90 05     BCC $FB1B                       A:11 X:02 Y:03 P:25 SP:F9 CYC:24776
FB16  C9 11     CMP #$11                        A:11 X:02 Y:03 P:25 SP:F9 CYC:24778
FB18  D0 01     BNE $FB1B                       A:11 X:02 Y:03 P:27 SP:F9 CYC:24780
FB1A  60        RTS                             A:11 X:02 Y:03 P:27 SP:F9 CYC:24782
F59D  AD 47 06  LDA $0647 = 9B                  A:11 X:02 Y:03 P:27 SP:FB CYC:24788
F5A0  C9 9B     CMP #$9B                        A:9B X:02 Y:03 P:A5 SP:FB CYC:24792
F5A2  F0 02     BEQ $F5A6                       A:9B X:02 Y:03 P:27 SP:FB CYC:24794
F5A6  C8        INY                             A:9B X:02 Y:03 P:27 SP:FB CYC:24796
F5A7  A9 A5     LDA #$A5                        A:9B X:02 Y:04 P:25 SP:FB CYC:24798
F5A9  85 47     STA $47 = 47                    A:A5 X:02 Y:04 P:A5 SP:FB CYC:24800
F5AB  20 E9 FA  JSR $FAE9                       A:A5 X:02 Y:04 P:A5 SP:FB CYC:24803
FAE9  24 01     BIT $01 = FF                    A:A5 X:02 Y:04 P:A5 SP:F9 CYC:24809
FAEB  18        CLC                             A:A5 X:02 Y:04 P:E5 SP:F9 CYC:24812
FAEC  A9 B2     LDA #$B2                        A:A5 X:02 Y:04 P:E4 SP:F9 CYC:24814
FAEE  60        RTS                             A:B2 X:02 Y:04 P:E4 SP:F9 CYC:24816
F5AE  67 47    *RRA $47 = A5                    A:B2 X:02 Y:04 P:E4 SP:FB CYC:24822
F5B0  EA        NOP                             A:05 X:02 Y:04 P:25 SP:FB CYC:24827
F5B1  EA        NOP                             A:05 X:02 Y:04 P:25 SP:FB CYC:24829
F5B2  EA        NOP                             A:05 X:02 Y:04 P:25 SP:FB CYC:24831
F5B3  EA        NOP                             A:05 X:02 Y:04 P:25 SP:FB CYC:24833
F5B4  20 EF FA  JSR $FAEF                       A:05 X:02 Y:04 P:25 SP:FB CYC:24835
FAEF  70 2A     BVS $FB1B                       A:05 X:02 Y:04 P:25 SP:F9 CYC:24841
FAF1  90 28     BCC $FB1B                       A:05 X:02 Y:04 P:25 SP:F9 CYC:24843
FAF3  30 26     BMI $FB1B                       A:05 X:02 Y:04 P:25 SP:F9 CYC:24845
FAF5  C9 05     CMP #$05                        A:05 X:02 Y:04 P:25 SP:F9 CYC:24847
FAF7  D0 22     BNE $FB1B                       A:05 X:02 Y:04 P:27 SP:F9 CYC:24849
FAF9  60        RTS                             A:05 X:02 Y:04 P:27 SP:F9 CYC:24851
F5B7  A5 47     LDA $47 = 52                    A:05 X:02 Y:04 P:27 SP:FB CYC:24857
F5B9  C9 52     CMP #$52                        A:52 X:02 Y:04 P:25 SP:FB CYC:24860
F5BB  F0 02     BEQ $F5BF                       A:52 X:02 Y:04 P:27 SP:FB CYC:24862
F5BF  C8        INY                             A:52 X:02 Y:04 P:27 SP:FB CYC:24864
F5C0  A9 29     LDA #$29                        A:52 X:02 Y:05 P:25 SP:FB CYC:24866
F5C2  85 47     STA $47 = 52                    A:29 X:02 Y:05 P:25 SP:FB CYC:24868
F5C4  20 FA FA  JSR $FAFA                       A:29 X:02 Y:05 P:25 SP:FB CYC:24871
FAFA  B8        CLV                             A:29 X:02 Y:05 P:25 SP:F9 CYC:24877
FAFB  18        CLC                             A:29 X:02 Y:05 P:25 SP:F9 CYC:24879
FAFC  A9 42     LDA #$42                        A:29 X:02 Y:05 P:24 SP:F9 CYC:24881
FAFE  60        RTS                             A:42 X:02 Y:05 P:24 SP:F9 CYC:24883
F5C7  67 47    *RRA $47 = 29                    A:42 X:02 Y:05 P:24 SP:FB CYC:24889
F5C9  EA        NOP                             A:57 X:02 Y:05 P:24 SP:FB CYC:24894
F5CA  EA        NOP                             A:57 X:02 Y:05 P:24 SP:FB CYC:24896
F5CB  EA        NOP                             A:57 X:02 Y:05 P:24 SP:FB CYC:24898
F5CC  EA        NOP                             A:57 X:02 Y:05 P:24 SP:FB CYC:24900
F5CD  20 FF FA  JSR $FAFF                       A:57 X:02 Y:05 P:24 SP:FB CYC:24902
FAFF  70 1A     BVS $FB1B                       A:57 X:02 Y:05 P:24 SP:F9 CYC:24908
FB01  30 18     BMI $FB1B                       A:57 X:02 Y:05 P:24 SP:F9 CYC:24910
FB03  B0 16     BCS $FB1B                       A:57 X:02 Y:05 P:24 SP:F9 CYC:24912
FB05  C9 57     CMP #$57                        A:57 X:02 Y:05 P:24 SP:F9 CYC:24914
FB07  D0 12     BNE $FB1B                       A:57 X:02 Y:05 P:27 SP:F9 CYC:24916
FB09  60        RTS                             A:57 X:02 Y:05 P:27 SP:F9 CYC:24918
F5D0  A5 47     LDA $47 = 14                    A:57 X:02 Y:05 P:27 SP:FB CYC:24924
F5D2  C9 14     CMP #$14                        A:14 X:02 Y:05 P:25 SP:FB CYC:24927
F5D4  F0 02     BEQ $F5D8                       A:14 X:02 Y:05 P:27 SP:FB CYC:24929
F5D8  C8        INY                             A:14 X:02 Y:05 P:27 SP:FB CYC:24931
F5D9  A9 37     LDA #$37                        A:14 X:02 Y:06 P:25 SP:FB CYC:24933
F5DB  85 47     STA $47 = 14                    A:37 X:02 Y:06 P:25 SP:FB CYC:24935
F5DD  20 0A FB  JSR $FB0A                       A:37 X:02 Y:06 P:25 SP:FB CYC:24938
FB0A  24 01     BIT $01 = FF                    A:37 X:02 Y:06 P:25 SP:F9 CYC:24944
FB0C  38        SEC                             A:37 X:02 Y:06 P:E5 SP:F9 CYC:24947
FB0D  A9 75     LDA #$75                        A:37 X:02 Y:06 P:E5 SP:F9 CYC:24949
FB0F  60        RTS                             A:75 X:02 Y:06 P:65 SP:F9 CYC:24951
F5E0  67 47    *RRA $47 = 37                    A:75 X:02 Y:06 P:65 SP:FB CYC:24957
F5E2  EA        NOP                             A:11 X:02 Y:06 P:25 SP:FB CYC:24962
F5E3  EA        NOP                             A:11 X:02 Y:06 P:25 SP:FB CYC:24964
F5E4  EA        NOP                             A:11 X:02 Y:06 P:25 SP:FB CYC:24966
F5E5  EA        NOP                             A:11 X:02 Y:06 P:25 SP:FB CYC:24968
F5E6  20 10 FB  JSR $FB10                       A:11 X:02 Y:06 P:25 SP:FB CYC:24970
FB10  70 09     BVS $FB1B                       A:11 X:02 Y:06 P:25 SP:F9 CYC:24976
FB12  30 07     BMI $FB1B                       A:11 X:02 Y:06 P:25 SP:F9 CYC:24978
FB14  90 05     BCC $FB1B                       A:11 X:02 Y:06 P:25 SP:F9 CYC:24980
FB16  C9 11     CMP #$11                        A:11 X:02 Y:06 P:25 SP:F9 CYC:24982
FB18  D0 01     BNE $FB1B                       A:11 X:02 Y:06 P:27 SP:F9 CYC:24984
FB1A  60        RTS                             A:11 X:02 Y:06 P:27 SP:F9 CYC:24986
F5E9  A5 47     LDA $47 = 9B                    A:11 X:02 Y:06 P:27 SP:FB CYC:24992
F5EB  C9 9B     CMP #$9B                        A:9B X:02 Y:06 P:A5 SP:FB CYC:24995
F5ED  F0 02     BEQ $F5F1                       A:9B X:02 Y:06 P:27 SP:FB CYC:24997
F5F1  C8        INY                             A:9B X:02 Y:06 P:27 SP:FB CYC:24999
F5F2  A9 A5     LDA #$A5                        A:9B X:02 Y:07 P:25 SP:FB CYC:25001
F5F4  8D 47 06  STA $0647 = 9B                  A:A5 X:02 Y:07 P:A5 SP:FB CYC:25003
F5F7  20 E9 FA  JSR $FAE9                       A:A5 X:02 Y:07 P:A5 SP:FB CYC:25007
FAE9  24 01     BIT $01 = FF                    A:A5 X:02 Y:07 P:A5 SP:F9 CYC:25013
FAEB  18        CLC                             A:A5 X:02 Y:07 P:E5 SP:F9 CYC:25016
FAEC  A9 B2     LDA #$B2                        A:A5 X:02 Y:07 P:E4 SP:F9 CYC:25018
FAEE  60        RTS                             A:B2 X:02 Y:07 P:E4 SP:F9 CYC:25020
F5FA  6F 47 06 *RRA $0647 = A5                  A:B2 X:02 Y:07 P:E4 SP:FB CYC:25026
F5FD  EA        NOP                             A:05 X:02 Y:07 P:25 SP:FB CYC:25032
F5FE  EA        NOP                             A:05 X:02 Y:07 P:25 SP:FB CYC:25034
F5FF  EA        NOP                             A:05 X:02 Y:07 P:25 SP:FB CYC:25036
F600  EA        NOP                             A:05 X:02 Y:07 P:25 SP:FB CYC:25038
F601  20 EF FA  JSR $FAEF                       A:05 X:02 Y:07 P:25 SP:FB CYC:25040
FAEF  70 2A     BVS $FB1B                       A:05 X:02 Y:07 P:25 SP:F9 CYC:25046
FAF1  90 28     BCC $FB1B                       A:05 X:02 Y:07 P:25 SP:F9 CYC:25048
FAF3  30 26     BMI $FB1B                       A:05 X:02 Y:07 P:25 SP:F9 CYC:25050
FAF5  C9 05     CMP #$05                        A:05 X:02 Y:07 P:25 SP:F9 CYC:25052
FAF7  D0 22     BNE $FB1B                       A:05 X:02 Y:07 P:27 SP:F9 CYC:25054
FAF9  60        RTS                             A:05 X:02 Y:07 P:27 SP:F9 CYC:25056
F604  AD 47 06  LDA $0647 = 52                  A:05 X:02 Y:07 P:27 SP:FB CYC:25062
F607  C9 52     CMP #$52                        A:52 X:02 Y:07 P:25 SP:FB CYC:25066
F609  F0 02     BEQ $F60D                       A:52 X:02 Y:07 P:27 SP:FB CYC:25068
F60D  C8        INY                             A:52 X:02 Y:07 P:27 SP:FB CYC:25070
F60E  A9 29     LDA #$29                        A:52 X:02 Y:08 P:25 SP:FB CYC:25072
F610  8D 47 06  STA $0647 = 52                  A:29 X:02 Y:08 P:25 SP:FB CYC:25074
F613  20 FA FA  JSR $FAFA                       A:29 X:02 Y:08 P:25 SP:FB CYC:25078
FAFA  B8        CLV                             A:29 X:02 Y:08 P:25 SP:F9 CYC:25084
FAFB  18        CLC                             A:29 X:02 Y:08 P:25 SP:F9 CYC:25086
FAFC  A9 42     LDA #$42                        A:29 X:02 Y:08 P:24 SP:F9 CYC:25088
FAFE  60        RTS                             A:42 X:02 Y:08 P:24 SP:F9 CYC:25090
F616  6F 47 06 *RRA $0647 = 29                  A:42 X:02 Y:08 P:24 SP:FB CYC:25096
F619  EA        NOP                             A:57 X:02 Y:08 P:24 SP:FB CYC:25102
F61A  EA        NOP                             A:57 X:02 Y:08 P:24 SP:FB CYC:25104
F61B  EA        NOP                             A:57 X:02 Y:08 P:24 SP:FB CYC:25106
F61C  EA        NOP                             A:57 X:02 Y:08 P:24 SP:FB CYC:25108
F61D  20 FF FA  JSR $FAFF                       A:57 X:02 Y:08 P:24 SP:FB CYC:25110
FAFF  70 1A     BVS $FB1B                       A:57 X:02 Y:08 P:24 SP:F9 CYC:25116
FB01  30 18     BMI $FB1B                       A:57 X:02 Y:08 P:24 SP:F9 CYC:25118
FB03  B0 16     BCS $FB1B                       A:57 X:02 Y:08 P:24 SP:F9 CYC:25120
FB05  C9 57     CMP #$57                        A:57 X:02 Y:08 P:24 SP:F9 CYC:25122
FB07  D0 12     BNE $FB1B                       A:57 X:02 Y:08 P:27 SP:F9 CYC:25124
FB09  60        RTS                             A:57 X:02 Y:08 P:27 SP:F9 CYC:25126
F620  AD 47 06  LDA $0647 = 14                  A:57 X:02 Y:08 P:27 SP:FB CYC:25132
F623  C9 14     CMP #$14                        A:14 X:02 Y:08 P:25 SP:FB CYC:25136
F625  F0 02     BEQ $F629                       A:14 X:02 Y:08 P:27 SP:FB CYC:25138
F629  C8        INY                             A:14 X:02 Y:08 P:27 SP:FB CYC:25140
F62A  A9 37     LDA #$37                        A:14 X:02 Y:09 P:25 SP:FB CYC:25142
F62C  8D 47 06  STA $0647 = 14                  A:37 X:02 Y:09 P:25 SP:FB CYC:25144
F62F  20 0A FB  JSR $FB0A                       A:37 X:02 Y:09 P:25 SP:FB CYC:25148
FB0A  24 01     BIT $01 = FF                    A:37 X:02 Y:09 P:25 SP:F9 CYC:25154
FB0C  38        SEC                             A:37 X:02 Y:09 P:E5 SP:F9 CYC:25157
FB0D  A9 75     LDA #$75                        A:37 X:02 Y:09 P:E5 SP:F9 CYC:25159
FB0F  60        RTS                             A:75 X:02 Y:09 P:65 SP:F9 CYC:25161
F632  6F 47 06 *RRA $0647 = 37                  A:75 X:02 Y:09 P:65 SP:FB CYC:25167
F635  EA        NOP                             A:11 X:02 Y:09 P:25 SP:FB CYC:25173
F636  EA        NOP                             A:11 X:02 Y:09 P:25 SP:FB CYC:25175
F637  EA        NOP                             A:11 X:02 Y:09 P:25 SP:FB CYC:25177
F638  EA        NOP                             A:11 X:02 Y:09 P:25 SP:FB CYC:25179
F639  20 10 FB  JSR $FB10                       A:11 X:02 Y:09 P:25 SP:FB CYC:25181
FB10  70 09     BVS $FB1B                       A:11 X:02 Y:09 P:25 SP:F9 CYC:25187
FB12  30 07     BMI $FB1B                       A:11 X:02 Y:09 P:25 SP:F9 CYC:25189
FB14  90 05     BCC $FB1B                       A:11 X:02 Y:09 P:25 SP:F9 CYC:25191
FB16  C9 11     CMP #$11                        A:11 X:02 Y:09 P:25 SP:F9 CYC:25193
FB18  D0 01     BNE $FB1B                       A:11 X:02 Y:09 P:27 SP:F9 CYC:25195
FB1A  60        RTS                             A:11 X:02 Y:09 P:27 SP:F9 CYC:25197
F63C  AD 47 06  LDA $0647 = 9B                  A:11 X:02 Y:09 P:27 SP:FB CYC:25203
F63F  C9 9B     CMP #$9B                        A:9B X:02 Y:09 P:A5 SP:FB CYC:25207
F641  F0 02     BEQ $F645                       A:9B X:02 Y:09 P:27 SP:FB CYC:25209
F645  A9 A5     LDA #$A5                        A:9B X:02 Y:09 P:27 SP:FB CYC:25211
F647  8D 47 06  STA $0647 = 9B                  A:A5 X:02 Y:09 P:A5 SP:FB CYC:25213
F64A  A9 48     LDA #$48                        A:A5 X:02 Y:09 P:A5 SP:FB CYC:25217
F64C  85 45     STA $45 = 48                    A:48 X:02 Y:09 P:25 SP:FB CYC:25219
F64E  A9 05     LDA #$05                        A:48 X:02 Y:09 P:25 SP:FB CYC:25222
F650  85 46     STA $46 = 05                    A:05 X:02 Y:09 P:25 SP:FB CYC:25224
F652  A0 FF     LDY #$FF                        A:05 X:02 Y:09 P:25 SP:FB CYC:25227
F654  20 E9 FA  JSR $FAE9                       A:05 X:02 Y:FF P:A5 SP:FB CYC:25229
FAE9  24 01     BIT $01 = FF                    A:05 X:02 Y:FF P:A5 SP:F9 CYC:25235
FAEB  18        CLC                             A:05 X:02 Y:FF P:E5 SP:F9 CYC:25238
FAEC  A9 B2     LDA #$B2                        A:05 X:02 Y:FF P:E4 SP:F9 CYC:25240
FAEE  60        RTS                             A:B2 X:02 Y:FF P:E4 SP:F9 CYC:25242
F657  73 45    *RRA ($45),Y = 0548 @ 0647 = A5  A:B2 X:02 Y:FF P:E4 SP:FB CYC:25248
F659  EA        NOP                             A:05 X:02 Y:FF P:25 SP:FB CYC:25256
F65A  EA        NOP                             A:05 X:02 Y:FF P:25 SP:FB CYC:25258
F65B  08        PHP                             A:05 X:02 Y:FF P:25 SP:FB CYC:25260
F65C  48        PHA                             A:05 X:02 Y:FF P:25 SP:FA CYC:25263
F65D  A0 0A     LDY #$0A                        A:05 X:02 Y:FF P:25 SP:F9 CYC:25266
F65F  68        PLA                             A:05 X:02 Y:0A P:25 SP:F9 CYC:25268
F660  28        PLP                             A:05 X:02 Y:0A P:25 SP:FA CYC:25272
F661  20 EF FA  JSR $FAEF                       A:05 X:02 Y:0A P:25 SP:FB CYC:25276
FAEF  70 2A     BVS $FB1B                       A:05 X:02 Y:0A P:25 SP:F9 CYC:25282
FAF1  90 28     BCC $FB1B                       A:05 X:02 Y:0A P:25 SP:F9 CYC:25284
FAF3  30 26     BMI $FB1B                       A:05 X:02 Y:0A P:25 SP:F9 CYC:25286
FAF5  C9 05     CMP #$05                        A:05 X:02 Y:0A P:25 SP:F9 CYC:25288
FAF7  D0 22     BNE $FB1B                       A:05 X:02 Y:0A P:27 SP:F9 CYC:25290
FAF9  60        RTS                             A:05 X:02 Y:0A P:27 SP:F9 CYC:25292
F664  AD 47 06  LDA $0647 = 52                  A:05 X:02 Y:0A P:27 SP:FB CYC:25298
F667  C9 52     CMP #$52                        A:52 X:02 Y:0A P:25 SP:FB CYC:25302
F669  F0 02     BEQ $F66D                       A:52 X:02 Y:0A P:27 SP:FB CYC:25304
F66D  A0 FF     LDY #$FF                        A:52 X:02 Y:0A P:27 SP:FB CYC:25306
F66F  A9 29     LDA #$29                        A:52 X:02 Y:FF P:A5 SP:FB CYC:25308
F671  8D 47 06  STA $0647 = 52                  A:29 X:02 Y:FF P:25 SP:FB CYC:25310
F674  20 FA FA  JSR $FAFA                       A:29 X:02 Y:FF P:25 SP:FB CYC:25314
FAFA  B8        CLV                             A:29 X:02 Y:FF P:25 SP:F9 CYC:25320
FAFB  18        CLC                             A:29 X:02 Y:FF P:25 SP:F9 CYC:25322
FAFC  A9 42     LDA #$42                        A:29 X:02 Y:FF P:24 SP:F9 CYC:25324
FAFE  60        RTS                             A:42 X:02 Y:FF P:24 SP:F9 CYC:25326
F677  73 45    *RRA ($45),Y = 0548 @ 0647 = 29  A:42 X:02 Y:FF P:24 SP:FB CYC:25332
F679  EA        NOP                             A:57 X:02 Y:FF P:24 SP:FB CYC:25340
F67A  EA        NOP                             A:57 X:02 Y:FF P:24 SP:FB CYC:25342
F67B  08        PHP                             A:57 X:02 Y:FF P:24 SP:FB CYC:25344
F67C  48        PHA                             A:57 X:02 Y:FF P:24 SP:FA CYC:25347
F67D  A0 0B     LDY #$0B                        A:57 X:02 Y:FF P:24 SP:F9 CYC:25350
F67F  68        PLA                             A:57 X:02 Y:0B P:24 SP:F9 CYC:25352
F680  28        PLP                             A:57 X:02 Y:0B P:24 SP:FA CYC:25356
F681  20 FF FA  JSR $FAFF                       A:57 X:02 Y:0B P:24 SP:FB CYC:25360
FAFF  70 1A     BVS $FB1B                       A:57 X:02 Y:0B P:24 SP:F9 CYC:25366
FB01  30 18     BMI $FB1B                       A:57 X:02 Y:0B P:24 SP:F9 CYC:25368
FB03  B0 16     BCS $FB1B                       A:57 X:02 Y:0B P:24 SP:F9 CYC:25370
FB05  C9 57     CMP #$57                        A:57 X:02 Y:0B P:24 SP:F9 CYC:25372
FB07  D0 12     BNE $FB1B                       A:57 X:02 Y:0B P:27 SP:F9 CYC:25374
FB09  60        RTS                             A:57 X:02 Y:0B P:27 SP:F9 CYC:25376
F684  AD 47 06  LDA $0647 = 14                  A:57 X:02 Y:0B P:27 SP:FB CYC:25382
F687  C9 14     CMP #$14                        A:14 X:02 Y:0B P:25 SP:FB CYC:25386
F689  F0 02     BEQ $F68D                       A:14 X:02 Y:0B P:27 SP:FB CYC:25388
F68D  A0 FF     LDY #$FF                        A:14 X:02 Y:0B P:27 SP:FB CYC:25390
F68F  A9 37     LDA #$37                        A:14 X:02 Y:FF P:A5 SP:FB CYC:25392
F691  8D 47 06  STA $0647 = 14                  A:37 X:02 Y:FF P:25 SP:FB CYC:25394
F694  20 0A FB  JSR $FB0A                       A:37 X:02 Y:FF P:25 SP:FB CYC:25398
FB0A  24 01     BIT $01 = FF                    A:37 X:02 Y:FF P:25 SP:F9 CYC:25404
FB0C  38        SEC                             A:37 X:02 Y:FF P:E5 SP:F9 CYC:25407
FB0D  A9 75     LDA #$75                        A:37 X:02 Y:FF P:E5 SP:F9 CYC:25409
FB0F  60        RTS                             A:75 X:02 Y:FF P:65 SP:F9 CYC:25411
F697  73 45    *RRA ($45),Y = 0548 @ 0647 = 37  A:75 X:02 Y:FF P:65 SP:FB CYC:25417
F699  EA        NOP                             A:11 X:02 Y:FF P:25 SP:FB CYC:25425
F69A  EA        NOP                             A:11 X:02 Y:FF P:25 SP:FB CYC:25427
F69B  08        PHP                             A:11 X:02 Y:FF P:25 SP:FB CYC:25429
F69C  48        PHA                             A:11 X:02 Y:FF P:25 SP:FA CYC:25432
F69D  A0 0C     LDY #$0C                        A:11 X:02 Y:FF P:25 SP:F9 CYC:25435
F69F  68        PLA                             A:11 X:02 Y:0C P:25 SP:F9 CYC:25437
F6A0  28        PLP                             A:11 X:02 Y:0C P:25 SP:FA CYC:25441
F6A1  20 10 FB  JSR $FB10                       A:11 X:02 Y:0C P:25 SP:FB CYC:25445
FB10  70 09     BVS $FB1B                       A:11 X:02 Y:0C P:25 SP:F9 CYC:25451
FB12  30 07     BMI $FB1B                       A:11 X:02 Y:0C P:25 SP:F9 CYC:25453
FB14  90 05     BCC $FB1B                       A:11 X:02 Y:0C P:25 SP:F9 CYC:25455
FB16  C9 11     CMP #$11                        A:11 X:02 Y:0C P:25 SP:F9 CYC:25457
FB18  D0 01     BNE $FB1B                       A:11 X:02 Y:0C P:27 SP:F9 CYC:25459
FB1A  60        RTS                             A:11 X:02 Y:0C P:27 SP:F9 CYC:25461
F6A4  AD 47 06  LDA $0647 = 9B                  A:11 X:02 Y:0C P:27 SP:FB CYC:25467
F6A7  C9 9B     CMP #$9B                        A:9B X:02 Y:0C P:A5 SP:FB CYC:25471
F6A9  F0 02     BEQ $F6AD                       A:9B X:02 Y:0C P:27 SP:FB CYC:25473
F6AD  A0 0D     LDY #$0D                        A:9B X:02 Y:0C P:27 SP:FB CYC:25475
F6AF  A2 FF     LDX #$FF                        A:9B X:02 Y:0D P:25 SP:FB CYC:25477
F6B1  A9 A5     LDA #$A5                        A:9B X:FF Y:0D P:A5 SP:FB CYC:25479
F6B3  85 47     STA $47 = 9B                    A:A5 X:FF Y:0D P:A5 SP:FB CYC:25481
F6B5  20 E9 FA  JSR $FAE9                       A:A5 X:FF Y:0D P:A5 SP:FB CYC:25484
FAE9  24 01     BIT $01 = FF                    A:A5 X:FF Y:0D P:A5 SP:F9 CYC:25490
FAEB  18        CLC                             A:A5 X:FF Y:0D P:E5 SP:F9 CYC:25493
FAEC  A9 B2     LDA #$B2                        A:A5 X:FF Y:0D P:E4 SP:F9 CYC:25495
FAEE  60        RTS                             A:B2 X:FF Y:0D P:E4 SP:F9 CYC:25497
F6B8  77 48    *RRA $48,X @ 47 = A5             A:B2 X:FF Y:0D P:E4 SP:FB CYC:25503
F6BA  EA        NOP                             A:05 X:FF Y:0D P:25 SP:FB CYC:25509
F6BB  EA        NOP                             A:05 X:FF Y:0D P:25 SP:FB CYC:25511
F6BC  EA        NOP                             A:05 X:FF Y:0D P:25 SP:FB CYC:25513
F6BD  EA        NOP                             A:05 X:FF Y:0D P:25 SP:FB CYC:25515
F6BE  20 EF FA  JSR $FAEF                       A:05 X:FF Y:0D P:25 SP:FB CYC:25517
FAEF  70 2A     BVS $FB1B                       A:05 X:FF Y:0D P:25 SP:F9 CYC:25523
FAF1  90 28     BCC $FB1B                       A:05 X:FF Y:0D P:25 SP:F9 CYC:25525
FAF3  30 26     BMI $FB1B                       A:05 X:FF Y:0D P:25 SP:F9 CYC:25527
FAF5  C9 05     CMP #$05                        A:05 X:FF Y:0D P:25 SP:F9 CYC:25529
FAF7  D0 22     BNE $FB1B                       A:05 X:FF Y:0D P:27 SP:F9 CYC:25531
FAF9  60        RTS                             A:05 X:FF Y:0D P:27 SP:F9 CYC:25533
F6C1  A5 47     LDA $47 = 52                    A:05 X:FF Y:0D P:27 SP:FB CYC:25539
F6C3  C9 52     CMP #$52                        A:52 X:FF Y:0D P:25 SP:FB CYC:25542
F6C5  F0 02     BEQ $F6C9                       A:52 X:FF Y:0D P:27 SP:FB CYC:25544
F6C9  C8        INY                             A:52 X:FF Y:0D P:27 SP:FB CYC:25546
F6CA  A9 29     LDA #$29                        A:52 X:FF Y:0E P:25 SP:FB CYC:25548
F6CC  85 47     STA $47 = 52                    A:29 X:FF Y:0E P:25 SP:FB CYC:25550
F6CE  20 FA FA  JSR $FAFA                       A:29 X:FF Y:0E P:25 SP:FB CYC:25553
FAFA  B8        CLV                             A:29 X:FF Y:0E P:25 SP:F9 CYC:25559
FAFB  18        CLC                             A:29 X:FF Y:0E P:25 SP:F9 CYC:25561
FAFC  A9 42     LDA #$42                        A:29 X:FF Y:0E P:24 SP:F9 CYC:25563
FAFE  60        RTS                             A:42 X:FF Y:0E P:24 SP:F9 CYC:25565
F6D1  77 48    *RRA $48,X @ 47 = 29             A:42 X:FF Y:0E P:24 SP:FB CYC:25571
F6D3  EA        NOP                             A:57 X:FF Y:0E P:24 SP:FB CYC:25577
F6D4  EA        NOP                             A:57 X:FF Y:0E P:24 SP:FB CYC:25579
F6D5  EA        NOP                             A:57 X:FF Y:0E P:24 SP:FB CYC:25581
F6D6  EA        NOP                             A:57 X:FF Y:0E P:24 SP:FB CYC:25583
F6D7  20 FF FA  JSR $FAFF                       A:57 X:FF Y:0E P:24 SP:FB CYC:25585
FAFF  70 1A     BVS $FB1B                       A:57 X:FF Y:0E P:24 SP:F9 CYC:25591
FB01  30 18     BMI $FB1B                       A:57 X:FF Y:0E P:24 SP:F9 CYC:25593
FB03  B0 16     BCS $FB1B                       A:57 X:FF Y:0E P:24 SP:F9 CYC:25595
FB05  C9 57     CMP #$57                        A:57 X:FF Y:0E P:24 SP:F9 CYC:25597
FB07  D0 12     BNE $FB1B                       A:57 X:FF Y:0E P:27 SP:F9 CYC:25599
FB09  60        RTS                             A:57 X:FF Y:0E P:27 SP:F9 CYC:25601
F6DA  A5 47     LDA $47 = 14                    A:57 X:FF Y:0E P:27 SP:FB CYC:25607
F6DC  C9 14     CMP #$14                        A:14 X:FF Y:0E P:25 SP:FB CYC:25610
F6DE  F0 02     BEQ $F6E2                       A:14 X:FF Y:0E P:27 SP:FB CYC:25612
F6E2  C8        INY                             A:14 X:FF Y:0E P:27 SP:FB CYC:25614
F6E3  A9 37     LDA #$37                        A:14 X:FF Y:0F P:25 SP:FB CYC:25616
F6E5  85 47     STA $47 = 14                    A:37 X:FF Y:0F P:25 SP:FB CYC:25618
F6E7  20 0A FB  JSR $FB0A                       A:37 X:FF Y:0F P:25 SP:FB CYC:25621
FB0A  24 01     BIT $01 = FF                    A:37 X:FF Y:0F P:25 SP:F9 CYC:25627
FB0C  38        SEC                             A:37 X:FF Y:0F P:E5 SP:F9 CYC:25630
FB0D  A9 75     LDA #$75                        A:37 X:FF Y:0F P:E5 SP:F9 CYC:25632
FB0F  60        RTS                             A:75 X:FF Y:0F P:65 SP:F9 CYC:25634
F6EA  77 48    *RRA $48,X @ 47 = 37             A:75 X:FF Y:0F P:65 SP:FB CYC:25640
F6EC  EA        NOP                             A:11 X:FF Y:0F P:25 SP:FB CYC:25646
F6ED  EA        NOP                             A:11 X:FF Y:0F P:25 SP:FB CYC:25648
F6EE  EA        NOP                             A:11 X:FF Y:0F P:25 SP:FB CYC:25650
F6EF  EA        NOP                             A:11 X:FF Y:0F P:25 SP:FB CYC:25652
F6F0  20 10 FB  JSR $FB10                       A:11 X:FF Y:0F P:25 SP:FB CYC:25654
FB10  70 09     BVS $FB1B                       A:11 X:FF Y:0F P:25 SP:F9 CYC:25660
FB12  30 07     BMI $FB1B                       A:11 X:FF Y:0F P:25 SP:F9 CYC:25662
FB14  90 05     BCC $FB1B                       A:11 X:FF Y:0F P:25 SP:F9 CYC:25664
FB16  C9 11     CMP #$11                        A:11 X:FF Y:0F P:25 SP:F9 CYC:25666
FB18  D0 01     BNE $FB1B                       A:11 X:FF Y:0F P:27 SP:F9 CYC:25668
FB1A  60        RTS                             A:11 X:FF Y:0F P:27 SP:F9 CYC:25670
F6F3  A5 47     LDA $47 = 9B                    A:11 X:FF Y:0F P:27 SP:FB CYC:25676
F6F5  C9 9B     CMP #$9B                        A:9B X:FF Y:0F P:A5 SP:FB CYC:25679
F6F7  F0 02     BEQ $F6FB                       A:9B X:FF Y:0F P:27 SP:FB CYC:25681
F6FB  A9 A5     LDA #$A5                        A:9B X:FF Y:0F P:27 SP:FB CYC:25683
F6FD  8D 47 06  STA $0647 = 9B                  A:A5 X:FF Y:0F P:A5 SP:FB CYC:25685
F700  A0 FF     LDY #$FF                        A:A5 X:FF Y:0F P:A5 SP:FB CYC:25689
F702  20 E9 FA  JSR $FAE9                       A:A5 X:FF Y:FF P:A5 SP:FB CYC:25691
FAE9  24 01     BIT $01 = FF                    A:A5 X:FF Y:FF P:A5 SP:F9 CYC:25697
FAEB  18        CLC                             A:A5 X:FF Y:FF P:E5 SP:F9 CYC:25700
FAEC  A9 B2     LDA #$B2                        A:A5 X:FF Y:FF P:E4 SP:F9 CYC:25702
FAEE  60        RTS                             A:B2 X:FF Y:FF P:E4 SP:F9 CYC:25704
F705  7B 48 05 *RRA $0548,Y @ 0647 = A5         A:B2 X:FF Y:FF P:E4 SP:FB CYC:25710
F708  EA        NOP                             A:05 X:FF Y:FF P:25 SP:FB CYC:25717
F709  EA        NOP                             A:05 X:FF Y:FF P:25 SP:FB CYC:25719
F70A  08        PHP                             A:05 X:FF Y:FF P:25 SP:FB CYC:25721
F70B  48        PHA                             A:05 X:FF Y:FF P:25 SP:FA CYC:25724
F70C  A0 10     LDY #$10                        A:05 X:FF Y:FF P:25 SP:F9 CYC:25727
F70E  68        PLA                             A:05 X:FF Y:10 P:25 SP:F9 CYC:25729
F70F  28        PLP                             A:05 X:FF Y:10 P:25 SP:FA CYC:25733
F710  20 EF FA  JSR $FAEF                       A:05 X:FF Y:10 P:25 SP:FB CYC:25737
FAEF  70 2A     BVS $FB1B                       A:05 X:FF Y:10 P:25 SP:F9 CYC:25743
FAF1  90 28     BCC $FB1B                       A:05 X:FF Y:10 P:25 SP:F9 CYC:25745
FAF3  30 26     BMI $FB1B                       A:05 X:FF Y:10 P:25 SP:F9 CYC:25747
FAF5  C9 05     CMP #$05                        A:05 X:FF Y:10 P:25 SP:F9 CYC:25749
FAF7  D0 22     BNE $FB1B                       A:05 X:FF Y:10 P:27 SP:F9 CYC:25751
FAF9  60        RTS                             A:05 X:FF Y:10 P:27 SP:F9 CYC:25753
F713  AD 47 06  LDA $0647 = 52                  A:05 X:FF Y:10 P:27 SP:FB CYC:25759
F716  C9 52     CMP #$52                        A:52 X:FF Y:10 P:25 SP:FB CYC:25763
F718  F0 02     BEQ $F71C                       A:52 X:FF Y:10 P:27 SP:FB CYC:25765
F71C  A0 FF     LDY #$FF                        A:52 X:FF Y:10 P:27 SP:FB CYC:25767
F71E  A9 29     LDA #$29                        A:52 X:FF Y:FF P:A5 SP:FB CYC:25769
F720  8D 47 06  STA $0647 = 52                  A:29 X:FF Y:FF P:25 SP:FB CYC:25771
F723  20 FA FA  JSR $FAFA                       A:29 X:FF Y:FF P:25 SP:FB CYC:25775
FAFA  B8        CLV                             A:29 X:FF Y:FF P:25 SP:F9 CYC:25781
FAFB  18        CLC                             A:29 X:FF Y:FF P:25 SP:F9 CYC:25783
FAFC  A9 42     LDA #$42                        A:29 X:FF Y:FF P:24 SP:F9 CYC:25785
FAFE  60        RTS                             A:42 X:FF Y:FF P:24 SP:F9 CYC:25787
F726  7B 48 05 *RRA $0548,Y @ 0647 = 29         A:42 X:FF Y:FF P:24 SP:FB CYC:25793
F729  EA        NOP                             A:57 X:FF Y:FF P:24 SP:FB CYC:25800
F72A  EA        NOP                             A:57 X:FF Y:FF P:24 SP:FB CYC:25802
F72B  08        PHP                             A:57 X:FF Y:FF P:24 SP:FB CYC:25804
F72C  48        PHA                             A:57 X:FF Y:FF P:24 SP:FA CYC:25807
F72D  A0 11     LDY #$11                        A:57 X:FF Y:FF P:24 SP:F9 CYC:25810
F72F  68        PLA                             A:57 X:FF Y:11 P:24 SP:F9 CYC:25812
F730  28        PLP                             A:57 X:FF Y:11 P:24 SP:FA CYC:25816
F731  20 FF FA  JSR $FAFF                       A:57 X:FF Y:11 P:24 SP:FB CYC:25820
FAFF  70 1A     BVS $FB1B                       A:57 X:FF Y:11 P:24 SP:F9 CYC:25826
FB01  30 18     BMI $FB1B                       A:57 X:FF Y:11 P:24 SP:F9 CYC:25828
FB03  B0 16     BCS $FB1B                       A:57 X:FF Y:11 P:24 SP:F9 CYC:25830
FB05  C9 57     CMP #$57                        A:57 X:FF Y:11 P:24 SP:F9 CYC:25832
FB07  D0 12     BNE $FB1B                       A:57 X:FF Y:11 P:27 SP:F9 CYC:25834
FB09  60        RTS                             A:57 X:FF Y:11 P:27 SP:F9 CYC:25836
F734  AD 47 06  LDA $0647 = 14                  A:57 X:FF Y:11 P:27 SP:FB CYC:25842
F737  C9 14     CMP #$14                        A:14 X:FF Y:11 P:25 SP:FB CYC:25846
F739  F0 02     BEQ $F73D                       A:14 X:FF Y:11 P:27 SP:FB CYC:25848
F73D  A0 FF     LDY #$FF                        A:14 X:FF Y:11 P:27 SP:FB CYC:25850
F73F  A9 37     LDA #$37                        A:14 X:FF Y:FF P:A5 SP:FB CYC:25852
F741  8D 47 06  STA $0647 = 14                  A:37 X:FF Y:FF P:25 SP:FB CYC:25854
F744  20 0A FB  JSR $FB0A                       A:37 X:FF Y:FF P:25 SP:FB CYC:25858
FB0A  24 01     BIT $01 = FF                    A:37 X:FF Y:FF P:25 SP:F9 CYC:25864
FB0C  38        SEC                             A:37 X:FF Y:FF P:E5 SP:F9 CYC:25867
FB0D  A9 75     LDA #$75                        A:37 X:FF Y:FF P:E5 SP:F9 CYC:25869
FB0F  60        RTS                             A:75 X:FF Y:FF P:65 SP:F9 CYC:25871
F747  7B 48 05 *RRA $0548,Y @ 0647 = 37         A:75 X:FF Y:FF P:65 SP:FB CYC:25877
F74A  EA        NOP                             A:11 X:FF Y:FF P:25 SP:FB CYC:25884
F74B  EA        NOP                             A:11 X:FF Y:FF P:25 SP:FB CYC:25886
F74C  08        PHP                             A:11 X:FF Y:FF P:25 SP:FB CYC:25888
F74D  48        PHA                             A:11 X:FF Y:FF P:25 SP:FA CYC:25891
F74E  A0 12     LDY #$12                        A:11 X:FF Y:FF P:25 SP:F9 CYC:25894
F750  68        PLA                             A:11 X:FF Y:12 P:25 SP:F9 CYC:25896
F751  28        PLP                             A:11 X:FF Y:12 P:25 SP:FA CYC:25900
F752  20 10 FB  JSR $FB10                       A:11 X:FF Y:12 P:25 SP:FB CYC:25904
FB10  70 09     BVS $FB1B                       A:11 X:FF Y:12 P:25 SP:F9 CYC:25910
FB12  30 07     BMI $FB1B                       A:11 X:FF Y:12 P:25 SP:F9 CYC:25912
FB14  90 05     BCC $FB1B                       A:11 X:FF Y:12 P:25 SP:F9 CYC:25914
FB16  C9 11     CMP #$11                        A:11 X:FF Y:12 P:25 SP:F9 CYC:25916
FB18  D0 01     BNE $FB1B                       A:11 X:FF Y:12 P:27 SP:F9 CYC:25918
FB1A  60        RTS                             A:11 X:FF Y:12 P:27 SP:F9 CYC:25920
F755  AD 47 06  LDA $0647 = 9B                  A:11 X:FF Y:12 P:27 SP:FB CYC:25926
F758  C9 9B     CMP #$9B                        A:9B X:FF Y:12 P:A5 SP:FB CYC:25930
F75A  F0 02     BEQ $F75E                       A:9B X:FF Y:12 P:27 SP:FB CYC:25932
F75E  A0 13     LDY #$13                        A:9B X:FF Y:12 P:27 SP:FB CYC:25934
F760  A2 FF     LDX #$FF                        A:9B X:FF Y:13 P:25 SP:FB CYC:25936
F762  A9 A5     LDA #$A5                        A:9B X:FF Y:13 P:A5 SP:FB CYC:25938
F764  8D 47 06  STA $0647 = 9B                  A:A5 X:FF Y:13 P:A5 SP:FB CYC:25940
F767  20 E9 FA  JSR $FAE9                       A:A5 X:FF Y:13 P:A5 SP:FB CYC:25944
FAE9  24 01     BIT $01 = FF                    A:A5 X:FF Y:13 P:A5 SP:F9 CYC:25950
FAEB  18        CLC                             A:A5 X:FF Y:13 P:E5 SP:F9 CYC:25953
FAEC  A9 B2     LDA #$B2                        A:A5 X:FF Y:13 P:E4 SP:F9 CYC:25955
FAEE  60        RTS                             A:B2 X:FF Y:13 P:E4 SP:F9 CYC:25957
F76A  7F 48 05 *RRA $0548,X @ 0647 = A5         A:B2 X:FF Y:13 P:E4 SP:FB CYC:25963
F76D  EA        NOP                             A:05 X:FF Y:13 P:25 SP:FB CYC:25970
F76E  EA        NOP                             A:05 X:FF Y:13 P:25 SP:FB CYC:25972
F76F  EA        NOP                             A:05 X:FF Y:13 P:25 SP:FB CYC:25974
F770  EA        NOP                             A:05 X:FF Y:13 P:25 SP:FB CYC:25976
F771  20 EF FA  JSR $FAEF                       A:05 X:FF Y:13 P:25 SP:FB CYC:25978
FAEF  70 2A     BVS $FB1B                       A:05 X:FF Y:13 P:25 SP:F9 CYC:25984
FAF1  90 28     BCC $FB1B                       A:05 X:FF Y:13 P:25 SP:F9 CYC:25986
FAF3  30 26     BMI $FB1B                       A:05 X:FF Y:13 P:25 SP:F9 CYC:25988
FAF5  C9 05     CMP #$05                        A:05 X:FF Y:13 P:25 SP:F9 CYC:25990
FAF7  D0 22     BNE $FB1B                       A:05 X:FF Y:13 P:27 SP:F9 CYC:25992
FAF9  60        RTS                             A:05 X:FF Y:13 P:27 SP:F9 CYC:25994
F774  AD 47 06  LDA $0647 = 52                  A:05 X:FF Y:13 P:27 SP:FB CYC:26000
F777  C9 52     CMP #$52                        A:52 X:FF Y:13 P:25 SP:FB CYC:26004
F779  F0 02     BEQ $F77D                       A:52 X:FF Y:13 P:27 SP:FB CYC:26006
F77D  C8        INY                             A:52 X:FF Y:13 P:27 SP:FB CYC:26008
F77E  A9 29     LDA #$29                        A:52 X:FF Y:14 P:25 SP:FB CYC:26010
F780  8D 47 06  STA $0647 = 52                  A:29 X:FF Y:14 P:25 SP:FB CYC:26012
F783  20 FA FA  JSR $FAFA                       A:29 X:FF Y:14 P:25 SP:FB CYC:26016
FAFA  B8        CLV                             A:29 X:FF Y:14 P:25 SP:F9 CYC:26022
FAFB  18        CLC                             A:29 X:FF Y:14 P:25 SP:F9 CYC:26024
FAFC  A9 42     LDA #$42                        A:29 X:FF Y:14 P:24 SP:F9 CYC:26026
FAFE  60        RTS                             A:42 X:FF Y:14 P:24 SP:F9 CYC:26028
F786  7F 48 05 *RRA $0548,X @ 0647 = 29         A:42 X:FF Y:14 P:24 SP:FB CYC:26034
F789  EA        NOP                             A:57 X:FF Y:14 P:24 SP:FB CYC:26041
F78A  EA        NOP                             A:57 X:FF Y:14 P:24 SP:FB CYC:26043
F78B  EA        NOP                             A:57 X:FF Y:14 P:24 SP:FB CYC:26045
F78C  EA        NOP                             A:57 X:FF Y:14 P:24 SP:FB CYC:26047
F78D  20 FF FA  JSR $FAFF                       A:57 X:FF Y:14 P:24 SP:FB CYC:26049
FAFF  70 1A     BVS $FB1B                       A:57 X:FF Y:14 P:24 SP:F9 CYC:26055
FB01  30 18     BMI $FB1B                       A:57 X:FF Y:14 P:24 SP:F9 CYC:26057
FB03  B0 16     BCS $FB1B                       A:57 X:FF Y:14 P:24 SP:F9 CYC:26059
FB05  C9 57     CMP #$57                        A:57 X:FF Y:14 P:24 SP:F9 CYC:26061
FB07  D0 12     BNE $FB1B                       A:57 X:FF Y:14 P:27 SP:F9 CYC:26063
FB09  60        RTS                             A:57 X:FF Y:14 P:27 SP:F9 CYC:26065
F790  AD 47 06  LDA $0647 = 14                  A:57 X:FF Y:14 P:27 SP:FB CYC:26071
F793  C9 14     CMP #$14                        A:14 X:FF Y:14 P:25 SP:FB CYC:26075
F795  F0 02     BEQ $F799                       A:14 X:FF Y:14 P:27 SP:FB CYC:26077
F799  C8        INY                             A:14 X:FF Y:14 P:27 SP:FB CYC:26079
F79A  A9 37     LDA #$37                        A:14 X:FF Y:15 P:25 SP:FB CYC:26081
F79C  8D 47 06  STA $0647 = 14                  A:37 X:FF Y:15 P:25 SP:FB CYC:26083
F79F  20 0A FB  JSR $FB0A                       A:37 X:FF Y:15 P:25 SP:FB CYC:26087
FB0A  24 01     BIT $01 = FF                    A:37 X:FF Y:15 P:25 SP:F9 CYC:26093
FB0C  38        SEC                             A:37 X:FF Y:15 P:E5 SP:F9 CYC:26096
FB0D  A9 75     LDA #$75                        A:37 X:FF Y:15 P:E5 SP:F9 CYC:26098
FB0F  60        RTS                             A:75 X:FF Y:15 P:65 SP:F9 CYC:26100
F7A2  7F 48 05 *RRA $0548,X @ 0647 = 37         A:75 X:FF Y:15 P:65 SP:FB CYC:26106
F7A5  EA        NOP                             A:11 X:FF Y:15 P:25 SP:FB CYC:26113
F7A6  EA        NOP                             A:11 X:FF Y:15 P:25 SP:FB CYC:26115
F7A7  EA        NOP                             A:11 X:FF Y:15 P:25 SP:FB CYC:26117
F7A8  EA        NOP                             A:11 X:FF Y:15 P:25 SP:FB CYC:26119
F7A9  20 10 FB  JSR $FB10                       A:11 X:FF Y:15 P:25 SP:FB CYC:26121
FB10  70 09     BVS $FB1B                       A:11 X:FF Y:15 P:25 SP:F9 CYC:26127
FB12  30 07     BMI $FB1B                       A:11 X:FF Y:15 P:25 SP:F9 CYC:26129
FB14  90 05     BCC $FB1B                       A:11 X:FF Y:15 P:25 SP:F9 CYC:26131
FB16  C9 11     CMP #$11                        A:11 X:FF Y:15 P:25 SP:F9 CYC:26133
FB18  D0 01     BNE $FB1B                       A:11 X:FF Y:15 P:27 SP:F9 CYC:26135
FB1A  60        RTS                             A:11 X:FF Y:15 P:27 SP:F9 CYC:26137
F7AC  AD 47 06  LDA $0647 = 9B                  A:11 X:FF Y:15 P:27 SP:FB CYC:26143
F7AF  C9 9B     CMP #$9B                        A:9B X:FF Y:15 P:A5 SP:FB CYC:26147
F7B1  F0 02     BEQ $F7B5                       A:9B X:FF Y:15 P:27 SP:FB CYC:26149
F7B5  60        RTS                             A:9B X:FF Y:15 P:27 SP:FB CYC:26151
C655  A5 00     LDA $00 = 00                    A:9B X:FF Y:15 P:27 SP:FD CYC:26157
C657  05 10     ORA $10 = 00                    A:00 X:FF Y:15 P:27 SP:FD CYC:26160
C659  05 11     ORA $11 = 00                    A:00 X:FF Y:15 P:27 SP:FD CYC:26163
C65B  F0 0E     BEQ $C66B                       A:00 X:FF Y:15 P:27 SP:FD CYC:26166
C66B  20 89 C6  JSR $C689                       A:00 X:FF Y:15 P:27 SP:FD CYC:26168
C689  A9 02     LDA #$02                        A:00 X:FF Y:15 P:27 SP:FB CYC:26174
C68B  8D 15 40  Read to unsupported location: 0x4015
